
BottomBd.elf:     file format elf32-littlearm

Sections:
Idx Name          Size      VMA       LMA       File off  Algn
  0 .isr_vector   000001e4  08004000  08004000  00004000  2**0
                  CONTENTS, ALLOC, LOAD, READONLY, DATA
  1 .text         00009278  080041e4  080041e4  000041e4  2**2
                  CONTENTS, ALLOC, LOAD, READONLY, CODE
  2 .rodata       00000ee0  0800d45c  0800d45c  0000d45c  2**2
                  CONTENTS, ALLOC, LOAD, READONLY, DATA
  3 .ARM.extab    00000000  0800e33c  0800e33c  000101a4  2**0
                  CONTENTS
  4 .ARM          00000000  0800e33c  0800e33c  000101a4  2**0
                  CONTENTS
  5 .preinit_array 00000000  0800e33c  0800e33c  000101a4  2**0
                  CONTENTS, ALLOC, LOAD, DATA
  6 .init_array   00000004  0800e33c  0800e33c  0000e33c  2**2
                  CONTENTS, ALLOC, LOAD, DATA
  7 .fini_array   00000004  0800e340  0800e340  0000e340  2**2
                  CONTENTS, ALLOC, LOAD, DATA
  8 .data         000001a4  20000000  0800e344  00010000  2**2
                  CONTENTS, ALLOC, LOAD, DATA
  9 .bss          00000da8  200001a8  0800e4e8  000101a8  2**3
                  ALLOC
 10 ._user_heap_stack 00000600  20000f50  0800e4e8  00010f50  2**0
                  ALLOC
 11 .ARM.attributes 00000029  00000000  00000000  000101a4  2**0
                  CONTENTS, READONLY
 12 .comment      00000050  00000000  00000000  000101cd  2**0
                  CONTENTS, READONLY
 13 .debug_frame  00000fa4  00000000  00000000  00010220  2**2
                  CONTENTS, READONLY, DEBUGGING, OCTETS

Disassembly of section .text:

080041e4 <__do_global_dtors_aux>:
 80041e4:	b510      	push	{r4, lr}
 80041e6:	4c05      	ldr	r4, [pc, #20]	; (80041fc <__do_global_dtors_aux+0x18>)
 80041e8:	7823      	ldrb	r3, [r4, #0]
 80041ea:	b933      	cbnz	r3, 80041fa <__do_global_dtors_aux+0x16>
 80041ec:	4b04      	ldr	r3, [pc, #16]	; (8004200 <__do_global_dtors_aux+0x1c>)
 80041ee:	b113      	cbz	r3, 80041f6 <__do_global_dtors_aux+0x12>
 80041f0:	4804      	ldr	r0, [pc, #16]	; (8004204 <__do_global_dtors_aux+0x20>)
 80041f2:	f3af 8000 	nop.w
 80041f6:	2301      	movs	r3, #1
 80041f8:	7023      	strb	r3, [r4, #0]
 80041fa:	bd10      	pop	{r4, pc}
 80041fc:	200001a8 	.word	0x200001a8
 8004200:	00000000 	.word	0x00000000
 8004204:	0800d444 	.word	0x0800d444

08004208 <frame_dummy>:
 8004208:	b508      	push	{r3, lr}
 800420a:	4b03      	ldr	r3, [pc, #12]	; (8004218 <frame_dummy+0x10>)
 800420c:	b11b      	cbz	r3, 8004216 <frame_dummy+0xe>
 800420e:	4903      	ldr	r1, [pc, #12]	; (800421c <frame_dummy+0x14>)
 8004210:	4803      	ldr	r0, [pc, #12]	; (8004220 <frame_dummy+0x18>)
 8004212:	f3af 8000 	nop.w
 8004216:	bd08      	pop	{r3, pc}
 8004218:	00000000 	.word	0x00000000
 800421c:	200001ac 	.word	0x200001ac
 8004220:	0800d444 	.word	0x0800d444

08004224 <strcmp>:
 8004224:	f810 2b01 	ldrb.w	r2, [r0], #1
 8004228:	f811 3b01 	ldrb.w	r3, [r1], #1
 800422c:	2a01      	cmp	r2, #1
 800422e:	bf28      	it	cs
 8004230:	429a      	cmpcs	r2, r3
 8004232:	d0f7      	beq.n	8004224 <strcmp>
 8004234:	1ad0      	subs	r0, r2, r3
 8004236:	4770      	bx	lr

08004238 <strlen>:
 8004238:	4603      	mov	r3, r0
 800423a:	f813 2b01 	ldrb.w	r2, [r3], #1
 800423e:	2a00      	cmp	r2, #0
 8004240:	d1fb      	bne.n	800423a <strlen+0x2>
 8004242:	1a18      	subs	r0, r3, r0
 8004244:	3801      	subs	r0, #1
 8004246:	4770      	bx	lr

08004248 <SystemClock_Config>:
 8004248:	b5d0      	push	{r4, r6, r7, lr}
 800424a:	b096      	sub	sp, #88	; 0x58
 800424c:	2224      	movs	r2, #36	; 0x24
 800424e:	2100      	movs	r1, #0
 8004250:	a80d      	add	r0, sp, #52	; 0x34
 8004252:	f006 ffc1 	bl	800b1d8 <memset>
 8004256:	2110      	movs	r1, #16
 8004258:	2001      	movs	r0, #1
 800425a:	2400      	movs	r4, #0
 800425c:	220a      	movs	r2, #10
 800425e:	2301      	movs	r3, #1
 8004260:	e9cd 0110 	strd	r0, r1, [sp, #64]	; 0x40
 8004264:	a80c      	add	r0, sp, #48	; 0x30
 8004266:	920c      	str	r2, [sp, #48]	; 0x30
 8004268:	9312      	str	r3, [sp, #72]	; 0x48
 800426a:	2600      	movs	r6, #0
 800426c:	2700      	movs	r7, #0
 800426e:	e9cd 4401 	strd	r4, r4, [sp, #4]
 8004272:	e9cd 4403 	strd	r4, r4, [sp, #12]
 8004276:	e9cd 4407 	strd	r4, r4, [sp, #28]
 800427a:	e9cd 4409 	strd	r4, r4, [sp, #36]	; 0x24
 800427e:	9400      	str	r4, [sp, #0]
 8004280:	9406      	str	r4, [sp, #24]
 8004282:	940b      	str	r4, [sp, #44]	; 0x2c
 8004284:	f003 f8c0 	bl	8007408 <HAL_RCC_OscConfig>
 8004288:	220f      	movs	r2, #15
 800428a:	2300      	movs	r3, #0
 800428c:	4621      	mov	r1, r4
 800428e:	4668      	mov	r0, sp
 8004290:	e9cd 2300 	strd	r2, r3, [sp]
 8004294:	e9cd 6702 	strd	r6, r7, [sp, #8]
 8004298:	9404      	str	r4, [sp, #16]
 800429a:	f003 faa5 	bl	80077e8 <HAL_RCC_ClockConfig>
 800429e:	2302      	movs	r3, #2
 80042a0:	a806      	add	r0, sp, #24
 80042a2:	9306      	str	r3, [sp, #24]
 80042a4:	9408      	str	r4, [sp, #32]
 80042a6:	f003 fbd1 	bl	8007a4c <HAL_RCCEx_PeriphCLKConfig>
 80042aa:	f003 fba9 	bl	8007a00 <HAL_RCC_GetHCLKFreq>
 80042ae:	4b08      	ldr	r3, [pc, #32]	; (80042d0 <SystemClock_Config+0x88>)
 80042b0:	fba3 3000 	umull	r3, r0, r3, r0
 80042b4:	0980      	lsrs	r0, r0, #6
 80042b6:	f001 fd87 	bl	8005dc8 <HAL_SYSTICK_Config>
 80042ba:	2004      	movs	r0, #4
 80042bc:	f001 fd9c 	bl	8005df8 <HAL_SYSTICK_CLKSourceConfig>
 80042c0:	4622      	mov	r2, r4
 80042c2:	4621      	mov	r1, r4
 80042c4:	f04f 30ff 	mov.w	r0, #4294967295
 80042c8:	f001 fd32 	bl	8005d30 <HAL_NVIC_SetPriority>
 80042cc:	b016      	add	sp, #88	; 0x58
 80042ce:	bdd0      	pop	{r4, r6, r7, pc}
 80042d0:	10624dd3 	.word	0x10624dd3

080042d4 <main>:
 80042d4:	e92d 4ff0 	stmdb	sp!, {r4, r5, r6, r7, r8, r9, sl, fp, lr}
 80042d8:	2400      	movs	r4, #0
 80042da:	b08f      	sub	sp, #60	; 0x3c
 80042dc:	f001 f96c 	bl	80055b8 <HAL_Init>
 80042e0:	f7ff ffb2 	bl	8004248 <SystemClock_Config>
 80042e4:	e9cd 440a 	strd	r4, r4, [sp, #40]	; 0x28
 80042e8:	e9cd 440c 	strd	r4, r4, [sp, #48]	; 0x30
 80042ec:	4dbb      	ldr	r5, [pc, #748]	; (80045dc <main+0x308>)
 80042ee:	f44f 7162 	mov.w	r1, #904	; 0x388
 80042f2:	69ab      	ldr	r3, [r5, #24]
 80042f4:	4622      	mov	r2, r4
 80042f6:	f043 0310 	orr.w	r3, r3, #16
 80042fa:	61ab      	str	r3, [r5, #24]
 80042fc:	69ab      	ldr	r3, [r5, #24]
 80042fe:	48b8      	ldr	r0, [pc, #736]	; (80045e0 <main+0x30c>)
 8004300:	f003 0310 	and.w	r3, r3, #16
 8004304:	9304      	str	r3, [sp, #16]
 8004306:	9b04      	ldr	r3, [sp, #16]
 8004308:	69ab      	ldr	r3, [r5, #24]
 800430a:	4eb6      	ldr	r6, [pc, #728]	; (80045e4 <main+0x310>)
 800430c:	f043 0320 	orr.w	r3, r3, #32
 8004310:	61ab      	str	r3, [r5, #24]
 8004312:	69ab      	ldr	r3, [r5, #24]
 8004314:	f8df 82d0 	ldr.w	r8, [pc, #720]	; 80045e8 <main+0x314>
 8004318:	f003 0320 	and.w	r3, r3, #32
 800431c:	9305      	str	r3, [sp, #20]
 800431e:	9b05      	ldr	r3, [sp, #20]
 8004320:	69ab      	ldr	r3, [r5, #24]
 8004322:	f8df 92c8 	ldr.w	r9, [pc, #712]	; 80045ec <main+0x318>
 8004326:	f043 0304 	orr.w	r3, r3, #4
 800432a:	61ab      	str	r3, [r5, #24]
 800432c:	69ab      	ldr	r3, [r5, #24]
 800432e:	4fb0      	ldr	r7, [pc, #704]	; (80045f0 <main+0x31c>)
 8004330:	f003 0304 	and.w	r3, r3, #4
 8004334:	9306      	str	r3, [sp, #24]
 8004336:	9b06      	ldr	r3, [sp, #24]
 8004338:	69ab      	ldr	r3, [r5, #24]
 800433a:	f8df a2b8 	ldr.w	sl, [pc, #696]	; 80045f4 <main+0x320>
 800433e:	f043 0308 	orr.w	r3, r3, #8
 8004342:	61ab      	str	r3, [r5, #24]
 8004344:	69ab      	ldr	r3, [r5, #24]
 8004346:	f8df b2b0 	ldr.w	fp, [pc, #688]	; 80045f8 <main+0x324>
 800434a:	f003 0308 	and.w	r3, r3, #8
 800434e:	9307      	str	r3, [sp, #28]
 8004350:	9b07      	ldr	r3, [sp, #28]
 8004352:	f002 f8e9 	bl	8006528 <HAL_GPIO_WritePin>
 8004356:	4622      	mov	r2, r4
 8004358:	f241 0101 	movw	r1, #4097	; 0x1001
 800435c:	48a7      	ldr	r0, [pc, #668]	; (80045fc <main+0x328>)
 800435e:	f002 f8e3 	bl	8006528 <HAL_GPIO_WritePin>
 8004362:	2201      	movs	r2, #1
 8004364:	2102      	movs	r1, #2
 8004366:	48a5      	ldr	r0, [pc, #660]	; (80045fc <main+0x328>)
 8004368:	f002 f8de 	bl	8006528 <HAL_GPIO_WritePin>
 800436c:	2128      	movs	r1, #40	; 0x28
 800436e:	2201      	movs	r2, #1
 8004370:	48a3      	ldr	r0, [pc, #652]	; (8004600 <main+0x32c>)
 8004372:	f002 f8d9 	bl	8006528 <HAL_GPIO_WritePin>
 8004376:	4622      	mov	r2, r4
 8004378:	21c0      	movs	r1, #192	; 0xc0
 800437a:	48a1      	ldr	r0, [pc, #644]	; (8004600 <main+0x32c>)
 800437c:	f002 f8d4 	bl	8006528 <HAL_GPIO_WritePin>
 8004380:	f246 0201 	movw	r2, #24577	; 0x6001
 8004384:	2300      	movs	r3, #0
 8004386:	4896      	ldr	r0, [pc, #600]	; (80045e0 <main+0x30c>)
 8004388:	a90a      	add	r1, sp, #40	; 0x28
 800438a:	e9cd 230a 	strd	r2, r3, [sp, #40]	; 0x28
 800438e:	940c      	str	r4, [sp, #48]	; 0x30
 8004390:	f001 ff9c 	bl	80062cc <HAL_GPIO_Init>
 8004394:	2200      	movs	r2, #0
 8004396:	2302      	movs	r3, #2
 8004398:	e9cd 230c 	strd	r2, r3, [sp, #48]	; 0x30
 800439c:	f44f 7262 	mov.w	r2, #904	; 0x388
 80043a0:	2301      	movs	r3, #1
 80043a2:	488f      	ldr	r0, [pc, #572]	; (80045e0 <main+0x30c>)
 80043a4:	a90a      	add	r1, sp, #40	; 0x28
 80043a6:	e9cd 230a 	strd	r2, r3, [sp, #40]	; 0x28
 80043aa:	f001 ff8f 	bl	80062cc <HAL_GPIO_Init>
 80043ae:	2200      	movs	r2, #0
 80043b0:	2302      	movs	r3, #2
 80043b2:	e9cd 230c 	strd	r2, r3, [sp, #48]	; 0x30
 80043b6:	f241 0203 	movw	r2, #4099	; 0x1003
 80043ba:	2301      	movs	r3, #1
 80043bc:	488f      	ldr	r0, [pc, #572]	; (80045fc <main+0x328>)
 80043be:	a90a      	add	r1, sp, #40	; 0x28
 80043c0:	e9cd 230a 	strd	r2, r3, [sp, #40]	; 0x28
 80043c4:	f001 ff82 	bl	80062cc <HAL_GPIO_Init>
 80043c8:	22f0      	movs	r2, #240	; 0xf0
 80043ca:	2300      	movs	r3, #0
 80043cc:	488b      	ldr	r0, [pc, #556]	; (80045fc <main+0x328>)
 80043ce:	a90a      	add	r1, sp, #40	; 0x28
 80043d0:	e9cd 230a 	strd	r2, r3, [sp, #40]	; 0x28
 80043d4:	940c      	str	r4, [sp, #48]	; 0x30
 80043d6:	f001 ff79 	bl	80062cc <HAL_GPIO_Init>
 80043da:	2302      	movs	r3, #2
 80043dc:	2230      	movs	r2, #48	; 0x30
 80043de:	930c      	str	r3, [sp, #48]	; 0x30
 80043e0:	2300      	movs	r3, #0
 80043e2:	487f      	ldr	r0, [pc, #508]	; (80045e0 <main+0x30c>)
 80043e4:	a90a      	add	r1, sp, #40	; 0x28
 80043e6:	e9cd 230a 	strd	r2, r3, [sp, #40]	; 0x28
 80043ea:	f001 ff6f 	bl	80062cc <HAL_GPIO_Init>
 80043ee:	2302      	movs	r3, #2
 80043f0:	2203      	movs	r2, #3
 80043f2:	930c      	str	r3, [sp, #48]	; 0x30
 80043f4:	2300      	movs	r3, #0
 80043f6:	4882      	ldr	r0, [pc, #520]	; (8004600 <main+0x32c>)
 80043f8:	a90a      	add	r1, sp, #40	; 0x28
 80043fa:	e9cd 230a 	strd	r2, r3, [sp, #40]	; 0x28
 80043fe:	f001 ff65 	bl	80062cc <HAL_GPIO_Init>
 8004402:	f44f 4270 	mov.w	r2, #61440	; 0xf000
 8004406:	2300      	movs	r3, #0
 8004408:	487d      	ldr	r0, [pc, #500]	; (8004600 <main+0x32c>)
 800440a:	a90a      	add	r1, sp, #40	; 0x28
 800440c:	e9cd 230a 	strd	r2, r3, [sp, #40]	; 0x28
 8004410:	940c      	str	r4, [sp, #48]	; 0x30
 8004412:	f001 ff5b 	bl	80062cc <HAL_GPIO_Init>
 8004416:	2200      	movs	r2, #0
 8004418:	2302      	movs	r3, #2
 800441a:	e9cd 230c 	strd	r2, r3, [sp, #48]	; 0x30
 800441e:	22e8      	movs	r2, #232	; 0xe8
 8004420:	2301      	movs	r3, #1
 8004422:	4877      	ldr	r0, [pc, #476]	; (8004600 <main+0x32c>)
 8004424:	a90a      	add	r1, sp, #40	; 0x28
 8004426:	e9cd 230a 	strd	r2, r3, [sp, #40]	; 0x28
 800442a:	f001 ff4f 	bl	80062cc <HAL_GPIO_Init>
 800442e:	f04f 0201 	mov.w	r2, #1
 8004432:	4b74      	ldr	r3, [pc, #464]	; (8004604 <main+0x330>)
 8004434:	2101      	movs	r1, #1
 8004436:	731a      	strb	r2, [r3, #12]
 8004438:	f44f 2260 	mov.w	r2, #917504	; 0xe0000
 800443c:	61da      	str	r2, [r3, #28]
 800443e:	461a      	mov	r2, r3
 8004440:	6119      	str	r1, [r3, #16]
 8004442:	609c      	str	r4, [r3, #8]
 8004444:	751c      	strb	r4, [r3, #20]
 8004446:	605c      	str	r4, [r3, #4]
 8004448:	4b6f      	ldr	r3, [pc, #444]	; (8004608 <main+0x334>)
 800444a:	4610      	mov	r0, r2
 800444c:	6013      	str	r3, [r2, #0]
 800444e:	e9cd 440a 	strd	r4, r4, [sp, #40]	; 0x28
 8004452:	940c      	str	r4, [sp, #48]	; 0x30
 8004454:	f001 f8e6 	bl	8005624 <HAL_ADC_Init>
 8004458:	220c      	movs	r2, #12
 800445a:	2301      	movs	r3, #1
 800445c:	a90a      	add	r1, sp, #40	; 0x28
 800445e:	4869      	ldr	r0, [pc, #420]	; (8004604 <main+0x330>)
 8004460:	e9cd 230a 	strd	r2, r3, [sp, #40]	; 0x28
 8004464:	940c      	str	r4, [sp, #48]	; 0x30
 8004466:	f001 fb11 	bl	8005a8c <HAL_ADC_ConfigChannel>
 800446a:	2203      	movs	r2, #3
 800446c:	69ab      	ldr	r3, [r5, #24]
 800446e:	4864      	ldr	r0, [pc, #400]	; (8004600 <main+0x32c>)
 8004470:	f043 0308 	orr.w	r3, r3, #8
 8004474:	61ab      	str	r3, [r5, #24]
 8004476:	69ab      	ldr	r3, [r5, #24]
 8004478:	920d      	str	r2, [sp, #52]	; 0x34
 800447a:	f003 0308 	and.w	r3, r3, #8
 800447e:	9302      	str	r3, [sp, #8]
 8004480:	9b02      	ldr	r3, [sp, #8]
 8004482:	f44f 6240 	mov.w	r2, #3072	; 0xc00
 8004486:	2312      	movs	r3, #18
 8004488:	e9cd 230a 	strd	r2, r3, [sp, #40]	; 0x28
 800448c:	69ab      	ldr	r3, [r5, #24]
 800448e:	a90a      	add	r1, sp, #40	; 0x28
 8004490:	f043 0308 	orr.w	r3, r3, #8
 8004494:	61ab      	str	r3, [r5, #24]
 8004496:	69ab      	ldr	r3, [r5, #24]
 8004498:	250c      	movs	r5, #12
 800449a:	f003 0308 	and.w	r3, r3, #8
 800449e:	9303      	str	r3, [sp, #12]
 80044a0:	9b03      	ldr	r3, [sp, #12]
 80044a2:	f001 ff13 	bl	80062cc <HAL_GPIO_Init>
 80044a6:	2201      	movs	r2, #1
 80044a8:	f44f 6180 	mov.w	r1, #1024	; 0x400
 80044ac:	4854      	ldr	r0, [pc, #336]	; (8004600 <main+0x32c>)
 80044ae:	f002 f83b 	bl	8006528 <HAL_GPIO_WritePin>
 80044b2:	2201      	movs	r2, #1
 80044b4:	f44f 6100 	mov.w	r1, #2048	; 0x800
 80044b8:	4851      	ldr	r0, [pc, #324]	; (8004600 <main+0x32c>)
 80044ba:	f002 f835 	bl	8006528 <HAL_GPIO_WritePin>
 80044be:	f44f 4380 	mov.w	r3, #16384	; 0x4000
 80044c2:	4952      	ldr	r1, [pc, #328]	; (800460c <main+0x338>)
 80044c4:	6133      	str	r3, [r6, #16]
 80044c6:	4b52      	ldr	r3, [pc, #328]	; (8004610 <main+0x33c>)
 80044c8:	4630      	mov	r0, r6
 80044ca:	e9c6 1300 	strd	r1, r3, [r6]
 80044ce:	e9c6 4402 	strd	r4, r4, [r6, #8]
 80044d2:	e9c6 4405 	strd	r4, r4, [r6, #20]
 80044d6:	e9c6 4407 	strd	r4, r4, [r6, #28]
 80044da:	f002 faab 	bl	8006a34 <HAL_I2C_Init>
 80044de:	f44f 33e1 	mov.w	r3, #115200	; 0x1c200
 80044e2:	e9c8 3401 	strd	r3, r4, [r8, #4]
 80044e6:	4b4b      	ldr	r3, [pc, #300]	; (8004614 <main+0x340>)
 80044e8:	4640      	mov	r0, r8
 80044ea:	e9c8 5405 	strd	r5, r4, [r8, #20]
 80044ee:	f8c8 3000 	str.w	r3, [r8]
 80044f2:	e9c8 4403 	strd	r4, r4, [r8, #12]
 80044f6:	f8c8 401c 	str.w	r4, [r8, #28]
 80044fa:	f003 fdf1 	bl	80080e0 <HAL_UART_Init>
 80044fe:	f44f 4116 	mov.w	r1, #38400	; 0x9600
 8004502:	4b45      	ldr	r3, [pc, #276]	; (8004618 <main+0x344>)
 8004504:	4648      	mov	r0, r9
 8004506:	e9c9 1401 	strd	r1, r4, [r9, #4]
 800450a:	e9c9 5405 	strd	r5, r4, [r9, #20]
 800450e:	f8c9 3000 	str.w	r3, [r9]
 8004512:	e9c9 4403 	strd	r4, r4, [r9, #12]
 8004516:	f8c9 401c 	str.w	r4, [r9, #28]
 800451a:	f003 fde1 	bl	80080e0 <HAL_UART_Init>
 800451e:	f44f 2260 	mov.w	r2, #917504	; 0xe0000
 8004522:	4b3e      	ldr	r3, [pc, #248]	; (800461c <main+0x348>)
 8004524:	2001      	movs	r0, #1
 8004526:	61da      	str	r2, [r3, #28]
 8004528:	f04f 0201 	mov.w	r2, #1
 800452c:	731a      	strb	r2, [r3, #12]
 800452e:	461a      	mov	r2, r3
 8004530:	6118      	str	r0, [r3, #16]
 8004532:	609c      	str	r4, [r3, #8]
 8004534:	751c      	strb	r4, [r3, #20]
 8004536:	605c      	str	r4, [r3, #4]
 8004538:	4b39      	ldr	r3, [pc, #228]	; (8004620 <main+0x34c>)
 800453a:	4610      	mov	r0, r2
 800453c:	6013      	str	r3, [r2, #0]
 800453e:	e9cd 440a 	strd	r4, r4, [sp, #40]	; 0x28
 8004542:	940c      	str	r4, [sp, #48]	; 0x30
 8004544:	f001 f86e 	bl	8005624 <HAL_ADC_Init>
 8004548:	aa0a      	add	r2, sp, #40	; 0x28
 800454a:	4611      	mov	r1, r2
 800454c:	2301      	movs	r3, #1
 800454e:	220b      	movs	r2, #11
 8004550:	4832      	ldr	r0, [pc, #200]	; (800461c <main+0x348>)
 8004552:	e9cd 230a 	strd	r2, r3, [sp, #40]	; 0x28
 8004556:	940c      	str	r4, [sp, #48]	; 0x30
 8004558:	f001 fa98 	bl	8005a8c <HAL_ADC_ConfigChannel>
 800455c:	f04f 4080 	mov.w	r0, #1073741824	; 0x40000000
 8004560:	2307      	movs	r3, #7
 8004562:	e9c7 0300 	strd	r0, r3, [r7]
 8004566:	f240 33e7 	movw	r3, #999	; 0x3e7
 800456a:	4638      	mov	r0, r7
 800456c:	60fb      	str	r3, [r7, #12]
 800456e:	e9cd 440a 	strd	r4, r4, [sp, #40]	; 0x28
 8004572:	e9cd 440c 	strd	r4, r4, [sp, #48]	; 0x30
 8004576:	e9cd 4408 	strd	r4, r4, [sp, #32]
 800457a:	60bc      	str	r4, [r7, #8]
 800457c:	613c      	str	r4, [r7, #16]
 800457e:	61bc      	str	r4, [r7, #24]
 8004580:	f003 fb6c 	bl	8007c5c <HAL_TIM_Base_Init>
 8004584:	f44f 5380 	mov.w	r3, #4096	; 0x1000
 8004588:	aa0a      	add	r2, sp, #40	; 0x28
 800458a:	4611      	mov	r1, r2
 800458c:	4638      	mov	r0, r7
 800458e:	930a      	str	r3, [sp, #40]	; 0x28
 8004590:	f003 fc0e 	bl	8007db0 <HAL_TIM_ConfigClockSource>
 8004594:	aa08      	add	r2, sp, #32
 8004596:	4611      	mov	r1, r2
 8004598:	2300      	movs	r3, #0
 800459a:	2200      	movs	r2, #0
 800459c:	4638      	mov	r0, r7
 800459e:	e9cd 2308 	strd	r2, r3, [sp, #32]
 80045a2:	f003 fd5f 	bl	8008064 <HAL_TIMEx_MasterConfigSynchronization>
 80045a6:	f44f 33e1 	mov.w	r3, #115200	; 0x1c200
 80045aa:	e9ca 3401 	strd	r3, r4, [sl, #4]
 80045ae:	4b1d      	ldr	r3, [pc, #116]	; (8004624 <main+0x350>)
 80045b0:	4650      	mov	r0, sl
 80045b2:	e9ca 5405 	strd	r5, r4, [sl, #20]
 80045b6:	f8ca 3000 	str.w	r3, [sl]
 80045ba:	e9ca 4403 	strd	r4, r4, [sl, #12]
 80045be:	f8ca 401c 	str.w	r4, [sl, #28]
 80045c2:	f003 fd8d 	bl	80080e0 <HAL_UART_Init>
 80045c6:	4b18      	ldr	r3, [pc, #96]	; (8004628 <main+0x354>)
 80045c8:	f44f 4116 	mov.w	r1, #38400	; 0x9600
 80045cc:	461a      	mov	r2, r3
 80045ce:	6059      	str	r1, [r3, #4]
 80045d0:	615d      	str	r5, [r3, #20]
 80045d2:	e9c3 4402 	strd	r4, r4, [r3, #8]
 80045d6:	611c      	str	r4, [r3, #16]
 80045d8:	e028      	b.n	800462c <main+0x358>
 80045da:	bf00      	nop
 80045dc:	40021000 	.word	0x40021000
 80045e0:	40011000 	.word	0x40011000
 80045e4:	20000224 	.word	0x20000224
 80045e8:	200002d0 	.word	0x200002d0
 80045ec:	20000350 	.word	0x20000350
 80045f0:	20000288 	.word	0x20000288
 80045f4:	20000310 	.word	0x20000310
 80045f8:	20000278 	.word	0x20000278
 80045fc:	40010800 	.word	0x40010800
 8004600:	40010c00 	.word	0x40010c00
 8004604:	200001c4 	.word	0x200001c4
 8004608:	40012400 	.word	0x40012400
 800460c:	40005800 	.word	0x40005800
 8004610:	000186a0 	.word	0x000186a0
 8004614:	40013800 	.word	0x40013800
 8004618:	40004800 	.word	0x40004800
 800461c:	200001f4 	.word	0x200001f4
 8004620:	40012800 	.word	0x40012800
 8004624:	40004400 	.word	0x40004400
 8004628:	20000390 	.word	0x20000390
 800462c:	619c      	str	r4, [r3, #24]
 800462e:	61dc      	str	r4, [r3, #28]
 8004630:	4bab      	ldr	r3, [pc, #684]	; (80048e0 <main+0x60c>)
 8004632:	4610      	mov	r0, r2
 8004634:	6013      	str	r3, [r2, #0]
 8004636:	2505      	movs	r5, #5
 8004638:	f003 fd52 	bl	80080e0 <HAL_UART_Init>
 800463c:	f44f 637a 	mov.w	r3, #4000	; 0xfa0
 8004640:	e9cb 5301 	strd	r5, r3, [fp, #4]
 8004644:	4ba7      	ldr	r3, [pc, #668]	; (80048e4 <main+0x610>)
 8004646:	4658      	mov	r0, fp
 8004648:	f8cb 3000 	str.w	r3, [fp]
 800464c:	4da6      	ldr	r5, [pc, #664]	; (80048e8 <main+0x614>)
 800464e:	f002 fea7 	bl	80073a0 <HAL_IWDG_Init>
 8004652:	4638      	mov	r0, r7
 8004654:	f003 fb78 	bl	8007d48 <HAL_TIM_Base_Start_IT>
 8004658:	f005 ff00 	bl	800a45c <SerialInitQueue>
 800465c:	464a      	mov	r2, r9
 800465e:	4651      	mov	r1, sl
 8004660:	4ba2      	ldr	r3, [pc, #648]	; (80048ec <main+0x618>)
 8004662:	4640      	mov	r0, r8
 8004664:	f005 ff12 	bl	800a48c <SerialInit>
 8004668:	f005 fb54 	bl	8009d14 <InitRS485>
 800466c:	682b      	ldr	r3, [r5, #0]
 800466e:	4621      	mov	r1, r4
 8004670:	6898      	ldr	r0, [r3, #8]
 8004672:	f006 fe5b 	bl	800b32c <setbuf>
 8004676:	682b      	ldr	r3, [r5, #0]
 8004678:	2202      	movs	r2, #2
 800467a:	4621      	mov	r1, r4
 800467c:	6898      	ldr	r0, [r3, #8]
 800467e:	4623      	mov	r3, r4
 8004680:	f006 fe5c 	bl	800b33c <setvbuf>
 8004684:	f000 ffb6 	bl	80055f4 <HAL_GetTick>
 8004688:	4601      	mov	r1, r0
 800468a:	4899      	ldr	r0, [pc, #612]	; (80048f0 <main+0x61c>)
 800468c:	f006 fdac 	bl	800b1e8 <iprintf>
 8004690:	2001      	movs	r0, #1
 8004692:	f000 f9a3 	bl	80049dc <setAmpMute>
 8004696:	4630      	mov	r0, r6
 8004698:	f004 ffb0 	bl	80095fc <TestNVRAM>
 800469c:	f000 fa9e 	bl	8004bdc <getRS485Id>
 80046a0:	4601      	mov	r1, r0
 80046a2:	4894      	ldr	r0, [pc, #592]	; (80048f4 <main+0x620>)
 80046a4:	f006 fda0 	bl	800b1e8 <iprintf>
 80046a8:	4893      	ldr	r0, [pc, #588]	; (80048f8 <main+0x624>)
 80046aa:	f006 fe37 	bl	800b31c <puts>
 80046ae:	2302      	movs	r3, #2
 80046b0:	4630      	mov	r0, r6
 80046b2:	461a      	mov	r2, r3
 80046b4:	21d8      	movs	r1, #216	; 0xd8
 80046b6:	f002 fd6f 	bl	8007198 <HAL_I2C_IsDeviceReady>
 80046ba:	2800      	cmp	r0, #0
 80046bc:	f040 810b 	bne.w	80048d6 <main+0x602>
 80046c0:	488e      	ldr	r0, [pc, #568]	; (80048fc <main+0x628>)
 80046c2:	f006 fe2b 	bl	800b31c <puts>
 80046c6:	2501      	movs	r5, #1
 80046c8:	24ff      	movs	r4, #255	; 0xff
 80046ca:	2200      	movs	r2, #0
 80046cc:	21d8      	movs	r1, #216	; 0xd8
 80046ce:	488c      	ldr	r0, [pc, #560]	; (8004900 <main+0x62c>)
 80046d0:	ab0a      	add	r3, sp, #40	; 0x28
 80046d2:	9500      	str	r5, [sp, #0]
 80046d4:	f88d 4028 	strb.w	r4, [sp, #40]	; 0x28
 80046d8:	f004 ff6c 	bl	80095b4 <MB85_HAL_ReadBytes>
 80046dc:	2800      	cmp	r0, #0
 80046de:	f000 80f6 	beq.w	80048ce <main+0x5fa>
 80046e2:	f89d 1028 	ldrb.w	r1, [sp, #40]	; 0x28
 80046e6:	4887      	ldr	r0, [pc, #540]	; (8004904 <main+0x630>)
 80046e8:	f006 fd7e 	bl	800b1e8 <iprintf>
 80046ec:	2201      	movs	r2, #1
 80046ee:	24ff      	movs	r4, #255	; 0xff
 80046f0:	21d8      	movs	r1, #216	; 0xd8
 80046f2:	4883      	ldr	r0, [pc, #524]	; (8004900 <main+0x62c>)
 80046f4:	ab0a      	add	r3, sp, #40	; 0x28
 80046f6:	9200      	str	r2, [sp, #0]
 80046f8:	f88d 4028 	strb.w	r4, [sp, #40]	; 0x28
 80046fc:	f004 ff5a 	bl	80095b4 <MB85_HAL_ReadBytes>
 8004700:	2800      	cmp	r0, #0
 8004702:	f000 80e0 	beq.w	80048c6 <main+0x5f2>
 8004706:	f89d 1028 	ldrb.w	r1, [sp, #40]	; 0x28
 800470a:	487f      	ldr	r0, [pc, #508]	; (8004908 <main+0x634>)
 800470c:	f006 fd6c 	bl	800b1e8 <iprintf>
 8004710:	2001      	movs	r0, #1
 8004712:	f000 f9e7 	bl	8004ae4 <setAmpSd>
 8004716:	f8df 91f4 	ldr.w	r9, [pc, #500]	; 800490c <main+0x638>
 800471a:	f000 f973 	bl	8004a04 <ampMuteOn>
 800471e:	4f7c      	ldr	r7, [pc, #496]	; (8004910 <main+0x63c>)
 8004720:	f8df a1f0 	ldr.w	sl, [pc, #496]	; 8004914 <main+0x640>
 8004724:	4e7c      	ldr	r6, [pc, #496]	; (8004918 <main+0x644>)
 8004726:	4d7d      	ldr	r5, [pc, #500]	; (800491c <main+0x648>)
 8004728:	f8df 81f4 	ldr.w	r8, [pc, #500]	; 8004920 <main+0x64c>
 800472c:	e016      	b.n	800475c <main+0x488>
 800472e:	6833      	ldr	r3, [r6, #0]
 8004730:	1ae3      	subs	r3, r4, r3
 8004732:	f5b3 7f7a 	cmp.w	r3, #1000	; 0x3e8
 8004736:	da58      	bge.n	80047ea <main+0x516>
 8004738:	f241 3287 	movw	r2, #4999	; 0x1387
 800473c:	682b      	ldr	r3, [r5, #0]
 800473e:	1ae3      	subs	r3, r4, r3
 8004740:	4293      	cmp	r3, r2
 8004742:	dd04      	ble.n	800474e <main+0x47a>
 8004744:	4b77      	ldr	r3, [pc, #476]	; (8004924 <main+0x650>)
 8004746:	602c      	str	r4, [r5, #0]
 8004748:	781b      	ldrb	r3, [r3, #0]
 800474a:	2b00      	cmp	r3, #0
 800474c:	d05f      	beq.n	800480e <main+0x53a>
 800474e:	f643 2297 	movw	r2, #14999	; 0x3a97
 8004752:	f8d8 3000 	ldr.w	r3, [r8]
 8004756:	1ae3      	subs	r3, r4, r3
 8004758:	4293      	cmp	r3, r2
 800475a:	dc69      	bgt.n	8004830 <main+0x55c>
 800475c:	f000 ff4a 	bl	80055f4 <HAL_GetTick>
 8004760:	4604      	mov	r4, r0
 8004762:	f004 fae9 	bl	8008d38 <LoopProcCLI>
 8004766:	f005 fb09 	bl	8009d7c <LoopProcRS485_3ch>
 800476a:	f005 fbb9 	bl	8009ee0 <LoopProcRS485_5ch>
 800476e:	f005 fc69 	bl	800a044 <LoopProcRFM_2ch>
 8004772:	f8d9 3000 	ldr.w	r3, [r9]
 8004776:	b123      	cbz	r3, 8004782 <main+0x4ae>
 8004778:	f64a 22aa 	movw	r2, #43690	; 0xaaaa
 800477c:	f8db 3000 	ldr.w	r3, [fp]
 8004780:	601a      	str	r2, [r3, #0]
 8004782:	f000 fa4f 	bl	8004c24 <processRfLed>
 8004786:	f000 fa69 	bl	8004c5c <processChargeLed>
 800478a:	f000 fb15 	bl	8004db8 <processLightLed>
 800478e:	f000 fb53 	bl	8004e38 <processAudioAmpProcess>
 8004792:	f000 fbff 	bl	8004f94 <processTestDebug>
 8004796:	683b      	ldr	r3, [r7, #0]
 8004798:	1ae3      	subs	r3, r4, r3
 800479a:	2b63      	cmp	r3, #99	; 0x63
 800479c:	ddc7      	ble.n	800472e <main+0x45a>
 800479e:	603c      	str	r4, [r7, #0]
 80047a0:	f000 f8f8 	bl	8004994 <getVccIn>
 80047a4:	f8da 3000 	ldr.w	r3, [sl]
 80047a8:	4298      	cmp	r0, r3
 80047aa:	d00f      	beq.n	80047cc <main+0x4f8>
 80047ac:	f000 f8f2 	bl	8004994 <getVccIn>
 80047b0:	f8ca 0000 	str.w	r0, [sl]
 80047b4:	f000 f8ee 	bl	8004994 <getVccIn>
 80047b8:	4601      	mov	r1, r0
 80047ba:	485b      	ldr	r0, [pc, #364]	; (8004928 <main+0x654>)
 80047bc:	f006 fd14 	bl	800b1e8 <iprintf>
 80047c0:	f000 f8f4 	bl	80049ac <getMasterIn>
 80047c4:	4601      	mov	r1, r0
 80047c6:	4859      	ldr	r0, [pc, #356]	; (800492c <main+0x658>)
 80047c8:	f006 fd0e 	bl	800b1e8 <iprintf>
 80047cc:	f000 f8e2 	bl	8004994 <getVccIn>
 80047d0:	2801      	cmp	r0, #1
 80047d2:	d03a      	beq.n	800484a <main+0x576>
 80047d4:	2301      	movs	r3, #1
 80047d6:	4a56      	ldr	r2, [pc, #344]	; (8004930 <main+0x65c>)
 80047d8:	6013      	str	r3, [r2, #0]
 80047da:	2300      	movs	r3, #0
 80047dc:	4a55      	ldr	r2, [pc, #340]	; (8004934 <main+0x660>)
 80047de:	6013      	str	r3, [r2, #0]
 80047e0:	6833      	ldr	r3, [r6, #0]
 80047e2:	1ae3      	subs	r3, r4, r3
 80047e4:	f5b3 7f7a 	cmp.w	r3, #1000	; 0x3e8
 80047e8:	dba6      	blt.n	8004738 <main+0x464>
 80047ea:	6034      	str	r4, [r6, #0]
 80047ec:	f000 fb98 	bl	8004f20 <processGetBatVol>
 80047f0:	f000 f8e8 	bl	80049c4 <getAmpFault>
 80047f4:	4850      	ldr	r0, [pc, #320]	; (8004938 <main+0x664>)
 80047f6:	f005 fdeb 	bl	800a3d0 <checkSerial>
 80047fa:	4850      	ldr	r0, [pc, #320]	; (800493c <main+0x668>)
 80047fc:	f005 fde8 	bl	800a3d0 <checkSerial>
 8004800:	484f      	ldr	r0, [pc, #316]	; (8004940 <main+0x66c>)
 8004802:	f005 fde5 	bl	800a3d0 <checkSerial>
 8004806:	4839      	ldr	r0, [pc, #228]	; (80048ec <main+0x618>)
 8004808:	f005 fde2 	bl	800a3d0 <checkSerial>
 800480c:	e794      	b.n	8004738 <main+0x464>
 800480e:	f000 fbc3 	bl	8004f98 <AMP_SPK_CHECK>
 8004812:	2800      	cmp	r0, #0
 8004814:	d09b      	beq.n	800474e <main+0x47a>
 8004816:	4a4b      	ldr	r2, [pc, #300]	; (8004944 <main+0x670>)
 8004818:	7813      	ldrb	r3, [r2, #0]
 800481a:	2b05      	cmp	r3, #5
 800481c:	bf9c      	itt	ls
 800481e:	3301      	addls	r3, #1
 8004820:	7013      	strbls	r3, [r2, #0]
 8004822:	f643 2297 	movw	r2, #14999	; 0x3a97
 8004826:	f8d8 3000 	ldr.w	r3, [r8]
 800482a:	1ae3      	subs	r3, r4, r3
 800482c:	4293      	cmp	r3, r2
 800482e:	dd95      	ble.n	800475c <main+0x488>
 8004830:	4a45      	ldr	r2, [pc, #276]	; (8004948 <main+0x674>)
 8004832:	7813      	ldrb	r3, [r2, #0]
 8004834:	b10b      	cbz	r3, 800483a <main+0x566>
 8004836:	3b01      	subs	r3, #1
 8004838:	7013      	strb	r3, [r2, #0]
 800483a:	4a42      	ldr	r2, [pc, #264]	; (8004944 <main+0x670>)
 800483c:	7813      	ldrb	r3, [r2, #0]
 800483e:	b10b      	cbz	r3, 8004844 <main+0x570>
 8004840:	3b01      	subs	r3, #1
 8004842:	7013      	strb	r3, [r2, #0]
 8004844:	f8c8 4000 	str.w	r4, [r8]
 8004848:	e788      	b.n	800475c <main+0x488>
 800484a:	4a3a      	ldr	r2, [pc, #232]	; (8004934 <main+0x660>)
 800484c:	6813      	ldr	r3, [r2, #0]
 800484e:	3301      	adds	r3, #1
 8004850:	2b0f      	cmp	r3, #15
 8004852:	6013      	str	r3, [r2, #0]
 8004854:	f77f af6b 	ble.w	800472e <main+0x45a>
 8004858:	f000 f8a8 	bl	80049ac <getMasterIn>
 800485c:	b1c8      	cbz	r0, 8004892 <main+0x5be>
 800485e:	4a3b      	ldr	r2, [pc, #236]	; (800494c <main+0x678>)
 8004860:	6813      	ldr	r3, [r2, #0]
 8004862:	3301      	adds	r3, #1
 8004864:	6013      	str	r3, [r2, #0]
 8004866:	4a32      	ldr	r2, [pc, #200]	; (8004930 <main+0x65c>)
 8004868:	6812      	ldr	r2, [r2, #0]
 800486a:	4282      	cmp	r2, r0
 800486c:	f43f af5f 	beq.w	800472e <main+0x45a>
 8004870:	2b05      	cmp	r3, #5
 8004872:	dd24      	ble.n	80048be <main+0x5ea>
 8004874:	4b2e      	ldr	r3, [pc, #184]	; (8004930 <main+0x65c>)
 8004876:	6018      	str	r0, [r3, #0]
 8004878:	f000 f88c 	bl	8004994 <getVccIn>
 800487c:	4b2d      	ldr	r3, [pc, #180]	; (8004934 <main+0x660>)
 800487e:	4a33      	ldr	r2, [pc, #204]	; (800494c <main+0x678>)
 8004880:	4601      	mov	r1, r0
 8004882:	681b      	ldr	r3, [r3, #0]
 8004884:	6812      	ldr	r2, [r2, #0]
 8004886:	4832      	ldr	r0, [pc, #200]	; (8004950 <main+0x67c>)
 8004888:	f006 fcae 	bl	800b1e8 <iprintf>
 800488c:	f005 f804 	bl	8009898 <RFMOccPaStart>
 8004890:	e74d      	b.n	800472e <main+0x45a>
 8004892:	4b2e      	ldr	r3, [pc, #184]	; (800494c <main+0x678>)
 8004894:	6018      	str	r0, [r3, #0]
 8004896:	4b26      	ldr	r3, [pc, #152]	; (8004930 <main+0x65c>)
 8004898:	681b      	ldr	r3, [r3, #0]
 800489a:	2b00      	cmp	r3, #0
 800489c:	f43f af47 	beq.w	800472e <main+0x45a>
 80048a0:	4b23      	ldr	r3, [pc, #140]	; (8004930 <main+0x65c>)
 80048a2:	6018      	str	r0, [r3, #0]
 80048a4:	f000 f876 	bl	8004994 <getVccIn>
 80048a8:	4b22      	ldr	r3, [pc, #136]	; (8004934 <main+0x660>)
 80048aa:	4a28      	ldr	r2, [pc, #160]	; (800494c <main+0x678>)
 80048ac:	4601      	mov	r1, r0
 80048ae:	681b      	ldr	r3, [r3, #0]
 80048b0:	6812      	ldr	r2, [r2, #0]
 80048b2:	4827      	ldr	r0, [pc, #156]	; (8004950 <main+0x67c>)
 80048b4:	f006 fc98 	bl	800b1e8 <iprintf>
 80048b8:	f005 f80a 	bl	80098d0 <RFMOccPaStop>
 80048bc:	e737      	b.n	800472e <main+0x45a>
 80048be:	2b00      	cmp	r3, #0
 80048c0:	f47f af35 	bne.w	800472e <main+0x45a>
 80048c4:	e7d6      	b.n	8004874 <main+0x5a0>
 80048c6:	4823      	ldr	r0, [pc, #140]	; (8004954 <main+0x680>)
 80048c8:	f006 fd28 	bl	800b31c <puts>
 80048cc:	e720      	b.n	8004710 <main+0x43c>
 80048ce:	4822      	ldr	r0, [pc, #136]	; (8004958 <main+0x684>)
 80048d0:	f006 fd24 	bl	800b31c <puts>
 80048d4:	e70a      	b.n	80046ec <main+0x418>
 80048d6:	4601      	mov	r1, r0
 80048d8:	4820      	ldr	r0, [pc, #128]	; (800495c <main+0x688>)
 80048da:	f006 fc85 	bl	800b1e8 <iprintf>
 80048de:	e6f2      	b.n	80046c6 <main+0x3f2>
 80048e0:	40005000 	.word	0x40005000
 80048e4:	40003000 	.word	0x40003000
 80048e8:	20000140 	.word	0x20000140
 80048ec:	20000390 	.word	0x20000390
 80048f0:	0800d468 	.word	0x0800d468
 80048f4:	0800d474 	.word	0x0800d474
 80048f8:	0800d4a0 	.word	0x0800d4a0
 80048fc:	0800d4c8 	.word	0x0800d4c8
 8004900:	20000224 	.word	0x20000224
 8004904:	0800d4f4 	.word	0x0800d4f4
 8004908:	0800d52c 	.word	0x0800d52c
 800490c:	20000000 	.word	0x20000000
 8004910:	200003e4 	.word	0x200003e4
 8004914:	200003ec 	.word	0x200003ec
 8004918:	200003e8 	.word	0x200003e8
 800491c:	200003e0 	.word	0x200003e0
 8004920:	200003d8 	.word	0x200003d8
 8004924:	20000414 	.word	0x20000414
 8004928:	0800d564 	.word	0x0800d564
 800492c:	0800d57c 	.word	0x0800d57c
 8004930:	200003dc 	.word	0x200003dc
 8004934:	200003d0 	.word	0x200003d0
 8004938:	200002d0 	.word	0x200002d0
 800493c:	20000310 	.word	0x20000310
 8004940:	20000350 	.word	0x20000350
 8004944:	20000416 	.word	0x20000416
 8004948:	20000415 	.word	0x20000415
 800494c:	200003d4 	.word	0x200003d4
 8004950:	0800d594 	.word	0x0800d594
 8004954:	0800d544 	.word	0x0800d544
 8004958:	0800d50c 	.word	0x0800d50c
 800495c:	0800d4dc 	.word	0x0800d4dc

08004960 <getChargeRate>:
 8004960:	b508      	push	{r3, lr}
 8004962:	f003 ff0f 	bl	8008784 <Get_Adc1_Value>
 8004966:	2264      	movs	r2, #100	; 0x64
 8004968:	fb02 f000 	mul.w	r0, r2, r0
 800496c:	4b08      	ldr	r3, [pc, #32]	; (8004990 <getChargeRate+0x30>)
 800496e:	fba3 1300 	umull	r1, r3, r3, r0
 8004972:	1ac0      	subs	r0, r0, r3
 8004974:	eb03 0350 	add.w	r3, r3, r0, lsr #1
 8004978:	0adb      	lsrs	r3, r3, #11
 800497a:	330a      	adds	r3, #10
 800497c:	4293      	cmp	r3, r2
 800497e:	d805      	bhi.n	800498c <getChargeRate+0x2c>
 8004980:	2b0b      	cmp	r3, #11
 8004982:	d801      	bhi.n	8004988 <getChargeRate+0x28>
 8004984:	2000      	movs	r0, #0
 8004986:	bd08      	pop	{r3, pc}
 8004988:	b2d8      	uxtb	r0, r3
 800498a:	bd08      	pop	{r3, pc}
 800498c:	4610      	mov	r0, r2
 800498e:	bd08      	pop	{r3, pc}
 8004990:	00100101 	.word	0x00100101

08004994 <getVccIn>:
 8004994:	2101      	movs	r1, #1
 8004996:	b508      	push	{r3, lr}
 8004998:	4803      	ldr	r0, [pc, #12]	; (80049a8 <getVccIn+0x14>)
 800499a:	f001 fdbf 	bl	800651c <HAL_GPIO_ReadPin>
 800499e:	3800      	subs	r0, #0
 80049a0:	bf18      	it	ne
 80049a2:	2001      	movne	r0, #1
 80049a4:	bd08      	pop	{r3, pc}
 80049a6:	bf00      	nop
 80049a8:	40011000 	.word	0x40011000

080049ac <getMasterIn>:
 80049ac:	f44f 5100 	mov.w	r1, #8192	; 0x2000
 80049b0:	b508      	push	{r3, lr}
 80049b2:	4803      	ldr	r0, [pc, #12]	; (80049c0 <getMasterIn+0x14>)
 80049b4:	f001 fdb2 	bl	800651c <HAL_GPIO_ReadPin>
 80049b8:	3800      	subs	r0, #0
 80049ba:	bf18      	it	ne
 80049bc:	2001      	movne	r0, #1
 80049be:	bd08      	pop	{r3, pc}
 80049c0:	40011000 	.word	0x40011000

080049c4 <getAmpFault>:
 80049c4:	2140      	movs	r1, #64	; 0x40
 80049c6:	b508      	push	{r3, lr}
 80049c8:	4803      	ldr	r0, [pc, #12]	; (80049d8 <getAmpFault+0x14>)
 80049ca:	f001 fda7 	bl	800651c <HAL_GPIO_ReadPin>
 80049ce:	3800      	subs	r0, #0
 80049d0:	bf18      	it	ne
 80049d2:	2001      	movne	r0, #1
 80049d4:	bd08      	pop	{r3, pc}
 80049d6:	bf00      	nop
 80049d8:	40010800 	.word	0x40010800

080049dc <setAmpMute>:
 80049dc:	b538      	push	{r3, r4, r5, lr}
 80049de:	4604      	mov	r4, r0
 80049e0:	4d07      	ldr	r5, [pc, #28]	; (8004a00 <setAmpMute+0x24>)
 80049e2:	4622      	mov	r2, r4
 80049e4:	4628      	mov	r0, r5
 80049e6:	f44f 7180 	mov.w	r1, #256	; 0x100
 80049ea:	f001 fd9d 	bl	8006528 <HAL_GPIO_WritePin>
 80049ee:	4622      	mov	r2, r4
 80049f0:	4628      	mov	r0, r5
 80049f2:	e8bd 4038 	ldmia.w	sp!, {r3, r4, r5, lr}
 80049f6:	f44f 7180 	mov.w	r1, #256	; 0x100
 80049fa:	f001 bd95 	b.w	8006528 <HAL_GPIO_WritePin>
 80049fe:	bf00      	nop
 8004a00:	40011000 	.word	0x40011000

08004a04 <ampMuteOn>:
 8004a04:	2302      	movs	r3, #2
 8004a06:	b510      	push	{r4, lr}
 8004a08:	21d8      	movs	r1, #216	; 0xd8
 8004a0a:	b086      	sub	sp, #24
 8004a0c:	461a      	mov	r2, r3
 8004a0e:	480f      	ldr	r0, [pc, #60]	; (8004a4c <ampMuteOn+0x48>)
 8004a10:	f002 fbc2 	bl	8007198 <HAL_I2C_IsDeviceReady>
 8004a14:	b108      	cbz	r0, 8004a1a <ampMuteOn+0x16>
 8004a16:	b006      	add	sp, #24
 8004a18:	bd10      	pop	{r4, pc}
 8004a1a:	2401      	movs	r4, #1
 8004a1c:	220c      	movs	r2, #12
 8004a1e:	f04f 0c1f 	mov.w	ip, #31
 8004a22:	21d8      	movs	r1, #216	; 0xd8
 8004a24:	4809      	ldr	r0, [pc, #36]	; (8004a4c <ampMuteOn+0x48>)
 8004a26:	eb0d 0302 	add.w	r3, sp, r2
 8004a2a:	9400      	str	r4, [sp, #0]
 8004a2c:	f88d c00c 	strb.w	ip, [sp, #12]
 8004a30:	f004 fd96 	bl	8009560 <MB85_HAL_WriteBytes>
 8004a34:	b120      	cbz	r0, 8004a40 <ampMuteOn+0x3c>
 8004a36:	4806      	ldr	r0, [pc, #24]	; (8004a50 <ampMuteOn+0x4c>)
 8004a38:	f006 fc70 	bl	800b31c <puts>
 8004a3c:	b006      	add	sp, #24
 8004a3e:	bd10      	pop	{r4, pc}
 8004a40:	4804      	ldr	r0, [pc, #16]	; (8004a54 <ampMuteOn+0x50>)
 8004a42:	f006 fc6b 	bl	800b31c <puts>
 8004a46:	b006      	add	sp, #24
 8004a48:	bd10      	pop	{r4, pc}
 8004a4a:	bf00      	nop
 8004a4c:	20000224 	.word	0x20000224
 8004a50:	0800d5ac 	.word	0x0800d5ac
 8004a54:	0800d5bc 	.word	0x0800d5bc

08004a58 <ampMuteOff>:
 8004a58:	2302      	movs	r3, #2
 8004a5a:	b510      	push	{r4, lr}
 8004a5c:	21d8      	movs	r1, #216	; 0xd8
 8004a5e:	b088      	sub	sp, #32
 8004a60:	461a      	mov	r2, r3
 8004a62:	481b      	ldr	r0, [pc, #108]	; (8004ad0 <ampMuteOff+0x78>)
 8004a64:	f002 fb98 	bl	8007198 <HAL_I2C_IsDeviceReady>
 8004a68:	b108      	cbz	r0, 8004a6e <ampMuteOff+0x16>
 8004a6a:	b008      	add	sp, #32
 8004a6c:	bd10      	pop	{r4, pc}
 8004a6e:	2401      	movs	r4, #1
 8004a70:	4684      	mov	ip, r0
 8004a72:	220c      	movs	r2, #12
 8004a74:	21d8      	movs	r1, #216	; 0xd8
 8004a76:	4816      	ldr	r0, [pc, #88]	; (8004ad0 <ampMuteOff+0x78>)
 8004a78:	ab02      	add	r3, sp, #8
 8004a7a:	9400      	str	r4, [sp, #0]
 8004a7c:	f88d c008 	strb.w	ip, [sp, #8]
 8004a80:	f004 fd6e 	bl	8009560 <MB85_HAL_WriteBytes>
 8004a84:	b9c8      	cbnz	r0, 8004aba <ampMuteOff+0x62>
 8004a86:	4813      	ldr	r0, [pc, #76]	; (8004ad4 <ampMuteOff+0x7c>)
 8004a88:	f006 fc48 	bl	800b31c <puts>
 8004a8c:	2032      	movs	r0, #50	; 0x32
 8004a8e:	2401      	movs	r4, #1
 8004a90:	f000 fdb6 	bl	8005600 <HAL_Delay>
 8004a94:	f04f 0cff 	mov.w	ip, #255	; 0xff
 8004a98:	2206      	movs	r2, #6
 8004a9a:	21d8      	movs	r1, #216	; 0xd8
 8004a9c:	480c      	ldr	r0, [pc, #48]	; (8004ad0 <ampMuteOff+0x78>)
 8004a9e:	ab05      	add	r3, sp, #20
 8004aa0:	9400      	str	r4, [sp, #0]
 8004aa2:	f88d c014 	strb.w	ip, [sp, #20]
 8004aa6:	f004 fd85 	bl	80095b4 <MB85_HAL_ReadBytes>
 8004aaa:	b160      	cbz	r0, 8004ac6 <ampMuteOff+0x6e>
 8004aac:	f89d 1014 	ldrb.w	r1, [sp, #20]
 8004ab0:	4809      	ldr	r0, [pc, #36]	; (8004ad8 <ampMuteOff+0x80>)
 8004ab2:	f006 fb99 	bl	800b1e8 <iprintf>
 8004ab6:	b008      	add	sp, #32
 8004ab8:	bd10      	pop	{r4, pc}
 8004aba:	f89d 1008 	ldrb.w	r1, [sp, #8]
 8004abe:	4807      	ldr	r0, [pc, #28]	; (8004adc <ampMuteOff+0x84>)
 8004ac0:	f006 fb92 	bl	800b1e8 <iprintf>
 8004ac4:	e7e2      	b.n	8004a8c <ampMuteOff+0x34>
 8004ac6:	4806      	ldr	r0, [pc, #24]	; (8004ae0 <ampMuteOff+0x88>)
 8004ac8:	f006 fc28 	bl	800b31c <puts>
 8004acc:	b008      	add	sp, #32
 8004ace:	bd10      	pop	{r4, pc}
 8004ad0:	20000224 	.word	0x20000224
 8004ad4:	0800d5f4 	.word	0x0800d5f4
 8004ad8:	0800d618 	.word	0x0800d618
 8004adc:	0800d5cc 	.word	0x0800d5cc
 8004ae0:	0800d648 	.word	0x0800d648

08004ae4 <setAmpSd>:
 8004ae4:	b530      	push	{r4, r5, lr}
 8004ae6:	4604      	mov	r4, r0
 8004ae8:	b087      	sub	sp, #28
 8004aea:	2201      	movs	r2, #1
 8004aec:	2180      	movs	r1, #128	; 0x80
 8004aee:	4835      	ldr	r0, [pc, #212]	; (8004bc4 <setAmpSd+0xe0>)
 8004af0:	f001 fd1a 	bl	8006528 <HAL_GPIO_WritePin>
 8004af4:	2201      	movs	r2, #1
 8004af6:	2180      	movs	r1, #128	; 0x80
 8004af8:	4832      	ldr	r0, [pc, #200]	; (8004bc4 <setAmpSd+0xe0>)
 8004afa:	f001 fd15 	bl	8006528 <HAL_GPIO_WritePin>
 8004afe:	2201      	movs	r2, #1
 8004b00:	f44f 7180 	mov.w	r1, #256	; 0x100
 8004b04:	482f      	ldr	r0, [pc, #188]	; (8004bc4 <setAmpSd+0xe0>)
 8004b06:	f001 fd0f 	bl	8006528 <HAL_GPIO_WritePin>
 8004b0a:	2201      	movs	r2, #1
 8004b0c:	f44f 7180 	mov.w	r1, #256	; 0x100
 8004b10:	482c      	ldr	r0, [pc, #176]	; (8004bc4 <setAmpSd+0xe0>)
 8004b12:	f001 fd09 	bl	8006528 <HAL_GPIO_WritePin>
 8004b16:	b924      	cbnz	r4, 8004b22 <setAmpSd+0x3e>
 8004b18:	2096      	movs	r0, #150	; 0x96
 8004b1a:	f000 fd71 	bl	8005600 <HAL_Delay>
 8004b1e:	b007      	add	sp, #28
 8004b20:	bd30      	pop	{r4, r5, pc}
 8004b22:	2302      	movs	r3, #2
 8004b24:	21d8      	movs	r1, #216	; 0xd8
 8004b26:	461a      	mov	r2, r3
 8004b28:	4827      	ldr	r0, [pc, #156]	; (8004bc8 <setAmpSd+0xe4>)
 8004b2a:	f002 fb35 	bl	8007198 <HAL_I2C_IsDeviceReady>
 8004b2e:	2800      	cmp	r0, #0
 8004b30:	d1f2      	bne.n	8004b18 <setAmpSd+0x34>
 8004b32:	2501      	movs	r5, #1
 8004b34:	24aa      	movs	r4, #170	; 0xaa
 8004b36:	2208      	movs	r2, #8
 8004b38:	21d8      	movs	r1, #216	; 0xd8
 8004b3a:	4823      	ldr	r0, [pc, #140]	; (8004bc8 <setAmpSd+0xe4>)
 8004b3c:	ab03      	add	r3, sp, #12
 8004b3e:	9500      	str	r5, [sp, #0]
 8004b40:	f88d 400c 	strb.w	r4, [sp, #12]
 8004b44:	f004 fd0c 	bl	8009560 <MB85_HAL_WriteBytes>
 8004b48:	2800      	cmp	r0, #0
 8004b4a:	d037      	beq.n	8004bbc <setAmpSd+0xd8>
 8004b4c:	240c      	movs	r4, #12
 8004b4e:	2501      	movs	r5, #1
 8004b50:	220a      	movs	r2, #10
 8004b52:	21d8      	movs	r1, #216	; 0xd8
 8004b54:	481c      	ldr	r0, [pc, #112]	; (8004bc8 <setAmpSd+0xe4>)
 8004b56:	eb0d 0304 	add.w	r3, sp, r4
 8004b5a:	9500      	str	r5, [sp, #0]
 8004b5c:	f88d 400c 	strb.w	r4, [sp, #12]
 8004b60:	f004 fcfe 	bl	8009560 <MB85_HAL_WriteBytes>
 8004b64:	b330      	cbz	r0, 8004bb4 <setAmpSd+0xd0>
 8004b66:	2501      	movs	r5, #1
 8004b68:	24d6      	movs	r4, #214	; 0xd6
 8004b6a:	220b      	movs	r2, #11
 8004b6c:	21d8      	movs	r1, #216	; 0xd8
 8004b6e:	4816      	ldr	r0, [pc, #88]	; (8004bc8 <setAmpSd+0xe4>)
 8004b70:	ab03      	add	r3, sp, #12
 8004b72:	9500      	str	r5, [sp, #0]
 8004b74:	f88d 400c 	strb.w	r4, [sp, #12]
 8004b78:	f004 fcf2 	bl	8009560 <MB85_HAL_WriteBytes>
 8004b7c:	b1b0      	cbz	r0, 8004bac <setAmpSd+0xc8>
 8004b7e:	201e      	movs	r0, #30
 8004b80:	f000 fd3e 	bl	8005600 <HAL_Delay>
 8004b84:	2401      	movs	r4, #1
 8004b86:	2309      	movs	r3, #9
 8004b88:	201e      	movs	r0, #30
 8004b8a:	f88d 300c 	strb.w	r3, [sp, #12]
 8004b8e:	f000 fd37 	bl	8005600 <HAL_Delay>
 8004b92:	220c      	movs	r2, #12
 8004b94:	21d8      	movs	r1, #216	; 0xd8
 8004b96:	480c      	ldr	r0, [pc, #48]	; (8004bc8 <setAmpSd+0xe4>)
 8004b98:	ab03      	add	r3, sp, #12
 8004b9a:	9400      	str	r4, [sp, #0]
 8004b9c:	f004 fce0 	bl	8009560 <MB85_HAL_WriteBytes>
 8004ba0:	2800      	cmp	r0, #0
 8004ba2:	d1b9      	bne.n	8004b18 <setAmpSd+0x34>
 8004ba4:	4809      	ldr	r0, [pc, #36]	; (8004bcc <setAmpSd+0xe8>)
 8004ba6:	f006 fbb9 	bl	800b31c <puts>
 8004baa:	e7b5      	b.n	8004b18 <setAmpSd+0x34>
 8004bac:	4808      	ldr	r0, [pc, #32]	; (8004bd0 <setAmpSd+0xec>)
 8004bae:	f006 fbb5 	bl	800b31c <puts>
 8004bb2:	e7e4      	b.n	8004b7e <setAmpSd+0x9a>
 8004bb4:	4807      	ldr	r0, [pc, #28]	; (8004bd4 <setAmpSd+0xf0>)
 8004bb6:	f006 fbb1 	bl	800b31c <puts>
 8004bba:	e7d4      	b.n	8004b66 <setAmpSd+0x82>
 8004bbc:	4806      	ldr	r0, [pc, #24]	; (8004bd8 <setAmpSd+0xf4>)
 8004bbe:	f006 fbad 	bl	800b31c <puts>
 8004bc2:	e7c3      	b.n	8004b4c <setAmpSd+0x68>
 8004bc4:	40011000 	.word	0x40011000
 8004bc8:	20000224 	.word	0x20000224
 8004bcc:	0800d6d8 	.word	0x0800d6d8
 8004bd0:	0800d6b4 	.word	0x0800d6b4
 8004bd4:	0800d688 	.word	0x0800d688
 8004bd8:	0800d668 	.word	0x0800d668

08004bdc <getRS485Id>:
 8004bdc:	b5f8      	push	{r3, r4, r5, r6, r7, lr}
 8004bde:	4d10      	ldr	r5, [pc, #64]	; (8004c20 <getRS485Id+0x44>)
 8004be0:	f44f 4100 	mov.w	r1, #32768	; 0x8000
 8004be4:	4628      	mov	r0, r5
 8004be6:	f001 fc99 	bl	800651c <HAL_GPIO_ReadPin>
 8004bea:	f44f 4180 	mov.w	r1, #16384	; 0x4000
 8004bee:	4606      	mov	r6, r0
 8004bf0:	4628      	mov	r0, r5
 8004bf2:	f001 fc93 	bl	800651c <HAL_GPIO_ReadPin>
 8004bf6:	f44f 5100 	mov.w	r1, #8192	; 0x2000
 8004bfa:	4607      	mov	r7, r0
 8004bfc:	4628      	mov	r0, r5
 8004bfe:	f001 fc8d 	bl	800651c <HAL_GPIO_ReadPin>
 8004c02:	4604      	mov	r4, r0
 8004c04:	f44f 5180 	mov.w	r1, #4096	; 0x1000
 8004c08:	4628      	mov	r0, r5
 8004c0a:	f001 fc87 	bl	800651c <HAL_GPIO_ReadPin>
 8004c0e:	00a4      	lsls	r4, r4, #2
 8004c10:	ea44 0447 	orr.w	r4, r4, r7, lsl #1
 8004c14:	4334      	orrs	r4, r6
 8004c16:	b264      	sxtb	r4, r4
 8004c18:	ea44 00c0 	orr.w	r0, r4, r0, lsl #3
 8004c1c:	b2c0      	uxtb	r0, r0
 8004c1e:	bdf8      	pop	{r3, r4, r5, r6, r7, pc}
 8004c20:	40010c00 	.word	0x40010c00

08004c24 <processRfLed>:
 8004c24:	b508      	push	{r3, lr}
 8004c26:	2120      	movs	r1, #32
 8004c28:	4809      	ldr	r0, [pc, #36]	; (8004c50 <processRfLed+0x2c>)
 8004c2a:	f001 fc77 	bl	800651c <HAL_GPIO_ReadPin>
 8004c2e:	b140      	cbz	r0, 8004c42 <processRfLed+0x1e>
 8004c30:	2200      	movs	r2, #0
 8004c32:	2120      	movs	r1, #32
 8004c34:	4807      	ldr	r0, [pc, #28]	; (8004c54 <processRfLed+0x30>)
 8004c36:	f001 fc77 	bl	8006528 <HAL_GPIO_WritePin>
 8004c3a:	2201      	movs	r2, #1
 8004c3c:	4b06      	ldr	r3, [pc, #24]	; (8004c58 <processRfLed+0x34>)
 8004c3e:	601a      	str	r2, [r3, #0]
 8004c40:	bd08      	pop	{r3, pc}
 8004c42:	2201      	movs	r2, #1
 8004c44:	e8bd 4008 	ldmia.w	sp!, {r3, lr}
 8004c48:	2120      	movs	r1, #32
 8004c4a:	4802      	ldr	r0, [pc, #8]	; (8004c54 <processRfLed+0x30>)
 8004c4c:	f001 bc6c 	b.w	8006528 <HAL_GPIO_WritePin>
 8004c50:	40011000 	.word	0x40011000
 8004c54:	40010c00 	.word	0x40010c00
 8004c58:	200003f8 	.word	0x200003f8

08004c5c <processChargeLed>:
 8004c5c:	b538      	push	{r3, r4, r5, lr}
 8004c5e:	f44f 4180 	mov.w	r1, #16384	; 0x4000
 8004c62:	484d      	ldr	r0, [pc, #308]	; (8004d98 <processChargeLed+0x13c>)
 8004c64:	f001 fc5a 	bl	800651c <HAL_GPIO_ReadPin>
 8004c68:	b9f0      	cbnz	r0, 8004ca8 <processChargeLed+0x4c>
 8004c6a:	4604      	mov	r4, r0
 8004c6c:	f003 fd8a 	bl	8008784 <Get_Adc1_Value>
 8004c70:	2264      	movs	r2, #100	; 0x64
 8004c72:	fb02 f000 	mul.w	r0, r2, r0
 8004c76:	4b49      	ldr	r3, [pc, #292]	; (8004d9c <processChargeLed+0x140>)
 8004c78:	fba3 2300 	umull	r2, r3, r3, r0
 8004c7c:	1ac0      	subs	r0, r0, r3
 8004c7e:	eb03 0350 	add.w	r3, r3, r0, lsr #1
 8004c82:	0adb      	lsrs	r3, r3, #11
 8004c84:	f103 020a 	add.w	r2, r3, #10
 8004c88:	2a64      	cmp	r2, #100	; 0x64
 8004c8a:	d80d      	bhi.n	8004ca8 <processChargeLed+0x4c>
 8004c8c:	2a0b      	cmp	r2, #11
 8004c8e:	d955      	bls.n	8004d3c <processChargeLed+0xe0>
 8004c90:	2a4a      	cmp	r2, #74	; 0x4a
 8004c92:	d953      	bls.n	8004d3c <processChargeLed+0xe0>
 8004c94:	3b41      	subs	r3, #65	; 0x41
 8004c96:	2b15      	cmp	r3, #21
 8004c98:	d971      	bls.n	8004d7e <processChargeLed+0x122>
 8004c9a:	2a61      	cmp	r2, #97	; 0x61
 8004c9c:	d804      	bhi.n	8004ca8 <processChargeLed+0x4c>
 8004c9e:	4a40      	ldr	r2, [pc, #256]	; (8004da0 <processChargeLed+0x144>)
 8004ca0:	7813      	ldrb	r3, [r2, #0]
 8004ca2:	b93b      	cbnz	r3, 8004cb4 <processChargeLed+0x58>
 8004ca4:	4d3f      	ldr	r5, [pc, #252]	; (8004da4 <processChargeLed+0x148>)
 8004ca6:	e012      	b.n	8004cce <processChargeLed+0x72>
 8004ca8:	4a3d      	ldr	r2, [pc, #244]	; (8004da0 <processChargeLed+0x144>)
 8004caa:	7813      	ldrb	r3, [r2, #0]
 8004cac:	b313      	cbz	r3, 8004cf4 <processChargeLed+0x98>
 8004cae:	2403      	movs	r4, #3
 8004cb0:	42a3      	cmp	r3, r4
 8004cb2:	d034      	beq.n	8004d1e <processChargeLed+0xc2>
 8004cb4:	f241 3088 	movw	r0, #5000	; 0x1388
 8004cb8:	4d3a      	ldr	r5, [pc, #232]	; (8004da4 <processChargeLed+0x148>)
 8004cba:	493b      	ldr	r1, [pc, #236]	; (8004da8 <processChargeLed+0x14c>)
 8004cbc:	782b      	ldrb	r3, [r5, #0]
 8004cbe:	7014      	strb	r4, [r2, #0]
 8004cc0:	8008      	strh	r0, [r1, #0]
 8004cc2:	2b02      	cmp	r3, #2
 8004cc4:	d036      	beq.n	8004d34 <processChargeLed+0xd8>
 8004cc6:	2b03      	cmp	r3, #3
 8004cc8:	d018      	beq.n	8004cfc <processChargeLed+0xa0>
 8004cca:	2b01      	cmp	r3, #1
 8004ccc:	d03d      	beq.n	8004d4a <processChargeLed+0xee>
 8004cce:	2300      	movs	r3, #0
 8004cd0:	2201      	movs	r2, #1
 8004cd2:	2108      	movs	r1, #8
 8004cd4:	4835      	ldr	r0, [pc, #212]	; (8004dac <processChargeLed+0x150>)
 8004cd6:	702b      	strb	r3, [r5, #0]
 8004cd8:	f001 fc26 	bl	8006528 <HAL_GPIO_WritePin>
 8004cdc:	2201      	movs	r2, #1
 8004cde:	2140      	movs	r1, #64	; 0x40
 8004ce0:	4832      	ldr	r0, [pc, #200]	; (8004dac <processChargeLed+0x150>)
 8004ce2:	f001 fc21 	bl	8006528 <HAL_GPIO_WritePin>
 8004ce6:	e8bd 4038 	ldmia.w	sp!, {r3, r4, r5, lr}
 8004cea:	2201      	movs	r2, #1
 8004cec:	2180      	movs	r1, #128	; 0x80
 8004cee:	482f      	ldr	r0, [pc, #188]	; (8004dac <processChargeLed+0x150>)
 8004cf0:	f001 bc1a 	b.w	8006528 <HAL_GPIO_WritePin>
 8004cf4:	2303      	movs	r3, #3
 8004cf6:	492b      	ldr	r1, [pc, #172]	; (8004da4 <processChargeLed+0x148>)
 8004cf8:	7013      	strb	r3, [r2, #0]
 8004cfa:	700b      	strb	r3, [r1, #0]
 8004cfc:	2200      	movs	r2, #0
 8004cfe:	2108      	movs	r1, #8
 8004d00:	482a      	ldr	r0, [pc, #168]	; (8004dac <processChargeLed+0x150>)
 8004d02:	f001 fc11 	bl	8006528 <HAL_GPIO_WritePin>
 8004d06:	2200      	movs	r2, #0
 8004d08:	2180      	movs	r1, #128	; 0x80
 8004d0a:	4828      	ldr	r0, [pc, #160]	; (8004dac <processChargeLed+0x150>)
 8004d0c:	f001 fc0c 	bl	8006528 <HAL_GPIO_WritePin>
 8004d10:	e8bd 4038 	ldmia.w	sp!, {r3, r4, r5, lr}
 8004d14:	2200      	movs	r2, #0
 8004d16:	2140      	movs	r1, #64	; 0x40
 8004d18:	4824      	ldr	r0, [pc, #144]	; (8004dac <processChargeLed+0x150>)
 8004d1a:	f001 bc05 	b.w	8006528 <HAL_GPIO_WritePin>
 8004d1e:	4d21      	ldr	r5, [pc, #132]	; (8004da4 <processChargeLed+0x148>)
 8004d20:	782a      	ldrb	r2, [r5, #0]
 8004d22:	429a      	cmp	r2, r3
 8004d24:	d0cd      	beq.n	8004cc2 <processChargeLed+0x66>
 8004d26:	4920      	ldr	r1, [pc, #128]	; (8004da8 <processChargeLed+0x14c>)
 8004d28:	8809      	ldrh	r1, [r1, #0]
 8004d2a:	2900      	cmp	r1, #0
 8004d2c:	d131      	bne.n	8004d92 <processChargeLed+0x136>
 8004d2e:	2b02      	cmp	r3, #2
 8004d30:	702b      	strb	r3, [r5, #0]
 8004d32:	d1c8      	bne.n	8004cc6 <processChargeLed+0x6a>
 8004d34:	4b1e      	ldr	r3, [pc, #120]	; (8004db0 <processChargeLed+0x154>)
 8004d36:	881a      	ldrh	r2, [r3, #0]
 8004d38:	b19a      	cbz	r2, 8004d62 <processChargeLed+0x106>
 8004d3a:	bd38      	pop	{r3, r4, r5, pc}
 8004d3c:	4a18      	ldr	r2, [pc, #96]	; (8004da0 <processChargeLed+0x144>)
 8004d3e:	7813      	ldrb	r3, [r2, #0]
 8004d40:	b9db      	cbnz	r3, 8004d7a <processChargeLed+0x11e>
 8004d42:	2301      	movs	r3, #1
 8004d44:	4917      	ldr	r1, [pc, #92]	; (8004da4 <processChargeLed+0x148>)
 8004d46:	7013      	strb	r3, [r2, #0]
 8004d48:	700b      	strb	r3, [r1, #0]
 8004d4a:	4b1a      	ldr	r3, [pc, #104]	; (8004db4 <processChargeLed+0x158>)
 8004d4c:	881a      	ldrh	r2, [r3, #0]
 8004d4e:	2a00      	cmp	r2, #0
 8004d50:	d1f3      	bne.n	8004d3a <processChargeLed+0xde>
 8004d52:	f44f 72fa 	mov.w	r2, #500	; 0x1f4
 8004d56:	2108      	movs	r1, #8
 8004d58:	4814      	ldr	r0, [pc, #80]	; (8004dac <processChargeLed+0x150>)
 8004d5a:	801a      	strh	r2, [r3, #0]
 8004d5c:	f001 fbe8 	bl	8006530 <HAL_GPIO_TogglePin>
 8004d60:	e7bc      	b.n	8004cdc <processChargeLed+0x80>
 8004d62:	f44f 74fa 	mov.w	r4, #500	; 0x1f4
 8004d66:	2108      	movs	r1, #8
 8004d68:	4810      	ldr	r0, [pc, #64]	; (8004dac <processChargeLed+0x150>)
 8004d6a:	801c      	strh	r4, [r3, #0]
 8004d6c:	f001 fbdc 	bl	8006528 <HAL_GPIO_WritePin>
 8004d70:	2180      	movs	r1, #128	; 0x80
 8004d72:	480e      	ldr	r0, [pc, #56]	; (8004dac <processChargeLed+0x150>)
 8004d74:	f001 fbdc 	bl	8006530 <HAL_GPIO_TogglePin>
 8004d78:	e7b5      	b.n	8004ce6 <processChargeLed+0x8a>
 8004d7a:	2401      	movs	r4, #1
 8004d7c:	e798      	b.n	8004cb0 <processChargeLed+0x54>
 8004d7e:	4a08      	ldr	r2, [pc, #32]	; (8004da0 <processChargeLed+0x144>)
 8004d80:	7813      	ldrb	r3, [r2, #0]
 8004d82:	b923      	cbnz	r3, 8004d8e <processChargeLed+0x132>
 8004d84:	2302      	movs	r3, #2
 8004d86:	4907      	ldr	r1, [pc, #28]	; (8004da4 <processChargeLed+0x148>)
 8004d88:	7013      	strb	r3, [r2, #0]
 8004d8a:	700b      	strb	r3, [r1, #0]
 8004d8c:	e7d2      	b.n	8004d34 <processChargeLed+0xd8>
 8004d8e:	2402      	movs	r4, #2
 8004d90:	e78e      	b.n	8004cb0 <processChargeLed+0x54>
 8004d92:	4613      	mov	r3, r2
 8004d94:	e795      	b.n	8004cc2 <processChargeLed+0x66>
 8004d96:	bf00      	nop
 8004d98:	40011000 	.word	0x40011000
 8004d9c:	00100101 	.word	0x00100101
 8004da0:	20000417 	.word	0x20000417
 8004da4:	200003f4 	.word	0x200003f4
 8004da8:	20000412 	.word	0x20000412
 8004dac:	40010c00 	.word	0x40010c00
 8004db0:	2000040e 	.word	0x2000040e
 8004db4:	20000410 	.word	0x20000410

08004db8 <processLightLed>:
 8004db8:	b538      	push	{r3, r4, r5, lr}
 8004dba:	4b19      	ldr	r3, [pc, #100]	; (8004e20 <processLightLed+0x68>)
 8004dbc:	781b      	ldrb	r3, [r3, #0]
 8004dbe:	b1db      	cbz	r3, 8004df8 <processLightLed+0x40>
 8004dc0:	4a18      	ldr	r2, [pc, #96]	; (8004e24 <processLightLed+0x6c>)
 8004dc2:	2110      	movs	r1, #16
 8004dc4:	6813      	ldr	r3, [r2, #0]
 8004dc6:	4818      	ldr	r0, [pc, #96]	; (8004e28 <processLightLed+0x70>)
 8004dc8:	3301      	adds	r3, #1
 8004dca:	6013      	str	r3, [r2, #0]
 8004dcc:	f001 fba6 	bl	800651c <HAL_GPIO_ReadPin>
 8004dd0:	1e05      	subs	r5, r0, #0
 8004dd2:	bf18      	it	ne
 8004dd4:	2501      	movne	r5, #1
 8004dd6:	4c15      	ldr	r4, [pc, #84]	; (8004e2c <processLightLed+0x74>)
 8004dd8:	4602      	mov	r2, r0
 8004dda:	7823      	ldrb	r3, [r4, #0]
 8004ddc:	42ab      	cmp	r3, r5
 8004dde:	d009      	beq.n	8004df4 <processLightLed+0x3c>
 8004de0:	b1a0      	cbz	r0, 8004e0c <processLightLed+0x54>
 8004de2:	4811      	ldr	r0, [pc, #68]	; (8004e28 <processLightLed+0x70>)
 8004de4:	2201      	movs	r2, #1
 8004de6:	f44f 7100 	mov.w	r1, #512	; 0x200
 8004dea:	f001 fb9d 	bl	8006528 <HAL_GPIO_WritePin>
 8004dee:	4810      	ldr	r0, [pc, #64]	; (8004e30 <processLightLed+0x78>)
 8004df0:	f006 fa94 	bl	800b31c <puts>
 8004df4:	7025      	strb	r5, [r4, #0]
 8004df6:	bd38      	pop	{r3, r4, r5, pc}
 8004df8:	2201      	movs	r2, #1
 8004dfa:	f44f 7100 	mov.w	r1, #512	; 0x200
 8004dfe:	480a      	ldr	r0, [pc, #40]	; (8004e28 <processLightLed+0x70>)
 8004e00:	f001 fb92 	bl	8006528 <HAL_GPIO_WritePin>
 8004e04:	2201      	movs	r2, #1
 8004e06:	4b09      	ldr	r3, [pc, #36]	; (8004e2c <processLightLed+0x74>)
 8004e08:	701a      	strb	r2, [r3, #0]
 8004e0a:	bd38      	pop	{r3, r4, r5, pc}
 8004e0c:	f44f 7100 	mov.w	r1, #512	; 0x200
 8004e10:	4805      	ldr	r0, [pc, #20]	; (8004e28 <processLightLed+0x70>)
 8004e12:	f001 fb89 	bl	8006528 <HAL_GPIO_WritePin>
 8004e16:	4807      	ldr	r0, [pc, #28]	; (8004e34 <processLightLed+0x7c>)
 8004e18:	f006 fa80 	bl	800b31c <puts>
 8004e1c:	7025      	strb	r5, [r4, #0]
 8004e1e:	e7ea      	b.n	8004df6 <processLightLed+0x3e>
 8004e20:	20000004 	.word	0x20000004
 8004e24:	200003fc 	.word	0x200003fc
 8004e28:	40011000 	.word	0x40011000
 8004e2c:	200003f3 	.word	0x200003f3
 8004e30:	0800d6f4 	.word	0x0800d6f4
 8004e34:	0800d6fc 	.word	0x0800d6fc

08004e38 <processAudioAmpProcess>:
 8004e38:	b530      	push	{r4, r5, lr}
 8004e3a:	2102      	movs	r1, #2
 8004e3c:	b087      	sub	sp, #28
 8004e3e:	482e      	ldr	r0, [pc, #184]	; (8004ef8 <processAudioAmpProcess+0xc0>)
 8004e40:	f001 fb6c 	bl	800651c <HAL_GPIO_ReadPin>
 8004e44:	b320      	cbz	r0, 8004e90 <processAudioAmpProcess+0x58>
 8004e46:	2401      	movs	r4, #1
 8004e48:	4b2c      	ldr	r3, [pc, #176]	; (8004efc <processAudioAmpProcess+0xc4>)
 8004e4a:	492d      	ldr	r1, [pc, #180]	; (8004f00 <processAudioAmpProcess+0xc8>)
 8004e4c:	781a      	ldrb	r2, [r3, #0]
 8004e4e:	700c      	strb	r4, [r1, #0]
 8004e50:	b122      	cbz	r2, 8004e5c <processAudioAmpProcess+0x24>
 8004e52:	4b2c      	ldr	r3, [pc, #176]	; (8004f04 <processAudioAmpProcess+0xcc>)
 8004e54:	781a      	ldrb	r2, [r3, #0]
 8004e56:	b992      	cbnz	r2, 8004e7e <processAudioAmpProcess+0x46>
 8004e58:	b007      	add	sp, #28
 8004e5a:	bd30      	pop	{r4, r5, pc}
 8004e5c:	4620      	mov	r0, r4
 8004e5e:	701c      	strb	r4, [r3, #0]
 8004e60:	f7ff fe40 	bl	8004ae4 <setAmpSd>
 8004e64:	4622      	mov	r2, r4
 8004e66:	2180      	movs	r1, #128	; 0x80
 8004e68:	4827      	ldr	r0, [pc, #156]	; (8004f08 <processAudioAmpProcess+0xd0>)
 8004e6a:	f001 fb5d 	bl	8006528 <HAL_GPIO_WritePin>
 8004e6e:	f44f 72fa 	mov.w	r2, #500	; 0x1f4
 8004e72:	4b26      	ldr	r3, [pc, #152]	; (8004f0c <processAudioAmpProcess+0xd4>)
 8004e74:	801a      	strh	r2, [r3, #0]
 8004e76:	4b23      	ldr	r3, [pc, #140]	; (8004f04 <processAudioAmpProcess+0xcc>)
 8004e78:	781a      	ldrb	r2, [r3, #0]
 8004e7a:	2a00      	cmp	r2, #0
 8004e7c:	d0ec      	beq.n	8004e58 <processAudioAmpProcess+0x20>
 8004e7e:	2200      	movs	r2, #0
 8004e80:	701a      	strb	r2, [r3, #0]
 8004e82:	f7ff fde9 	bl	8004a58 <ampMuteOff>
 8004e86:	2201      	movs	r2, #1
 8004e88:	4b21      	ldr	r3, [pc, #132]	; (8004f10 <processAudioAmpProcess+0xd8>)
 8004e8a:	701a      	strb	r2, [r3, #0]
 8004e8c:	b007      	add	sp, #28
 8004e8e:	bd30      	pop	{r4, r5, pc}
 8004e90:	4c1a      	ldr	r4, [pc, #104]	; (8004efc <processAudioAmpProcess+0xc4>)
 8004e92:	491b      	ldr	r1, [pc, #108]	; (8004f00 <processAudioAmpProcess+0xc8>)
 8004e94:	7823      	ldrb	r3, [r4, #0]
 8004e96:	4602      	mov	r2, r0
 8004e98:	7008      	strb	r0, [r1, #0]
 8004e9a:	b93b      	cbnz	r3, 8004eac <processAudioAmpProcess+0x74>
 8004e9c:	4b19      	ldr	r3, [pc, #100]	; (8004f04 <processAudioAmpProcess+0xcc>)
 8004e9e:	781a      	ldrb	r2, [r3, #0]
 8004ea0:	2a00      	cmp	r2, #0
 8004ea2:	d0d9      	beq.n	8004e58 <processAudioAmpProcess+0x20>
 8004ea4:	2200      	movs	r2, #0
 8004ea6:	701a      	strb	r2, [r3, #0]
 8004ea8:	b007      	add	sp, #28
 8004eaa:	bd30      	pop	{r4, r5, pc}
 8004eac:	2302      	movs	r3, #2
 8004eae:	7022      	strb	r2, [r4, #0]
 8004eb0:	21d8      	movs	r1, #216	; 0xd8
 8004eb2:	461a      	mov	r2, r3
 8004eb4:	4817      	ldr	r0, [pc, #92]	; (8004f14 <processAudioAmpProcess+0xdc>)
 8004eb6:	f002 f96f 	bl	8007198 <HAL_I2C_IsDeviceReady>
 8004eba:	b138      	cbz	r0, 8004ecc <processAudioAmpProcess+0x94>
 8004ebc:	f44f 70fa 	mov.w	r0, #500	; 0x1f4
 8004ec0:	2200      	movs	r2, #0
 8004ec2:	4912      	ldr	r1, [pc, #72]	; (8004f0c <processAudioAmpProcess+0xd4>)
 8004ec4:	4b12      	ldr	r3, [pc, #72]	; (8004f10 <processAudioAmpProcess+0xd8>)
 8004ec6:	8008      	strh	r0, [r1, #0]
 8004ec8:	701a      	strb	r2, [r3, #0]
 8004eca:	e7e7      	b.n	8004e9c <processAudioAmpProcess+0x64>
 8004ecc:	2501      	movs	r5, #1
 8004ece:	220c      	movs	r2, #12
 8004ed0:	241f      	movs	r4, #31
 8004ed2:	21d8      	movs	r1, #216	; 0xd8
 8004ed4:	480f      	ldr	r0, [pc, #60]	; (8004f14 <processAudioAmpProcess+0xdc>)
 8004ed6:	eb0d 0302 	add.w	r3, sp, r2
 8004eda:	9500      	str	r5, [sp, #0]
 8004edc:	f88d 400c 	strb.w	r4, [sp, #12]
 8004ee0:	f004 fb3e 	bl	8009560 <MB85_HAL_WriteBytes>
 8004ee4:	b118      	cbz	r0, 8004eee <processAudioAmpProcess+0xb6>
 8004ee6:	480c      	ldr	r0, [pc, #48]	; (8004f18 <processAudioAmpProcess+0xe0>)
 8004ee8:	f006 fa18 	bl	800b31c <puts>
 8004eec:	e7e6      	b.n	8004ebc <processAudioAmpProcess+0x84>
 8004eee:	480b      	ldr	r0, [pc, #44]	; (8004f1c <processAudioAmpProcess+0xe4>)
 8004ef0:	f006 fa14 	bl	800b31c <puts>
 8004ef4:	e7e2      	b.n	8004ebc <processAudioAmpProcess+0x84>
 8004ef6:	bf00      	nop
 8004ef8:	40010c00 	.word	0x40010c00
 8004efc:	200003f2 	.word	0x200003f2
 8004f00:	200003f0 	.word	0x200003f0
 8004f04:	200003f1 	.word	0x200003f1
 8004f08:	40011000 	.word	0x40011000
 8004f0c:	20000404 	.word	0x20000404
 8004f10:	20000414 	.word	0x20000414
 8004f14:	20000224 	.word	0x20000224
 8004f18:	0800d5ac 	.word	0x0800d5ac
 8004f1c:	0800d5bc 	.word	0x0800d5bc

08004f20 <processGetBatVol>:
 8004f20:	b538      	push	{r3, r4, r5, lr}
 8004f22:	4d15      	ldr	r5, [pc, #84]	; (8004f78 <processGetBatVol+0x58>)
 8004f24:	882b      	ldrh	r3, [r5, #0]
 8004f26:	3301      	adds	r3, #1
 8004f28:	802b      	strh	r3, [r5, #0]
 8004f2a:	f003 fc41 	bl	80087b0 <getAdc1Vol>
 8004f2e:	4604      	mov	r4, r0
 8004f30:	4b12      	ldr	r3, [pc, #72]	; (8004f7c <processGetBatVol+0x5c>)
 8004f32:	2101      	movs	r1, #1
 8004f34:	4812      	ldr	r0, [pc, #72]	; (8004f80 <processGetBatVol+0x60>)
 8004f36:	801c      	strh	r4, [r3, #0]
 8004f38:	f001 faf0 	bl	800651c <HAL_GPIO_ReadPin>
 8004f3c:	b188      	cbz	r0, 8004f62 <processGetBatVol+0x42>
 8004f3e:	3c55      	subs	r4, #85	; 0x55
 8004f40:	b2a4      	uxth	r4, r4
 8004f42:	4b10      	ldr	r3, [pc, #64]	; (8004f84 <processGetBatVol+0x64>)
 8004f44:	882a      	ldrh	r2, [r5, #0]
 8004f46:	6819      	ldr	r1, [r3, #0]
 8004f48:	f5b2 7f7a 	cmp.w	r2, #1000	; 0x3e8
 8004f4c:	440c      	add	r4, r1
 8004f4e:	601c      	str	r4, [r3, #0]
 8004f50:	d306      	bcc.n	8004f60 <processGetBatVol+0x40>
 8004f52:	fbb4 f4f2 	udiv	r4, r4, r2
 8004f56:	2200      	movs	r2, #0
 8004f58:	490b      	ldr	r1, [pc, #44]	; (8004f88 <processGetBatVol+0x68>)
 8004f5a:	802a      	strh	r2, [r5, #0]
 8004f5c:	800c      	strh	r4, [r1, #0]
 8004f5e:	601a      	str	r2, [r3, #0]
 8004f60:	bd38      	pop	{r3, r4, r5, pc}
 8004f62:	4b0a      	ldr	r3, [pc, #40]	; (8004f8c <processGetBatVol+0x6c>)
 8004f64:	781b      	ldrb	r3, [r3, #0]
 8004f66:	b10b      	cbz	r3, 8004f6c <processGetBatVol+0x4c>
 8004f68:	344b      	adds	r4, #75	; 0x4b
 8004f6a:	b2a4      	uxth	r4, r4
 8004f6c:	2102      	movs	r1, #2
 8004f6e:	4808      	ldr	r0, [pc, #32]	; (8004f90 <processGetBatVol+0x70>)
 8004f70:	f001 fad4 	bl	800651c <HAL_GPIO_ReadPin>
 8004f74:	e7e5      	b.n	8004f42 <processGetBatVol+0x22>
 8004f76:	bf00      	nop
 8004f78:	2000040c 	.word	0x2000040c
 8004f7c:	20000402 	.word	0x20000402
 8004f80:	40011000 	.word	0x40011000
 8004f84:	20000408 	.word	0x20000408
 8004f88:	20000406 	.word	0x20000406
 8004f8c:	200003f3 	.word	0x200003f3
 8004f90:	40010c00 	.word	0x40010c00

08004f94 <processTestDebug>:
 8004f94:	4770      	bx	lr
 8004f96:	bf00      	nop

08004f98 <AMP_SPK_CHECK>:
 8004f98:	b570      	push	{r4, r5, r6, lr}
 8004f9a:	2401      	movs	r4, #1
 8004f9c:	b084      	sub	sp, #16
 8004f9e:	4620      	mov	r0, r4
 8004fa0:	f7ff fda0 	bl	8004ae4 <setAmpSd>
 8004fa4:	2032      	movs	r0, #50	; 0x32
 8004fa6:	f000 fb2b 	bl	8005600 <HAL_Delay>
 8004faa:	4d1b      	ldr	r5, [pc, #108]	; (8005018 <AMP_SPK_CHECK+0x80>)
 8004fac:	2202      	movs	r2, #2
 8004fae:	21d8      	movs	r1, #216	; 0xd8
 8004fb0:	ab02      	add	r3, sp, #8
 8004fb2:	481a      	ldr	r0, [pc, #104]	; (800501c <AMP_SPK_CHECK+0x84>)
 8004fb4:	9400      	str	r4, [sp, #0]
 8004fb6:	f004 fafd 	bl	80095b4 <MB85_HAL_ReadBytes>
 8004fba:	21d8      	movs	r1, #216	; 0xd8
 8004fbc:	ab03      	add	r3, sp, #12
 8004fbe:	2203      	movs	r2, #3
 8004fc0:	4816      	ldr	r0, [pc, #88]	; (800501c <AMP_SPK_CHECK+0x84>)
 8004fc2:	9400      	str	r4, [sp, #0]
 8004fc4:	f004 faf6 	bl	80095b4 <MB85_HAL_ReadBytes>
 8004fc8:	f89d 1008 	ldrb.w	r1, [sp, #8]
 8004fcc:	782b      	ldrb	r3, [r5, #0]
 8004fce:	428b      	cmp	r3, r1
 8004fd0:	d11e      	bne.n	8005010 <AMP_SPK_CHECK+0x78>
 8004fd2:	4c13      	ldr	r4, [pc, #76]	; (8005020 <AMP_SPK_CHECK+0x88>)
 8004fd4:	f89d 200c 	ldrb.w	r2, [sp, #12]
 8004fd8:	7823      	ldrb	r3, [r4, #0]
 8004fda:	4293      	cmp	r3, r2
 8004fdc:	d015      	beq.n	800500a <AMP_SPK_CHECK+0x72>
 8004fde:	4811      	ldr	r0, [pc, #68]	; (8005024 <AMP_SPK_CHECK+0x8c>)
 8004fe0:	f006 f902 	bl	800b1e8 <iprintf>
 8004fe4:	f89d 300c 	ldrb.w	r3, [sp, #12]
 8004fe8:	f89d 1008 	ldrb.w	r1, [sp, #8]
 8004fec:	109b      	asrs	r3, r3, #2
 8004fee:	f003 0302 	and.w	r3, r3, #2
 8004ff2:	ea43 16d1 	orr.w	r6, r3, r1, lsr #7
 8004ff6:	4631      	mov	r1, r6
 8004ff8:	480b      	ldr	r0, [pc, #44]	; (8005028 <AMP_SPK_CHECK+0x90>)
 8004ffa:	f006 f8f5 	bl	800b1e8 <iprintf>
 8004ffe:	f89d 2008 	ldrb.w	r2, [sp, #8]
 8005002:	f89d 300c 	ldrb.w	r3, [sp, #12]
 8005006:	702a      	strb	r2, [r5, #0]
 8005008:	7023      	strb	r3, [r4, #0]
 800500a:	4630      	mov	r0, r6
 800500c:	b004      	add	sp, #16
 800500e:	bd70      	pop	{r4, r5, r6, pc}
 8005010:	f89d 200c 	ldrb.w	r2, [sp, #12]
 8005014:	4c02      	ldr	r4, [pc, #8]	; (8005020 <AMP_SPK_CHECK+0x88>)
 8005016:	e7e2      	b.n	8004fde <AMP_SPK_CHECK+0x46>
 8005018:	20000400 	.word	0x20000400
 800501c:	20000224 	.word	0x20000224
 8005020:	20000401 	.word	0x20000401
 8005024:	0800d708 	.word	0x0800d708
 8005028:	0800d730 	.word	0x0800d730

0800502c <HAL_MspInit>:
 800502c:	4b0e      	ldr	r3, [pc, #56]	; (8005068 <HAL_MspInit+0x3c>)
 800502e:	b082      	sub	sp, #8
 8005030:	699a      	ldr	r2, [r3, #24]
 8005032:	490e      	ldr	r1, [pc, #56]	; (800506c <HAL_MspInit+0x40>)
 8005034:	f042 0201 	orr.w	r2, r2, #1
 8005038:	619a      	str	r2, [r3, #24]
 800503a:	699a      	ldr	r2, [r3, #24]
 800503c:	f002 0201 	and.w	r2, r2, #1
 8005040:	9200      	str	r2, [sp, #0]
 8005042:	9a00      	ldr	r2, [sp, #0]
 8005044:	69da      	ldr	r2, [r3, #28]
 8005046:	f042 5280 	orr.w	r2, r2, #268435456	; 0x10000000
 800504a:	61da      	str	r2, [r3, #28]
 800504c:	69db      	ldr	r3, [r3, #28]
 800504e:	f003 5380 	and.w	r3, r3, #268435456	; 0x10000000
 8005052:	9301      	str	r3, [sp, #4]
 8005054:	9b01      	ldr	r3, [sp, #4]
 8005056:	684b      	ldr	r3, [r1, #4]
 8005058:	f023 63e0 	bic.w	r3, r3, #117440512	; 0x7000000
 800505c:	f043 6380 	orr.w	r3, r3, #67108864	; 0x4000000
 8005060:	604b      	str	r3, [r1, #4]
 8005062:	b002      	add	sp, #8
 8005064:	4770      	bx	lr
 8005066:	bf00      	nop
 8005068:	40021000 	.word	0x40021000
 800506c:	40010000 	.word	0x40010000

08005070 <HAL_ADC_MspInit>:
 8005070:	b530      	push	{r4, r5, lr}
 8005072:	2400      	movs	r4, #0
 8005074:	4a25      	ldr	r2, [pc, #148]	; (800510c <HAL_ADC_MspInit+0x9c>)
 8005076:	6803      	ldr	r3, [r0, #0]
 8005078:	b089      	sub	sp, #36	; 0x24
 800507a:	4293      	cmp	r3, r2
 800507c:	e9cd 4404 	strd	r4, r4, [sp, #16]
 8005080:	e9cd 4406 	strd	r4, r4, [sp, #24]
 8005084:	d004      	beq.n	8005090 <HAL_ADC_MspInit+0x20>
 8005086:	4a22      	ldr	r2, [pc, #136]	; (8005110 <HAL_ADC_MspInit+0xa0>)
 8005088:	4293      	cmp	r3, r2
 800508a:	d026      	beq.n	80050da <HAL_ADC_MspInit+0x6a>
 800508c:	b009      	add	sp, #36	; 0x24
 800508e:	bd30      	pop	{r4, r5, pc}
 8005090:	4b20      	ldr	r3, [pc, #128]	; (8005114 <HAL_ADC_MspInit+0xa4>)
 8005092:	4821      	ldr	r0, [pc, #132]	; (8005118 <HAL_ADC_MspInit+0xa8>)
 8005094:	699a      	ldr	r2, [r3, #24]
 8005096:	a904      	add	r1, sp, #16
 8005098:	f442 7200 	orr.w	r2, r2, #512	; 0x200
 800509c:	619a      	str	r2, [r3, #24]
 800509e:	699a      	ldr	r2, [r3, #24]
 80050a0:	f402 7200 	and.w	r2, r2, #512	; 0x200
 80050a4:	9200      	str	r2, [sp, #0]
 80050a6:	9a00      	ldr	r2, [sp, #0]
 80050a8:	699a      	ldr	r2, [r3, #24]
 80050aa:	f042 0210 	orr.w	r2, r2, #16
 80050ae:	619a      	str	r2, [r3, #24]
 80050b0:	699b      	ldr	r3, [r3, #24]
 80050b2:	2204      	movs	r2, #4
 80050b4:	f003 0310 	and.w	r3, r3, #16
 80050b8:	9301      	str	r3, [sp, #4]
 80050ba:	2303      	movs	r3, #3
 80050bc:	9d01      	ldr	r5, [sp, #4]
 80050be:	e9cd 2304 	strd	r2, r3, [sp, #16]
 80050c2:	f001 f903 	bl	80062cc <HAL_GPIO_Init>
 80050c6:	4622      	mov	r2, r4
 80050c8:	4621      	mov	r1, r4
 80050ca:	2012      	movs	r0, #18
 80050cc:	f000 fe30 	bl	8005d30 <HAL_NVIC_SetPriority>
 80050d0:	2012      	movs	r0, #18
 80050d2:	f000 fe6b 	bl	8005dac <HAL_NVIC_EnableIRQ>
 80050d6:	b009      	add	sp, #36	; 0x24
 80050d8:	bd30      	pop	{r4, r5, pc}
 80050da:	4b0e      	ldr	r3, [pc, #56]	; (8005114 <HAL_ADC_MspInit+0xa4>)
 80050dc:	480e      	ldr	r0, [pc, #56]	; (8005118 <HAL_ADC_MspInit+0xa8>)
 80050de:	699a      	ldr	r2, [r3, #24]
 80050e0:	a904      	add	r1, sp, #16
 80050e2:	f442 6280 	orr.w	r2, r2, #1024	; 0x400
 80050e6:	619a      	str	r2, [r3, #24]
 80050e8:	699a      	ldr	r2, [r3, #24]
 80050ea:	f402 6280 	and.w	r2, r2, #1024	; 0x400
 80050ee:	9202      	str	r2, [sp, #8]
 80050f0:	9a02      	ldr	r2, [sp, #8]
 80050f2:	699a      	ldr	r2, [r3, #24]
 80050f4:	f042 0210 	orr.w	r2, r2, #16
 80050f8:	619a      	str	r2, [r3, #24]
 80050fa:	699b      	ldr	r3, [r3, #24]
 80050fc:	2202      	movs	r2, #2
 80050fe:	f003 0310 	and.w	r3, r3, #16
 8005102:	9303      	str	r3, [sp, #12]
 8005104:	9d03      	ldr	r5, [sp, #12]
 8005106:	2303      	movs	r3, #3
 8005108:	e7d9      	b.n	80050be <HAL_ADC_MspInit+0x4e>
 800510a:	bf00      	nop
 800510c:	40012400 	.word	0x40012400
 8005110:	40012800 	.word	0x40012800
 8005114:	40021000 	.word	0x40021000
 8005118:	40011000 	.word	0x40011000

0800511c <HAL_I2C_MspInit>:
 800511c:	2300      	movs	r3, #0
 800511e:	b5d0      	push	{r4, r6, r7, lr}
 8005120:	4a15      	ldr	r2, [pc, #84]	; (8005178 <HAL_I2C_MspInit+0x5c>)
 8005122:	6801      	ldr	r1, [r0, #0]
 8005124:	b086      	sub	sp, #24
 8005126:	4291      	cmp	r1, r2
 8005128:	e9cd 3302 	strd	r3, r3, [sp, #8]
 800512c:	e9cd 3304 	strd	r3, r3, [sp, #16]
 8005130:	d001      	beq.n	8005136 <HAL_I2C_MspInit+0x1a>
 8005132:	b006      	add	sp, #24
 8005134:	bdd0      	pop	{r4, r6, r7, pc}
 8005136:	2203      	movs	r2, #3
 8005138:	f44f 6640 	mov.w	r6, #3072	; 0xc00
 800513c:	2712      	movs	r7, #18
 800513e:	4c0f      	ldr	r4, [pc, #60]	; (800517c <HAL_I2C_MspInit+0x60>)
 8005140:	480f      	ldr	r0, [pc, #60]	; (8005180 <HAL_I2C_MspInit+0x64>)
 8005142:	69a3      	ldr	r3, [r4, #24]
 8005144:	a902      	add	r1, sp, #8
 8005146:	f043 0308 	orr.w	r3, r3, #8
 800514a:	61a3      	str	r3, [r4, #24]
 800514c:	69a3      	ldr	r3, [r4, #24]
 800514e:	e9cd 6702 	strd	r6, r7, [sp, #8]
 8005152:	f003 0308 	and.w	r3, r3, #8
 8005156:	9300      	str	r3, [sp, #0]
 8005158:	9b00      	ldr	r3, [sp, #0]
 800515a:	9205      	str	r2, [sp, #20]
 800515c:	f001 f8b6 	bl	80062cc <HAL_GPIO_Init>
 8005160:	69e3      	ldr	r3, [r4, #28]
 8005162:	f443 0380 	orr.w	r3, r3, #4194304	; 0x400000
 8005166:	61e3      	str	r3, [r4, #28]
 8005168:	69e3      	ldr	r3, [r4, #28]
 800516a:	f403 0380 	and.w	r3, r3, #4194304	; 0x400000
 800516e:	9301      	str	r3, [sp, #4]
 8005170:	9b01      	ldr	r3, [sp, #4]
 8005172:	b006      	add	sp, #24
 8005174:	bdd0      	pop	{r4, r6, r7, pc}
 8005176:	bf00      	nop
 8005178:	40005800 	.word	0x40005800
 800517c:	40021000 	.word	0x40021000
 8005180:	40010c00 	.word	0x40010c00

08005184 <HAL_TIM_Base_MspInit>:
 8005184:	6803      	ldr	r3, [r0, #0]
 8005186:	f1b3 4f80 	cmp.w	r3, #1073741824	; 0x40000000
 800518a:	d000      	beq.n	800518e <HAL_TIM_Base_MspInit+0xa>
 800518c:	4770      	bx	lr
 800518e:	2200      	movs	r2, #0
 8005190:	f503 3304 	add.w	r3, r3, #135168	; 0x21000
 8005194:	69d9      	ldr	r1, [r3, #28]
 8005196:	b500      	push	{lr}
 8005198:	f041 0101 	orr.w	r1, r1, #1
 800519c:	61d9      	str	r1, [r3, #28]
 800519e:	69db      	ldr	r3, [r3, #28]
 80051a0:	b083      	sub	sp, #12
 80051a2:	f003 0301 	and.w	r3, r3, #1
 80051a6:	9301      	str	r3, [sp, #4]
 80051a8:	201c      	movs	r0, #28
 80051aa:	4611      	mov	r1, r2
 80051ac:	9b01      	ldr	r3, [sp, #4]
 80051ae:	f000 fdbf 	bl	8005d30 <HAL_NVIC_SetPriority>
 80051b2:	201c      	movs	r0, #28
 80051b4:	b003      	add	sp, #12
 80051b6:	f85d eb04 	ldr.w	lr, [sp], #4
 80051ba:	f000 bdf7 	b.w	8005dac <HAL_NVIC_EnableIRQ>
 80051be:	bf00      	nop

080051c0 <HAL_UART_MspInit>:
 80051c0:	b5d0      	push	{r4, r6, r7, lr}
 80051c2:	2400      	movs	r4, #0
 80051c4:	4a75      	ldr	r2, [pc, #468]	; (800539c <HAL_UART_MspInit+0x1dc>)
 80051c6:	6803      	ldr	r3, [r0, #0]
 80051c8:	b08e      	sub	sp, #56	; 0x38
 80051ca:	4293      	cmp	r3, r2
 80051cc:	e9cd 440a 	strd	r4, r4, [sp, #40]	; 0x28
 80051d0:	e9cd 440c 	strd	r4, r4, [sp, #48]	; 0x30
 80051d4:	d045      	beq.n	8005262 <HAL_UART_MspInit+0xa2>
 80051d6:	4a72      	ldr	r2, [pc, #456]	; (80053a0 <HAL_UART_MspInit+0x1e0>)
 80051d8:	4293      	cmp	r3, r2
 80051da:	d07c      	beq.n	80052d6 <HAL_UART_MspInit+0x116>
 80051dc:	4a71      	ldr	r2, [pc, #452]	; (80053a4 <HAL_UART_MspInit+0x1e4>)
 80051de:	4293      	cmp	r3, r2
 80051e0:	f000 80ab 	beq.w	800533a <HAL_UART_MspInit+0x17a>
 80051e4:	4a70      	ldr	r2, [pc, #448]	; (80053a8 <HAL_UART_MspInit+0x1e8>)
 80051e6:	4293      	cmp	r3, r2
 80051e8:	d001      	beq.n	80051ee <HAL_UART_MspInit+0x2e>
 80051ea:	b00e      	add	sp, #56	; 0x38
 80051ec:	bdd0      	pop	{r4, r6, r7, pc}
 80051ee:	4b6f      	ldr	r3, [pc, #444]	; (80053ac <HAL_UART_MspInit+0x1ec>)
 80051f0:	f44f 6680 	mov.w	r6, #1024	; 0x400
 80051f4:	69da      	ldr	r2, [r3, #28]
 80051f6:	2702      	movs	r7, #2
 80051f8:	f442 2280 	orr.w	r2, r2, #262144	; 0x40000
 80051fc:	61da      	str	r2, [r3, #28]
 80051fe:	69da      	ldr	r2, [r3, #28]
 8005200:	a90a      	add	r1, sp, #40	; 0x28
 8005202:	f402 2280 	and.w	r2, r2, #262144	; 0x40000
 8005206:	9208      	str	r2, [sp, #32]
 8005208:	9a08      	ldr	r2, [sp, #32]
 800520a:	699a      	ldr	r2, [r3, #24]
 800520c:	4868      	ldr	r0, [pc, #416]	; (80053b0 <HAL_UART_MspInit+0x1f0>)
 800520e:	f042 0210 	orr.w	r2, r2, #16
 8005212:	619a      	str	r2, [r3, #24]
 8005214:	699b      	ldr	r3, [r3, #24]
 8005216:	e9cd 670a 	strd	r6, r7, [sp, #40]	; 0x28
 800521a:	f003 0310 	and.w	r3, r3, #16
 800521e:	9309      	str	r3, [sp, #36]	; 0x24
 8005220:	2303      	movs	r3, #3
 8005222:	9a09      	ldr	r2, [sp, #36]	; 0x24
 8005224:	930d      	str	r3, [sp, #52]	; 0x34
 8005226:	f001 f851 	bl	80062cc <HAL_GPIO_Init>
 800522a:	f44f 6200 	mov.w	r2, #2048	; 0x800
 800522e:	2300      	movs	r3, #0
 8005230:	4e60      	ldr	r6, [pc, #384]	; (80053b4 <HAL_UART_MspInit+0x1f4>)
 8005232:	a90a      	add	r1, sp, #40	; 0x28
 8005234:	485e      	ldr	r0, [pc, #376]	; (80053b0 <HAL_UART_MspInit+0x1f0>)
 8005236:	e9cd 230a 	strd	r2, r3, [sp, #40]	; 0x28
 800523a:	940c      	str	r4, [sp, #48]	; 0x30
 800523c:	f001 f846 	bl	80062cc <HAL_GPIO_Init>
 8005240:	6873      	ldr	r3, [r6, #4]
 8005242:	2027      	movs	r0, #39	; 0x27
 8005244:	f023 0330 	bic.w	r3, r3, #48	; 0x30
 8005248:	f043 63e0 	orr.w	r3, r3, #117440512	; 0x7000000
 800524c:	f043 0310 	orr.w	r3, r3, #16
 8005250:	4622      	mov	r2, r4
 8005252:	4621      	mov	r1, r4
 8005254:	6073      	str	r3, [r6, #4]
 8005256:	f000 fd6b 	bl	8005d30 <HAL_NVIC_SetPriority>
 800525a:	2027      	movs	r0, #39	; 0x27
 800525c:	f000 fda6 	bl	8005dac <HAL_NVIC_EnableIRQ>
 8005260:	e7c3      	b.n	80051ea <HAL_UART_MspInit+0x2a>
 8005262:	4b52      	ldr	r3, [pc, #328]	; (80053ac <HAL_UART_MspInit+0x1ec>)
 8005264:	f44f 5680 	mov.w	r6, #4096	; 0x1000
 8005268:	69da      	ldr	r2, [r3, #28]
 800526a:	2702      	movs	r7, #2
 800526c:	f442 1280 	orr.w	r2, r2, #1048576	; 0x100000
 8005270:	61da      	str	r2, [r3, #28]
 8005272:	69da      	ldr	r2, [r3, #28]
 8005274:	a90a      	add	r1, sp, #40	; 0x28
 8005276:	f402 1280 	and.w	r2, r2, #1048576	; 0x100000
 800527a:	9201      	str	r2, [sp, #4]
 800527c:	9a01      	ldr	r2, [sp, #4]
 800527e:	699a      	ldr	r2, [r3, #24]
 8005280:	484b      	ldr	r0, [pc, #300]	; (80053b0 <HAL_UART_MspInit+0x1f0>)
 8005282:	f042 0210 	orr.w	r2, r2, #16
 8005286:	619a      	str	r2, [r3, #24]
 8005288:	699a      	ldr	r2, [r3, #24]
 800528a:	f002 0210 	and.w	r2, r2, #16
 800528e:	9202      	str	r2, [sp, #8]
 8005290:	9a02      	ldr	r2, [sp, #8]
 8005292:	699a      	ldr	r2, [r3, #24]
 8005294:	f042 0220 	orr.w	r2, r2, #32
 8005298:	619a      	str	r2, [r3, #24]
 800529a:	699b      	ldr	r3, [r3, #24]
 800529c:	e9cd 670a 	strd	r6, r7, [sp, #40]	; 0x28
 80052a0:	f003 0320 	and.w	r3, r3, #32
 80052a4:	9303      	str	r3, [sp, #12]
 80052a6:	2303      	movs	r3, #3
 80052a8:	9a03      	ldr	r2, [sp, #12]
 80052aa:	930d      	str	r3, [sp, #52]	; 0x34
 80052ac:	f001 f80e 	bl	80062cc <HAL_GPIO_Init>
 80052b0:	2300      	movs	r3, #0
 80052b2:	2204      	movs	r2, #4
 80052b4:	a90a      	add	r1, sp, #40	; 0x28
 80052b6:	4840      	ldr	r0, [pc, #256]	; (80053b8 <HAL_UART_MspInit+0x1f8>)
 80052b8:	e9cd 230a 	strd	r2, r3, [sp, #40]	; 0x28
 80052bc:	940c      	str	r4, [sp, #48]	; 0x30
 80052be:	f001 f805 	bl	80062cc <HAL_GPIO_Init>
 80052c2:	4622      	mov	r2, r4
 80052c4:	4621      	mov	r1, r4
 80052c6:	2035      	movs	r0, #53	; 0x35
 80052c8:	f000 fd32 	bl	8005d30 <HAL_NVIC_SetPriority>
 80052cc:	2035      	movs	r0, #53	; 0x35
 80052ce:	f000 fd6d 	bl	8005dac <HAL_NVIC_EnableIRQ>
 80052d2:	b00e      	add	sp, #56	; 0x38
 80052d4:	bdd0      	pop	{r4, r6, r7, pc}
 80052d6:	4b35      	ldr	r3, [pc, #212]	; (80053ac <HAL_UART_MspInit+0x1ec>)
 80052d8:	f44f 7600 	mov.w	r6, #512	; 0x200
 80052dc:	699a      	ldr	r2, [r3, #24]
 80052de:	2702      	movs	r7, #2
 80052e0:	f442 4280 	orr.w	r2, r2, #16384	; 0x4000
 80052e4:	619a      	str	r2, [r3, #24]
 80052e6:	699a      	ldr	r2, [r3, #24]
 80052e8:	a90a      	add	r1, sp, #40	; 0x28
 80052ea:	f402 4280 	and.w	r2, r2, #16384	; 0x4000
 80052ee:	9204      	str	r2, [sp, #16]
 80052f0:	9a04      	ldr	r2, [sp, #16]
 80052f2:	699a      	ldr	r2, [r3, #24]
 80052f4:	4831      	ldr	r0, [pc, #196]	; (80053bc <HAL_UART_MspInit+0x1fc>)
 80052f6:	f042 0204 	orr.w	r2, r2, #4
 80052fa:	619a      	str	r2, [r3, #24]
 80052fc:	699b      	ldr	r3, [r3, #24]
 80052fe:	e9cd 670a 	strd	r6, r7, [sp, #40]	; 0x28
 8005302:	f003 0304 	and.w	r3, r3, #4
 8005306:	9305      	str	r3, [sp, #20]
 8005308:	2303      	movs	r3, #3
 800530a:	9a05      	ldr	r2, [sp, #20]
 800530c:	930d      	str	r3, [sp, #52]	; 0x34
 800530e:	f000 ffdd 	bl	80062cc <HAL_GPIO_Init>
 8005312:	2300      	movs	r3, #0
 8005314:	f44f 6280 	mov.w	r2, #1024	; 0x400
 8005318:	a90a      	add	r1, sp, #40	; 0x28
 800531a:	4828      	ldr	r0, [pc, #160]	; (80053bc <HAL_UART_MspInit+0x1fc>)
 800531c:	e9cd 230a 	strd	r2, r3, [sp, #40]	; 0x28
 8005320:	940c      	str	r4, [sp, #48]	; 0x30
 8005322:	f000 ffd3 	bl	80062cc <HAL_GPIO_Init>
 8005326:	4622      	mov	r2, r4
 8005328:	4621      	mov	r1, r4
 800532a:	2025      	movs	r0, #37	; 0x25
 800532c:	f000 fd00 	bl	8005d30 <HAL_NVIC_SetPriority>
 8005330:	2025      	movs	r0, #37	; 0x25
 8005332:	f000 fd3b 	bl	8005dac <HAL_NVIC_EnableIRQ>
 8005336:	b00e      	add	sp, #56	; 0x38
 8005338:	bdd0      	pop	{r4, r6, r7, pc}
 800533a:	4b1c      	ldr	r3, [pc, #112]	; (80053ac <HAL_UART_MspInit+0x1ec>)
 800533c:	2604      	movs	r6, #4
 800533e:	69da      	ldr	r2, [r3, #28]
 8005340:	2702      	movs	r7, #2
 8005342:	f442 3200 	orr.w	r2, r2, #131072	; 0x20000
 8005346:	61da      	str	r2, [r3, #28]
 8005348:	69da      	ldr	r2, [r3, #28]
 800534a:	a90a      	add	r1, sp, #40	; 0x28
 800534c:	f402 3200 	and.w	r2, r2, #131072	; 0x20000
 8005350:	9206      	str	r2, [sp, #24]
 8005352:	9a06      	ldr	r2, [sp, #24]
 8005354:	699a      	ldr	r2, [r3, #24]
 8005356:	4819      	ldr	r0, [pc, #100]	; (80053bc <HAL_UART_MspInit+0x1fc>)
 8005358:	f042 0204 	orr.w	r2, r2, #4
 800535c:	619a      	str	r2, [r3, #24]
 800535e:	699b      	ldr	r3, [r3, #24]
 8005360:	e9cd 670a 	strd	r6, r7, [sp, #40]	; 0x28
 8005364:	f003 0304 	and.w	r3, r3, #4
 8005368:	9307      	str	r3, [sp, #28]
 800536a:	2303      	movs	r3, #3
 800536c:	9a07      	ldr	r2, [sp, #28]
 800536e:	930d      	str	r3, [sp, #52]	; 0x34
 8005370:	f000 ffac 	bl	80062cc <HAL_GPIO_Init>
 8005374:	2300      	movs	r3, #0
 8005376:	2208      	movs	r2, #8
 8005378:	a90a      	add	r1, sp, #40	; 0x28
 800537a:	4810      	ldr	r0, [pc, #64]	; (80053bc <HAL_UART_MspInit+0x1fc>)
 800537c:	e9cd 230a 	strd	r2, r3, [sp, #40]	; 0x28
 8005380:	940c      	str	r4, [sp, #48]	; 0x30
 8005382:	f000 ffa3 	bl	80062cc <HAL_GPIO_Init>
 8005386:	4622      	mov	r2, r4
 8005388:	4621      	mov	r1, r4
 800538a:	2026      	movs	r0, #38	; 0x26
 800538c:	f000 fcd0 	bl	8005d30 <HAL_NVIC_SetPriority>
 8005390:	2026      	movs	r0, #38	; 0x26
 8005392:	f000 fd0b 	bl	8005dac <HAL_NVIC_EnableIRQ>
 8005396:	b00e      	add	sp, #56	; 0x38
 8005398:	bdd0      	pop	{r4, r6, r7, pc}
 800539a:	bf00      	nop
 800539c:	40005000 	.word	0x40005000
 80053a0:	40013800 	.word	0x40013800
 80053a4:	40004400 	.word	0x40004400
 80053a8:	40004800 	.word	0x40004800
 80053ac:	40021000 	.word	0x40021000
 80053b0:	40011000 	.word	0x40011000
 80053b4:	40010000 	.word	0x40010000
 80053b8:	40011400 	.word	0x40011400
 80053bc:	40010800 	.word	0x40010800

080053c0 <NMI_Handler>:
 80053c0:	4770      	bx	lr
 80053c2:	bf00      	nop

080053c4 <HardFault_Handler>:
 80053c4:	e7fe      	b.n	80053c4 <HardFault_Handler>
 80053c6:	bf00      	nop

080053c8 <MemManage_Handler>:
 80053c8:	e7fe      	b.n	80053c8 <MemManage_Handler>
 80053ca:	bf00      	nop

080053cc <BusFault_Handler>:
 80053cc:	e7fe      	b.n	80053cc <BusFault_Handler>
 80053ce:	bf00      	nop

080053d0 <UsageFault_Handler>:
 80053d0:	e7fe      	b.n	80053d0 <UsageFault_Handler>
 80053d2:	bf00      	nop

080053d4 <SVC_Handler>:
 80053d4:	4770      	bx	lr
 80053d6:	bf00      	nop

080053d8 <DebugMon_Handler>:
 80053d8:	4770      	bx	lr
 80053da:	bf00      	nop

080053dc <PendSV_Handler>:
 80053dc:	4770      	bx	lr
 80053de:	bf00      	nop

080053e0 <SysTick_Handler>:
 80053e0:	f000 b8fc 	b.w	80055dc <HAL_IncTick>

080053e4 <ADC1_2_IRQHandler>:
 80053e4:	b508      	push	{r3, lr}
 80053e6:	4804      	ldr	r0, [pc, #16]	; (80053f8 <ADC1_2_IRQHandler+0x14>)
 80053e8:	f000 fad4 	bl	8005994 <HAL_ADC_IRQHandler>
 80053ec:	e8bd 4008 	ldmia.w	sp!, {r3, lr}
 80053f0:	4802      	ldr	r0, [pc, #8]	; (80053fc <ADC1_2_IRQHandler+0x18>)
 80053f2:	f000 bacf 	b.w	8005994 <HAL_ADC_IRQHandler>
 80053f6:	bf00      	nop
 80053f8:	200001c4 	.word	0x200001c4
 80053fc:	200001f4 	.word	0x200001f4

08005400 <TIM2_IRQHandler>:
 8005400:	b508      	push	{r3, lr}
 8005402:	480e      	ldr	r0, [pc, #56]	; (800543c <TIM2_IRQHandler+0x3c>)
 8005404:	f002 fd84 	bl	8007f10 <HAL_TIM_IRQHandler>
 8005408:	4a0d      	ldr	r2, [pc, #52]	; (8005440 <TIM2_IRQHandler+0x40>)
 800540a:	8813      	ldrh	r3, [r2, #0]
 800540c:	b10b      	cbz	r3, 8005412 <TIM2_IRQHandler+0x12>
 800540e:	3b01      	subs	r3, #1
 8005410:	8013      	strh	r3, [r2, #0]
 8005412:	4a0c      	ldr	r2, [pc, #48]	; (8005444 <TIM2_IRQHandler+0x44>)
 8005414:	8813      	ldrh	r3, [r2, #0]
 8005416:	b10b      	cbz	r3, 800541c <TIM2_IRQHandler+0x1c>
 8005418:	3b01      	subs	r3, #1
 800541a:	8013      	strh	r3, [r2, #0]
 800541c:	4a0a      	ldr	r2, [pc, #40]	; (8005448 <TIM2_IRQHandler+0x48>)
 800541e:	8813      	ldrh	r3, [r2, #0]
 8005420:	b10b      	cbz	r3, 8005426 <TIM2_IRQHandler+0x26>
 8005422:	3b01      	subs	r3, #1
 8005424:	8013      	strh	r3, [r2, #0]
 8005426:	4a09      	ldr	r2, [pc, #36]	; (800544c <TIM2_IRQHandler+0x4c>)
 8005428:	8813      	ldrh	r3, [r2, #0]
 800542a:	b133      	cbz	r3, 800543a <TIM2_IRQHandler+0x3a>
 800542c:	3b01      	subs	r3, #1
 800542e:	b29b      	uxth	r3, r3
 8005430:	8013      	strh	r3, [r2, #0]
 8005432:	b913      	cbnz	r3, 800543a <TIM2_IRQHandler+0x3a>
 8005434:	2201      	movs	r2, #1
 8005436:	4b06      	ldr	r3, [pc, #24]	; (8005450 <TIM2_IRQHandler+0x50>)
 8005438:	701a      	strb	r2, [r3, #0]
 800543a:	bd08      	pop	{r3, pc}
 800543c:	20000288 	.word	0x20000288
 8005440:	20000412 	.word	0x20000412
 8005444:	20000410 	.word	0x20000410
 8005448:	2000040e 	.word	0x2000040e
 800544c:	20000404 	.word	0x20000404
 8005450:	200003f1 	.word	0x200003f1

08005454 <USART1_IRQHandler>:
 8005454:	4801      	ldr	r0, [pc, #4]	; (800545c <USART1_IRQHandler+0x8>)
 8005456:	f003 b827 	b.w	80084a8 <HAL_UART_IRQHandler>
 800545a:	bf00      	nop
 800545c:	200002d0 	.word	0x200002d0

08005460 <USART2_IRQHandler>:
 8005460:	4801      	ldr	r0, [pc, #4]	; (8005468 <USART2_IRQHandler+0x8>)
 8005462:	f003 b821 	b.w	80084a8 <HAL_UART_IRQHandler>
 8005466:	bf00      	nop
 8005468:	20000310 	.word	0x20000310

0800546c <USART3_IRQHandler>:
 800546c:	4801      	ldr	r0, [pc, #4]	; (8005474 <USART3_IRQHandler+0x8>)
 800546e:	f003 b81b 	b.w	80084a8 <HAL_UART_IRQHandler>
 8005472:	bf00      	nop
 8005474:	20000350 	.word	0x20000350

08005478 <UART5_IRQHandler>:
 8005478:	4801      	ldr	r0, [pc, #4]	; (8005480 <UART5_IRQHandler+0x8>)
 800547a:	f003 b815 	b.w	80084a8 <HAL_UART_IRQHandler>
 800547e:	bf00      	nop
 8005480:	20000390 	.word	0x20000390

08005484 <_read>:
 8005484:	b570      	push	{r4, r5, r6, lr}
 8005486:	1e16      	subs	r6, r2, #0
 8005488:	dd07      	ble.n	800549a <_read+0x16>
 800548a:	460c      	mov	r4, r1
 800548c:	198d      	adds	r5, r1, r6
 800548e:	f004 ff07 	bl	800a2a0 <__io_getchar>
 8005492:	f804 0b01 	strb.w	r0, [r4], #1
 8005496:	42a5      	cmp	r5, r4
 8005498:	d1f9      	bne.n	800548e <_read+0xa>
 800549a:	4630      	mov	r0, r6
 800549c:	bd70      	pop	{r4, r5, r6, pc}
 800549e:	bf00      	nop

080054a0 <_write>:
 80054a0:	b570      	push	{r4, r5, r6, lr}
 80054a2:	1e16      	subs	r6, r2, #0
 80054a4:	dd07      	ble.n	80054b6 <_write+0x16>
 80054a6:	460c      	mov	r4, r1
 80054a8:	198d      	adds	r5, r1, r6
 80054aa:	f814 0b01 	ldrb.w	r0, [r4], #1
 80054ae:	f004 fed7 	bl	800a260 <__io_putchar>
 80054b2:	42ac      	cmp	r4, r5
 80054b4:	d1f9      	bne.n	80054aa <_write+0xa>
 80054b6:	4630      	mov	r0, r6
 80054b8:	bd70      	pop	{r4, r5, r6, pc}
 80054ba:	bf00      	nop

080054bc <_close>:
 80054bc:	f04f 30ff 	mov.w	r0, #4294967295
 80054c0:	4770      	bx	lr
 80054c2:	bf00      	nop

080054c4 <_fstat>:
 80054c4:	f44f 5300 	mov.w	r3, #8192	; 0x2000
 80054c8:	2000      	movs	r0, #0
 80054ca:	604b      	str	r3, [r1, #4]
 80054cc:	4770      	bx	lr
 80054ce:	bf00      	nop

080054d0 <_isatty>:
 80054d0:	2001      	movs	r0, #1
 80054d2:	4770      	bx	lr

080054d4 <_lseek>:
 80054d4:	2000      	movs	r0, #0
 80054d6:	4770      	bx	lr

080054d8 <_sbrk>:
 80054d8:	4a0c      	ldr	r2, [pc, #48]	; (800550c <_sbrk+0x34>)
 80054da:	b508      	push	{r3, lr}
 80054dc:	4603      	mov	r3, r0
 80054de:	6810      	ldr	r0, [r2, #0]
 80054e0:	b128      	cbz	r0, 80054ee <_sbrk+0x16>
 80054e2:	4669      	mov	r1, sp
 80054e4:	4403      	add	r3, r0
 80054e6:	428b      	cmp	r3, r1
 80054e8:	d808      	bhi.n	80054fc <_sbrk+0x24>
 80054ea:	6013      	str	r3, [r2, #0]
 80054ec:	bd08      	pop	{r3, pc}
 80054ee:	4908      	ldr	r1, [pc, #32]	; (8005510 <_sbrk+0x38>)
 80054f0:	4608      	mov	r0, r1
 80054f2:	6011      	str	r1, [r2, #0]
 80054f4:	4669      	mov	r1, sp
 80054f6:	4403      	add	r3, r0
 80054f8:	428b      	cmp	r3, r1
 80054fa:	d9f6      	bls.n	80054ea <_sbrk+0x12>
 80054fc:	f005 fe22 	bl	800b144 <__errno>
 8005500:	220c      	movs	r2, #12
 8005502:	4603      	mov	r3, r0
 8005504:	f04f 30ff 	mov.w	r0, #4294967295
 8005508:	601a      	str	r2, [r3, #0]
 800550a:	bd08      	pop	{r3, pc}
 800550c:	20000418 	.word	0x20000418
 8005510:	20000f50 	.word	0x20000f50

08005514 <SystemInit>:
 8005514:	4b01      	ldr	r3, [pc, #4]	; (800551c <SystemInit+0x8>)
 8005516:	4a02      	ldr	r2, [pc, #8]	; (8005520 <SystemInit+0xc>)
 8005518:	609a      	str	r2, [r3, #8]
 800551a:	4770      	bx	lr
 800551c:	e000ed00 	.word	0xe000ed00
 8005520:	08004000 	.word	0x08004000

08005524 <Reset_Handler>:
 8005524:	2100      	movs	r1, #0
 8005526:	e003      	b.n	8005530 <LoopCopyDataInit>

08005528 <CopyDataInit>:
 8005528:	4b0b      	ldr	r3, [pc, #44]	; (8005558 <LoopFillZerobss+0x14>)
 800552a:	585b      	ldr	r3, [r3, r1]
 800552c:	5043      	str	r3, [r0, r1]
 800552e:	3104      	adds	r1, #4

08005530 <LoopCopyDataInit>:
 8005530:	480a      	ldr	r0, [pc, #40]	; (800555c <LoopFillZerobss+0x18>)
 8005532:	4b0b      	ldr	r3, [pc, #44]	; (8005560 <LoopFillZerobss+0x1c>)
 8005534:	1842      	adds	r2, r0, r1
 8005536:	429a      	cmp	r2, r3
 8005538:	d3f6      	bcc.n	8005528 <CopyDataInit>
 800553a:	4a0a      	ldr	r2, [pc, #40]	; (8005564 <LoopFillZerobss+0x20>)
 800553c:	e002      	b.n	8005544 <LoopFillZerobss>

0800553e <FillZerobss>:
 800553e:	2300      	movs	r3, #0
 8005540:	f842 3b04 	str.w	r3, [r2], #4

08005544 <LoopFillZerobss>:
 8005544:	4b08      	ldr	r3, [pc, #32]	; (8005568 <LoopFillZerobss+0x24>)
 8005546:	429a      	cmp	r2, r3
 8005548:	d3f9      	bcc.n	800553e <FillZerobss>
 800554a:	f7ff ffe3 	bl	8005514 <SystemInit>
 800554e:	f005 fe11 	bl	800b174 <__libc_init_array>
 8005552:	f7fe febf 	bl	80042d4 <main>
 8005556:	4770      	bx	lr
 8005558:	0800e344 	.word	0x0800e344
 800555c:	20000000 	.word	0x20000000
 8005560:	200001a4 	.word	0x200001a4
 8005564:	200001a8 	.word	0x200001a8
 8005568:	20000f50 	.word	0x20000f50

0800556c <ADC3_IRQHandler>:
 800556c:	e7fe      	b.n	800556c <ADC3_IRQHandler>
	...

08005570 <HAL_InitTick>:
 8005570:	b538      	push	{r3, r4, r5, lr}
 8005572:	f44f 737a 	mov.w	r3, #1000	; 0x3e8
 8005576:	4a0d      	ldr	r2, [pc, #52]	; (80055ac <HAL_InitTick+0x3c>)
 8005578:	4605      	mov	r5, r0
 800557a:	7811      	ldrb	r1, [r2, #0]
 800557c:	4a0c      	ldr	r2, [pc, #48]	; (80055b0 <HAL_InitTick+0x40>)
 800557e:	fbb3 f3f1 	udiv	r3, r3, r1
 8005582:	6812      	ldr	r2, [r2, #0]
 8005584:	fbb2 f0f3 	udiv	r0, r2, r3
 8005588:	f000 fc1e 	bl	8005dc8 <HAL_SYSTICK_Config>
 800558c:	b908      	cbnz	r0, 8005592 <HAL_InitTick+0x22>
 800558e:	2d0f      	cmp	r5, #15
 8005590:	d901      	bls.n	8005596 <HAL_InitTick+0x26>
 8005592:	2001      	movs	r0, #1
 8005594:	bd38      	pop	{r3, r4, r5, pc}
 8005596:	4604      	mov	r4, r0
 8005598:	4602      	mov	r2, r0
 800559a:	4629      	mov	r1, r5
 800559c:	f04f 30ff 	mov.w	r0, #4294967295
 80055a0:	f000 fbc6 	bl	8005d30 <HAL_NVIC_SetPriority>
 80055a4:	4b03      	ldr	r3, [pc, #12]	; (80055b4 <HAL_InitTick+0x44>)
 80055a6:	4620      	mov	r0, r4
 80055a8:	601d      	str	r5, [r3, #0]
 80055aa:	bd38      	pop	{r3, r4, r5, pc}
 80055ac:	2000000c 	.word	0x2000000c
 80055b0:	20000008 	.word	0x20000008
 80055b4:	20000010 	.word	0x20000010

080055b8 <HAL_Init>:
 80055b8:	4a07      	ldr	r2, [pc, #28]	; (80055d8 <HAL_Init+0x20>)
 80055ba:	b508      	push	{r3, lr}
 80055bc:	6813      	ldr	r3, [r2, #0]
 80055be:	2003      	movs	r0, #3
 80055c0:	f043 0310 	orr.w	r3, r3, #16
 80055c4:	6013      	str	r3, [r2, #0]
 80055c6:	f000 fba1 	bl	8005d0c <HAL_NVIC_SetPriorityGrouping>
 80055ca:	2000      	movs	r0, #0
 80055cc:	f7ff ffd0 	bl	8005570 <HAL_InitTick>
 80055d0:	f7ff fd2c 	bl	800502c <HAL_MspInit>
 80055d4:	2000      	movs	r0, #0
 80055d6:	bd08      	pop	{r3, pc}
 80055d8:	40022000 	.word	0x40022000

080055dc <HAL_IncTick>:
 80055dc:	4a03      	ldr	r2, [pc, #12]	; (80055ec <HAL_IncTick+0x10>)
 80055de:	4b04      	ldr	r3, [pc, #16]	; (80055f0 <HAL_IncTick+0x14>)
 80055e0:	6811      	ldr	r1, [r2, #0]
 80055e2:	781b      	ldrb	r3, [r3, #0]
 80055e4:	440b      	add	r3, r1
 80055e6:	6013      	str	r3, [r2, #0]
 80055e8:	4770      	bx	lr
 80055ea:	bf00      	nop
 80055ec:	2000041c 	.word	0x2000041c
 80055f0:	2000000c 	.word	0x2000000c

080055f4 <HAL_GetTick>:
 80055f4:	4b01      	ldr	r3, [pc, #4]	; (80055fc <HAL_GetTick+0x8>)
 80055f6:	6818      	ldr	r0, [r3, #0]
 80055f8:	4770      	bx	lr
 80055fa:	bf00      	nop
 80055fc:	2000041c 	.word	0x2000041c

08005600 <HAL_Delay>:
 8005600:	b538      	push	{r3, r4, r5, lr}
 8005602:	4604      	mov	r4, r0
 8005604:	f7ff fff6 	bl	80055f4 <HAL_GetTick>
 8005608:	1c63      	adds	r3, r4, #1
 800560a:	4605      	mov	r5, r0
 800560c:	d002      	beq.n	8005614 <HAL_Delay+0x14>
 800560e:	4b04      	ldr	r3, [pc, #16]	; (8005620 <HAL_Delay+0x20>)
 8005610:	781b      	ldrb	r3, [r3, #0]
 8005612:	441c      	add	r4, r3
 8005614:	f7ff ffee 	bl	80055f4 <HAL_GetTick>
 8005618:	1b40      	subs	r0, r0, r5
 800561a:	42a0      	cmp	r0, r4
 800561c:	d3fa      	bcc.n	8005614 <HAL_Delay+0x14>
 800561e:	bd38      	pop	{r3, r4, r5, pc}
 8005620:	2000000c 	.word	0x2000000c

08005624 <HAL_ADC_Init>:
 8005624:	2800      	cmp	r0, #0
 8005626:	f000 808a 	beq.w	800573e <HAL_ADC_Init+0x11a>
 800562a:	b538      	push	{r3, r4, r5, lr}
 800562c:	6a83      	ldr	r3, [r0, #40]	; 0x28
 800562e:	4604      	mov	r4, r0
 8005630:	2b00      	cmp	r3, #0
 8005632:	d066      	beq.n	8005702 <HAL_ADC_Init+0xde>
 8005634:	6823      	ldr	r3, [r4, #0]
 8005636:	689a      	ldr	r2, [r3, #8]
 8005638:	07d0      	lsls	r0, r2, #31
 800563a:	d443      	bmi.n	80056c4 <HAL_ADC_Init+0xa0>
 800563c:	6aa2      	ldr	r2, [r4, #40]	; 0x28
 800563e:	06d2      	lsls	r2, r2, #27
 8005640:	d459      	bmi.n	80056f6 <HAL_ADC_Init+0xd2>
 8005642:	6aa2      	ldr	r2, [r4, #40]	; 0x28
 8005644:	4954      	ldr	r1, [pc, #336]	; (8005798 <HAL_ADC_Init+0x174>)
 8005646:	f422 5288 	bic.w	r2, r2, #4352	; 0x1100
 800564a:	f022 0202 	bic.w	r2, r2, #2
 800564e:	f042 0202 	orr.w	r2, r2, #2
 8005652:	428b      	cmp	r3, r1
 8005654:	62a2      	str	r2, [r4, #40]	; 0x28
 8005656:	69e1      	ldr	r1, [r4, #28]
 8005658:	6862      	ldr	r2, [r4, #4]
 800565a:	d06a      	beq.n	8005732 <HAL_ADC_Init+0x10e>
 800565c:	7b25      	ldrb	r5, [r4, #12]
 800565e:	ea42 0245 	orr.w	r2, r2, r5, lsl #1
 8005662:	430a      	orrs	r2, r1
 8005664:	68a1      	ldr	r1, [r4, #8]
 8005666:	f5b1 7f80 	cmp.w	r1, #256	; 0x100
 800566a:	d050      	beq.n	800570e <HAL_ADC_Init+0xea>
 800566c:	7d20      	ldrb	r0, [r4, #20]
 800566e:	2901      	cmp	r1, #1
 8005670:	bf0c      	ite	eq
 8005672:	f44f 7c80 	moveq.w	ip, #256	; 0x100
 8005676:	f04f 0c00 	movne.w	ip, #0
 800567a:	2801      	cmp	r0, #1
 800567c:	d06b      	beq.n	8005756 <HAL_ADC_Init+0x132>
 800567e:	6858      	ldr	r0, [r3, #4]
 8005680:	f420 4069 	bic.w	r0, r0, #59648	; 0xe900
 8005684:	ea40 000c 	orr.w	r0, r0, ip
 8005688:	6058      	str	r0, [r3, #4]
 800568a:	689d      	ldr	r5, [r3, #8]
 800568c:	4843      	ldr	r0, [pc, #268]	; (800579c <HAL_ADC_Init+0x178>)
 800568e:	4028      	ands	r0, r5
 8005690:	4310      	orrs	r0, r2
 8005692:	6098      	str	r0, [r3, #8]
 8005694:	2901      	cmp	r1, #1
 8005696:	d048      	beq.n	800572a <HAL_ADC_Init+0x106>
 8005698:	2000      	movs	r0, #0
 800569a:	6ad9      	ldr	r1, [r3, #44]	; 0x2c
 800569c:	f421 0170 	bic.w	r1, r1, #15728640	; 0xf00000
 80056a0:	4301      	orrs	r1, r0
 80056a2:	62d9      	str	r1, [r3, #44]	; 0x2c
 80056a4:	6899      	ldr	r1, [r3, #8]
 80056a6:	4b3e      	ldr	r3, [pc, #248]	; (80057a0 <HAL_ADC_Init+0x17c>)
 80056a8:	400b      	ands	r3, r1
 80056aa:	429a      	cmp	r2, r3
 80056ac:	d049      	beq.n	8005742 <HAL_ADC_Init+0x11e>
 80056ae:	2001      	movs	r0, #1
 80056b0:	6aa3      	ldr	r3, [r4, #40]	; 0x28
 80056b2:	f023 0312 	bic.w	r3, r3, #18
 80056b6:	f043 0310 	orr.w	r3, r3, #16
 80056ba:	62a3      	str	r3, [r4, #40]	; 0x28
 80056bc:	6ae3      	ldr	r3, [r4, #44]	; 0x2c
 80056be:	4303      	orrs	r3, r0
 80056c0:	62e3      	str	r3, [r4, #44]	; 0x2c
 80056c2:	bd38      	pop	{r3, r4, r5, pc}
 80056c4:	689a      	ldr	r2, [r3, #8]
 80056c6:	f022 0201 	bic.w	r2, r2, #1
 80056ca:	609a      	str	r2, [r3, #8]
 80056cc:	f7ff ff92 	bl	80055f4 <HAL_GetTick>
 80056d0:	4605      	mov	r5, r0
 80056d2:	6823      	ldr	r3, [r4, #0]
 80056d4:	689a      	ldr	r2, [r3, #8]
 80056d6:	07d1      	lsls	r1, r2, #31
 80056d8:	d5b0      	bpl.n	800563c <HAL_ADC_Init+0x18>
 80056da:	f7ff ff8b 	bl	80055f4 <HAL_GetTick>
 80056de:	1b40      	subs	r0, r0, r5
 80056e0:	2802      	cmp	r0, #2
 80056e2:	d9f6      	bls.n	80056d2 <HAL_ADC_Init+0xae>
 80056e4:	6aa3      	ldr	r3, [r4, #40]	; 0x28
 80056e6:	f043 0310 	orr.w	r3, r3, #16
 80056ea:	62a3      	str	r3, [r4, #40]	; 0x28
 80056ec:	6ae3      	ldr	r3, [r4, #44]	; 0x2c
 80056ee:	f043 0301 	orr.w	r3, r3, #1
 80056f2:	62e3      	str	r3, [r4, #44]	; 0x2c
 80056f4:	6aa3      	ldr	r3, [r4, #40]	; 0x28
 80056f6:	6aa3      	ldr	r3, [r4, #40]	; 0x28
 80056f8:	2001      	movs	r0, #1
 80056fa:	f043 0310 	orr.w	r3, r3, #16
 80056fe:	62a3      	str	r3, [r4, #40]	; 0x28
 8005700:	bd38      	pop	{r3, r4, r5, pc}
 8005702:	62c3      	str	r3, [r0, #44]	; 0x2c
 8005704:	f880 3024 	strb.w	r3, [r0, #36]	; 0x24
 8005708:	f7ff fcb2 	bl	8005070 <HAL_ADC_MspInit>
 800570c:	e792      	b.n	8005634 <HAL_ADC_Init+0x10>
 800570e:	7d20      	ldrb	r0, [r4, #20]
 8005710:	2801      	cmp	r0, #1
 8005712:	d01f      	beq.n	8005754 <HAL_ADC_Init+0x130>
 8005714:	6858      	ldr	r0, [r3, #4]
 8005716:	4921      	ldr	r1, [pc, #132]	; (800579c <HAL_ADC_Init+0x178>)
 8005718:	f420 4069 	bic.w	r0, r0, #59648	; 0xe900
 800571c:	f440 7080 	orr.w	r0, r0, #256	; 0x100
 8005720:	6058      	str	r0, [r3, #4]
 8005722:	6898      	ldr	r0, [r3, #8]
 8005724:	4001      	ands	r1, r0
 8005726:	4311      	orrs	r1, r2
 8005728:	6099      	str	r1, [r3, #8]
 800572a:	6921      	ldr	r1, [r4, #16]
 800572c:	3901      	subs	r1, #1
 800572e:	0508      	lsls	r0, r1, #20
 8005730:	e7b3      	b.n	800569a <HAL_ADC_Init+0x76>
 8005732:	f5b1 2f40 	cmp.w	r1, #786432	; 0xc0000
 8005736:	bf08      	it	eq
 8005738:	f44f 2100 	moveq.w	r1, #524288	; 0x80000
 800573c:	e78e      	b.n	800565c <HAL_ADC_Init+0x38>
 800573e:	2001      	movs	r0, #1
 8005740:	4770      	bx	lr
 8005742:	2000      	movs	r0, #0
 8005744:	62e0      	str	r0, [r4, #44]	; 0x2c
 8005746:	6aa3      	ldr	r3, [r4, #40]	; 0x28
 8005748:	f023 0303 	bic.w	r3, r3, #3
 800574c:	f043 0301 	orr.w	r3, r3, #1
 8005750:	62a3      	str	r3, [r4, #40]	; 0x28
 8005752:	bd38      	pop	{r3, r4, r5, pc}
 8005754:	468c      	mov	ip, r1
 8005756:	b1c5      	cbz	r5, 800578a <HAL_ADC_Init+0x166>
 8005758:	6aa0      	ldr	r0, [r4, #40]	; 0x28
 800575a:	f040 0020 	orr.w	r0, r0, #32
 800575e:	62a0      	str	r0, [r4, #40]	; 0x28
 8005760:	6ae0      	ldr	r0, [r4, #44]	; 0x2c
 8005762:	f040 0001 	orr.w	r0, r0, #1
 8005766:	62e0      	str	r0, [r4, #44]	; 0x2c
 8005768:	6858      	ldr	r0, [r3, #4]
 800576a:	f5b1 7f80 	cmp.w	r1, #256	; 0x100
 800576e:	f420 4069 	bic.w	r0, r0, #59648	; 0xe900
 8005772:	ea40 000c 	orr.w	r0, r0, ip
 8005776:	6058      	str	r0, [r3, #4]
 8005778:	689d      	ldr	r5, [r3, #8]
 800577a:	4808      	ldr	r0, [pc, #32]	; (800579c <HAL_ADC_Init+0x178>)
 800577c:	ea00 0005 	and.w	r0, r0, r5
 8005780:	ea40 0002 	orr.w	r0, r0, r2
 8005784:	6098      	str	r0, [r3, #8]
 8005786:	d185      	bne.n	8005694 <HAL_ADC_Init+0x70>
 8005788:	e7cf      	b.n	800572a <HAL_ADC_Init+0x106>
 800578a:	69a0      	ldr	r0, [r4, #24]
 800578c:	3801      	subs	r0, #1
 800578e:	ea4c 3040 	orr.w	r0, ip, r0, lsl #13
 8005792:	f440 6c00 	orr.w	ip, r0, #2048	; 0x800
 8005796:	e7e7      	b.n	8005768 <HAL_ADC_Init+0x144>
 8005798:	40013c00 	.word	0x40013c00
 800579c:	ffe1f7fd 	.word	0xffe1f7fd
 80057a0:	ff1f0efe 	.word	0xff1f0efe

080057a4 <HAL_ADC_Stop>:
 80057a4:	b538      	push	{r3, r4, r5, lr}
 80057a6:	f890 3024 	ldrb.w	r3, [r0, #36]	; 0x24
 80057aa:	2b01      	cmp	r3, #1
 80057ac:	d02d      	beq.n	800580a <HAL_ADC_Stop+0x66>
 80057ae:	2201      	movs	r2, #1
 80057b0:	6803      	ldr	r3, [r0, #0]
 80057b2:	f880 2024 	strb.w	r2, [r0, #36]	; 0x24
 80057b6:	689a      	ldr	r2, [r3, #8]
 80057b8:	4604      	mov	r4, r0
 80057ba:	07d2      	lsls	r2, r2, #31
 80057bc:	d40c      	bmi.n	80057d8 <HAL_ADC_Stop+0x34>
 80057be:	2000      	movs	r0, #0
 80057c0:	6aa3      	ldr	r3, [r4, #40]	; 0x28
 80057c2:	f423 5388 	bic.w	r3, r3, #4352	; 0x1100
 80057c6:	f023 0301 	bic.w	r3, r3, #1
 80057ca:	f043 0301 	orr.w	r3, r3, #1
 80057ce:	62a3      	str	r3, [r4, #40]	; 0x28
 80057d0:	2300      	movs	r3, #0
 80057d2:	f884 3024 	strb.w	r3, [r4, #36]	; 0x24
 80057d6:	bd38      	pop	{r3, r4, r5, pc}
 80057d8:	689a      	ldr	r2, [r3, #8]
 80057da:	f022 0201 	bic.w	r2, r2, #1
 80057de:	609a      	str	r2, [r3, #8]
 80057e0:	f7ff ff08 	bl	80055f4 <HAL_GetTick>
 80057e4:	4605      	mov	r5, r0
 80057e6:	6823      	ldr	r3, [r4, #0]
 80057e8:	689b      	ldr	r3, [r3, #8]
 80057ea:	07db      	lsls	r3, r3, #31
 80057ec:	d5e7      	bpl.n	80057be <HAL_ADC_Stop+0x1a>
 80057ee:	f7ff ff01 	bl	80055f4 <HAL_GetTick>
 80057f2:	1b40      	subs	r0, r0, r5
 80057f4:	2802      	cmp	r0, #2
 80057f6:	d9f6      	bls.n	80057e6 <HAL_ADC_Stop+0x42>
 80057f8:	2001      	movs	r0, #1
 80057fa:	6aa3      	ldr	r3, [r4, #40]	; 0x28
 80057fc:	f043 0310 	orr.w	r3, r3, #16
 8005800:	62a3      	str	r3, [r4, #40]	; 0x28
 8005802:	6ae3      	ldr	r3, [r4, #44]	; 0x2c
 8005804:	4303      	orrs	r3, r0
 8005806:	62e3      	str	r3, [r4, #44]	; 0x2c
 8005808:	e7e2      	b.n	80057d0 <HAL_ADC_Stop+0x2c>
 800580a:	2002      	movs	r0, #2
 800580c:	bd38      	pop	{r3, r4, r5, pc}
 800580e:	bf00      	nop

08005810 <HAL_ADC_PollForConversion>:
 8005810:	e92d 41f0 	stmdb	sp!, {r4, r5, r6, r7, r8, lr}
 8005814:	4605      	mov	r5, r0
 8005816:	2600      	movs	r6, #0
 8005818:	b082      	sub	sp, #8
 800581a:	460c      	mov	r4, r1
 800581c:	9601      	str	r6, [sp, #4]
 800581e:	f7ff fee9 	bl	80055f4 <HAL_GetTick>
 8005822:	682b      	ldr	r3, [r5, #0]
 8005824:	689a      	ldr	r2, [r3, #8]
 8005826:	05d1      	lsls	r1, r2, #23
 8005828:	d46f      	bmi.n	800590a <HAL_ADC_PollForConversion+0xfa>
 800582a:	685a      	ldr	r2, [r3, #4]
 800582c:	4607      	mov	r7, r0
 800582e:	05d2      	lsls	r2, r2, #23
 8005830:	d419      	bmi.n	8005866 <HAL_ADC_PollForConversion+0x56>
 8005832:	6ada      	ldr	r2, [r3, #44]	; 0x2c
 8005834:	f412 0f70 	tst.w	r2, #15728640	; 0xf00000
 8005838:	d115      	bne.n	8005866 <HAL_ADC_PollForConversion+0x56>
 800583a:	1c66      	adds	r6, r4, #1
 800583c:	d16f      	bne.n	800591e <HAL_ADC_PollForConversion+0x10e>
 800583e:	681a      	ldr	r2, [r3, #0]
 8005840:	0794      	lsls	r4, r2, #30
 8005842:	d5fc      	bpl.n	800583e <HAL_ADC_PollForConversion+0x2e>
 8005844:	f06f 0212 	mvn.w	r2, #18
 8005848:	601a      	str	r2, [r3, #0]
 800584a:	6aaa      	ldr	r2, [r5, #40]	; 0x28
 800584c:	f442 7200 	orr.w	r2, r2, #512	; 0x200
 8005850:	62aa      	str	r2, [r5, #40]	; 0x28
 8005852:	689b      	ldr	r3, [r3, #8]
 8005854:	f403 2360 	and.w	r3, r3, #917504	; 0xe0000
 8005858:	f5b3 2f60 	cmp.w	r3, #917504	; 0xe0000
 800585c:	d075      	beq.n	800594a <HAL_ADC_PollForConversion+0x13a>
 800585e:	2000      	movs	r0, #0
 8005860:	b002      	add	sp, #8
 8005862:	e8bd 81f0 	ldmia.w	sp!, {r4, r5, r6, r7, r8, pc}
 8005866:	4b43      	ldr	r3, [pc, #268]	; (8005974 <HAL_ADC_PollForConversion+0x164>)
 8005868:	2002      	movs	r0, #2
 800586a:	f8d3 8000 	ldr.w	r8, [r3]
 800586e:	f002 f96f 	bl	8007b50 <HAL_RCCEx_GetPeriphCLKFreq>
 8005872:	682a      	ldr	r2, [r5, #0]
 8005874:	4940      	ldr	r1, [pc, #256]	; (8005978 <HAL_ADC_PollForConversion+0x168>)
 8005876:	6916      	ldr	r6, [r2, #16]
 8005878:	4613      	mov	r3, r2
 800587a:	420e      	tst	r6, r1
 800587c:	fbb8 f0f0 	udiv	r0, r8, r0
 8005880:	d110      	bne.n	80058a4 <HAL_ADC_PollForConversion+0x94>
 8005882:	68d6      	ldr	r6, [r2, #12]
 8005884:	f101 415c 	add.w	r1, r1, #3690987520	; 0xdc000000
 8005888:	420e      	tst	r6, r1
 800588a:	d10b      	bne.n	80058a4 <HAL_ADC_PollForConversion+0x94>
 800588c:	6916      	ldr	r6, [r2, #16]
 800588e:	493b      	ldr	r1, [pc, #236]	; (800597c <HAL_ADC_PollForConversion+0x16c>)
 8005890:	420e      	tst	r6, r1
 8005892:	d16d      	bne.n	8005970 <HAL_ADC_PollForConversion+0x160>
 8005894:	68d6      	ldr	r6, [r2, #12]
 8005896:	f101 416e 	add.w	r1, r1, #3992977408	; 0xee000000
 800589a:	420e      	tst	r6, r1
 800589c:	bf14      	ite	ne
 800589e:	2629      	movne	r6, #41	; 0x29
 80058a0:	2614      	moveq	r6, #20
 80058a2:	e009      	b.n	80058b8 <HAL_ADC_PollForConversion+0xa8>
 80058a4:	6916      	ldr	r6, [r2, #16]
 80058a6:	4935      	ldr	r1, [pc, #212]	; (800597c <HAL_ADC_PollForConversion+0x16c>)
 80058a8:	420e      	tst	r6, r1
 80058aa:	d124      	bne.n	80058f6 <HAL_ADC_PollForConversion+0xe6>
 80058ac:	68d6      	ldr	r6, [r2, #12]
 80058ae:	f101 416e 	add.w	r1, r1, #3992977408	; 0xee000000
 80058b2:	420e      	tst	r6, r1
 80058b4:	d11f      	bne.n	80058f6 <HAL_ADC_PollForConversion+0xe6>
 80058b6:	2654      	movs	r6, #84	; 0x54
 80058b8:	fb00 f606 	mul.w	r6, r0, r6
 80058bc:	9901      	ldr	r1, [sp, #4]
 80058be:	428e      	cmp	r6, r1
 80058c0:	d9c0      	bls.n	8005844 <HAL_ADC_PollForConversion+0x34>
 80058c2:	1c61      	adds	r1, r4, #1
 80058c4:	d037      	beq.n	8005936 <HAL_ADC_PollForConversion+0x126>
 80058c6:	b934      	cbnz	r4, 80058d6 <HAL_ADC_PollForConversion+0xc6>
 80058c8:	e00a      	b.n	80058e0 <HAL_ADC_PollForConversion+0xd0>
 80058ca:	9b01      	ldr	r3, [sp, #4]
 80058cc:	3301      	adds	r3, #1
 80058ce:	9301      	str	r3, [sp, #4]
 80058d0:	9b01      	ldr	r3, [sp, #4]
 80058d2:	429e      	cmp	r6, r3
 80058d4:	d949      	bls.n	800596a <HAL_ADC_PollForConversion+0x15a>
 80058d6:	f7ff fe8d 	bl	80055f4 <HAL_GetTick>
 80058da:	1bc3      	subs	r3, r0, r7
 80058dc:	429c      	cmp	r4, r3
 80058de:	d2f4      	bcs.n	80058ca <HAL_ADC_PollForConversion+0xba>
 80058e0:	2200      	movs	r2, #0
 80058e2:	2003      	movs	r0, #3
 80058e4:	6aab      	ldr	r3, [r5, #40]	; 0x28
 80058e6:	f885 2024 	strb.w	r2, [r5, #36]	; 0x24
 80058ea:	f043 0304 	orr.w	r3, r3, #4
 80058ee:	62ab      	str	r3, [r5, #40]	; 0x28
 80058f0:	b002      	add	sp, #8
 80058f2:	e8bd 81f0 	ldmia.w	sp!, {r4, r5, r6, r7, r8, pc}
 80058f6:	6916      	ldr	r6, [r2, #16]
 80058f8:	4921      	ldr	r1, [pc, #132]	; (8005980 <HAL_ADC_PollForConversion+0x170>)
 80058fa:	420e      	tst	r6, r1
 80058fc:	d123      	bne.n	8005946 <HAL_ADC_PollForConversion+0x136>
 80058fe:	68d6      	ldr	r6, [r2, #12]
 8005900:	420e      	tst	r6, r1
 8005902:	bf14      	ite	ne
 8005904:	26fc      	movne	r6, #252	; 0xfc
 8005906:	2654      	moveq	r6, #84	; 0x54
 8005908:	e7d6      	b.n	80058b8 <HAL_ADC_PollForConversion+0xa8>
 800590a:	2001      	movs	r0, #1
 800590c:	6aab      	ldr	r3, [r5, #40]	; 0x28
 800590e:	f885 6024 	strb.w	r6, [r5, #36]	; 0x24
 8005912:	f043 0320 	orr.w	r3, r3, #32
 8005916:	62ab      	str	r3, [r5, #40]	; 0x28
 8005918:	b002      	add	sp, #8
 800591a:	e8bd 81f0 	ldmia.w	sp!, {r4, r5, r6, r7, r8, pc}
 800591e:	681a      	ldr	r2, [r3, #0]
 8005920:	0790      	lsls	r0, r2, #30
 8005922:	d48f      	bmi.n	8005844 <HAL_ADC_PollForConversion+0x34>
 8005924:	2c00      	cmp	r4, #0
 8005926:	d0db      	beq.n	80058e0 <HAL_ADC_PollForConversion+0xd0>
 8005928:	f7ff fe64 	bl	80055f4 <HAL_GetTick>
 800592c:	1bc0      	subs	r0, r0, r7
 800592e:	42a0      	cmp	r0, r4
 8005930:	d8d6      	bhi.n	80058e0 <HAL_ADC_PollForConversion+0xd0>
 8005932:	682b      	ldr	r3, [r5, #0]
 8005934:	e781      	b.n	800583a <HAL_ADC_PollForConversion+0x2a>
 8005936:	9b01      	ldr	r3, [sp, #4]
 8005938:	3301      	adds	r3, #1
 800593a:	9301      	str	r3, [sp, #4]
 800593c:	9b01      	ldr	r3, [sp, #4]
 800593e:	429e      	cmp	r6, r3
 8005940:	d8f9      	bhi.n	8005936 <HAL_ADC_PollForConversion+0x126>
 8005942:	4613      	mov	r3, r2
 8005944:	e77e      	b.n	8005844 <HAL_ADC_PollForConversion+0x34>
 8005946:	26fc      	movs	r6, #252	; 0xfc
 8005948:	e7b6      	b.n	80058b8 <HAL_ADC_PollForConversion+0xa8>
 800594a:	7b28      	ldrb	r0, [r5, #12]
 800594c:	2800      	cmp	r0, #0
 800594e:	d186      	bne.n	800585e <HAL_ADC_PollForConversion+0x4e>
 8005950:	6aab      	ldr	r3, [r5, #40]	; 0x28
 8005952:	f423 7380 	bic.w	r3, r3, #256	; 0x100
 8005956:	62ab      	str	r3, [r5, #40]	; 0x28
 8005958:	6aab      	ldr	r3, [r5, #40]	; 0x28
 800595a:	04db      	lsls	r3, r3, #19
 800595c:	f53f af7f 	bmi.w	800585e <HAL_ADC_PollForConversion+0x4e>
 8005960:	6aab      	ldr	r3, [r5, #40]	; 0x28
 8005962:	f043 0301 	orr.w	r3, r3, #1
 8005966:	62ab      	str	r3, [r5, #40]	; 0x28
 8005968:	e77a      	b.n	8005860 <HAL_ADC_PollForConversion+0x50>
 800596a:	682a      	ldr	r2, [r5, #0]
 800596c:	4613      	mov	r3, r2
 800596e:	e769      	b.n	8005844 <HAL_ADC_PollForConversion+0x34>
 8005970:	2629      	movs	r6, #41	; 0x29
 8005972:	e7a1      	b.n	80058b8 <HAL_ADC_PollForConversion+0xa8>
 8005974:	20000008 	.word	0x20000008
 8005978:	24924924 	.word	0x24924924
 800597c:	12492492 	.word	0x12492492
 8005980:	00249249 	.word	0x00249249

08005984 <HAL_ADC_GetValue>:
 8005984:	6803      	ldr	r3, [r0, #0]
 8005986:	6cd8      	ldr	r0, [r3, #76]	; 0x4c
 8005988:	4770      	bx	lr
 800598a:	bf00      	nop

0800598c <HAL_ADC_ConvCpltCallback>:
 800598c:	4770      	bx	lr
 800598e:	bf00      	nop

08005990 <HAL_ADC_LevelOutOfWindowCallback>:
 8005990:	4770      	bx	lr
 8005992:	bf00      	nop

08005994 <HAL_ADC_IRQHandler>:
 8005994:	6803      	ldr	r3, [r0, #0]
 8005996:	b510      	push	{r4, lr}
 8005998:	685a      	ldr	r2, [r3, #4]
 800599a:	4604      	mov	r4, r0
 800599c:	0690      	lsls	r0, r2, #26
 800599e:	d502      	bpl.n	80059a6 <HAL_ADC_IRQHandler+0x12>
 80059a0:	681a      	ldr	r2, [r3, #0]
 80059a2:	0791      	lsls	r1, r2, #30
 80059a4:	d42a      	bmi.n	80059fc <HAL_ADC_IRQHandler+0x68>
 80059a6:	685a      	ldr	r2, [r3, #4]
 80059a8:	0610      	lsls	r0, r2, #24
 80059aa:	d502      	bpl.n	80059b2 <HAL_ADC_IRQHandler+0x1e>
 80059ac:	681a      	ldr	r2, [r3, #0]
 80059ae:	0751      	lsls	r1, r2, #29
 80059b0:	d406      	bmi.n	80059c0 <HAL_ADC_IRQHandler+0x2c>
 80059b2:	685a      	ldr	r2, [r3, #4]
 80059b4:	0652      	lsls	r2, r2, #25
 80059b6:	d502      	bpl.n	80059be <HAL_ADC_IRQHandler+0x2a>
 80059b8:	681b      	ldr	r3, [r3, #0]
 80059ba:	07db      	lsls	r3, r3, #31
 80059bc:	d433      	bmi.n	8005a26 <HAL_ADC_IRQHandler+0x92>
 80059be:	bd10      	pop	{r4, pc}
 80059c0:	6aa2      	ldr	r2, [r4, #40]	; 0x28
 80059c2:	06d2      	lsls	r2, r2, #27
 80059c4:	d403      	bmi.n	80059ce <HAL_ADC_IRQHandler+0x3a>
 80059c6:	6aa2      	ldr	r2, [r4, #40]	; 0x28
 80059c8:	f442 5200 	orr.w	r2, r2, #8192	; 0x2000
 80059cc:	62a2      	str	r2, [r4, #40]	; 0x28
 80059ce:	689a      	ldr	r2, [r3, #8]
 80059d0:	f402 42e0 	and.w	r2, r2, #28672	; 0x7000
 80059d4:	f5b2 4fe0 	cmp.w	r2, #28672	; 0x7000
 80059d8:	d034      	beq.n	8005a44 <HAL_ADC_IRQHandler+0xb0>
 80059da:	685a      	ldr	r2, [r3, #4]
 80059dc:	0550      	lsls	r0, r2, #21
 80059de:	d405      	bmi.n	80059ec <HAL_ADC_IRQHandler+0x58>
 80059e0:	689a      	ldr	r2, [r3, #8]
 80059e2:	f402 2260 	and.w	r2, r2, #917504	; 0xe0000
 80059e6:	f5b2 2f60 	cmp.w	r2, #917504	; 0xe0000
 80059ea:	d028      	beq.n	8005a3e <HAL_ADC_IRQHandler+0xaa>
 80059ec:	4620      	mov	r0, r4
 80059ee:	f000 f98b 	bl	8005d08 <HAL_ADCEx_InjectedConvCpltCallback>
 80059f2:	f06f 020c 	mvn.w	r2, #12
 80059f6:	6823      	ldr	r3, [r4, #0]
 80059f8:	601a      	str	r2, [r3, #0]
 80059fa:	e7da      	b.n	80059b2 <HAL_ADC_IRQHandler+0x1e>
 80059fc:	6aa2      	ldr	r2, [r4, #40]	; 0x28
 80059fe:	06d2      	lsls	r2, r2, #27
 8005a00:	d403      	bmi.n	8005a0a <HAL_ADC_IRQHandler+0x76>
 8005a02:	6aa2      	ldr	r2, [r4, #40]	; 0x28
 8005a04:	f442 7200 	orr.w	r2, r2, #512	; 0x200
 8005a08:	62a2      	str	r2, [r4, #40]	; 0x28
 8005a0a:	689a      	ldr	r2, [r3, #8]
 8005a0c:	f402 2260 	and.w	r2, r2, #917504	; 0xe0000
 8005a10:	f5b2 2f60 	cmp.w	r2, #917504	; 0xe0000
 8005a14:	d026      	beq.n	8005a64 <HAL_ADC_IRQHandler+0xd0>
 8005a16:	4620      	mov	r0, r4
 8005a18:	f7ff ffb8 	bl	800598c <HAL_ADC_ConvCpltCallback>
 8005a1c:	f06f 0212 	mvn.w	r2, #18
 8005a20:	6823      	ldr	r3, [r4, #0]
 8005a22:	601a      	str	r2, [r3, #0]
 8005a24:	e7bf      	b.n	80059a6 <HAL_ADC_IRQHandler+0x12>
 8005a26:	6aa3      	ldr	r3, [r4, #40]	; 0x28
 8005a28:	4620      	mov	r0, r4
 8005a2a:	f443 3380 	orr.w	r3, r3, #65536	; 0x10000
 8005a2e:	62a3      	str	r3, [r4, #40]	; 0x28
 8005a30:	f7ff ffae 	bl	8005990 <HAL_ADC_LevelOutOfWindowCallback>
 8005a34:	f06f 0201 	mvn.w	r2, #1
 8005a38:	6823      	ldr	r3, [r4, #0]
 8005a3a:	601a      	str	r2, [r3, #0]
 8005a3c:	bd10      	pop	{r4, pc}
 8005a3e:	7b22      	ldrb	r2, [r4, #12]
 8005a40:	2a00      	cmp	r2, #0
 8005a42:	d1d3      	bne.n	80059ec <HAL_ADC_IRQHandler+0x58>
 8005a44:	685a      	ldr	r2, [r3, #4]
 8005a46:	f022 0280 	bic.w	r2, r2, #128	; 0x80
 8005a4a:	605a      	str	r2, [r3, #4]
 8005a4c:	6aa3      	ldr	r3, [r4, #40]	; 0x28
 8005a4e:	f423 5380 	bic.w	r3, r3, #4096	; 0x1000
 8005a52:	62a3      	str	r3, [r4, #40]	; 0x28
 8005a54:	6aa3      	ldr	r3, [r4, #40]	; 0x28
 8005a56:	05d9      	lsls	r1, r3, #23
 8005a58:	d4c8      	bmi.n	80059ec <HAL_ADC_IRQHandler+0x58>
 8005a5a:	6aa3      	ldr	r3, [r4, #40]	; 0x28
 8005a5c:	f043 0301 	orr.w	r3, r3, #1
 8005a60:	62a3      	str	r3, [r4, #40]	; 0x28
 8005a62:	e7c3      	b.n	80059ec <HAL_ADC_IRQHandler+0x58>
 8005a64:	7b22      	ldrb	r2, [r4, #12]
 8005a66:	2a00      	cmp	r2, #0
 8005a68:	d1d5      	bne.n	8005a16 <HAL_ADC_IRQHandler+0x82>
 8005a6a:	685a      	ldr	r2, [r3, #4]
 8005a6c:	f022 0220 	bic.w	r2, r2, #32
 8005a70:	605a      	str	r2, [r3, #4]
 8005a72:	6aa3      	ldr	r3, [r4, #40]	; 0x28
 8005a74:	f423 7380 	bic.w	r3, r3, #256	; 0x100
 8005a78:	62a3      	str	r3, [r4, #40]	; 0x28
 8005a7a:	6aa3      	ldr	r3, [r4, #40]	; 0x28
 8005a7c:	04db      	lsls	r3, r3, #19
 8005a7e:	d4ca      	bmi.n	8005a16 <HAL_ADC_IRQHandler+0x82>
 8005a80:	6aa3      	ldr	r3, [r4, #40]	; 0x28
 8005a82:	f043 0301 	orr.w	r3, r3, #1
 8005a86:	62a3      	str	r3, [r4, #40]	; 0x28
 8005a88:	e7c5      	b.n	8005a16 <HAL_ADC_IRQHandler+0x82>
 8005a8a:	bf00      	nop

08005a8c <HAL_ADC_ConfigChannel>:
 8005a8c:	2300      	movs	r3, #0
 8005a8e:	b530      	push	{r4, r5, lr}
 8005a90:	b083      	sub	sp, #12
 8005a92:	9301      	str	r3, [sp, #4]
 8005a94:	f890 3024 	ldrb.w	r3, [r0, #36]	; 0x24
 8005a98:	2b01      	cmp	r3, #1
 8005a9a:	d074      	beq.n	8005b86 <HAL_ADC_ConfigChannel+0xfa>
 8005a9c:	2301      	movs	r3, #1
 8005a9e:	f880 3024 	strb.w	r3, [r0, #36]	; 0x24
 8005aa2:	684b      	ldr	r3, [r1, #4]
 8005aa4:	4602      	mov	r2, r0
 8005aa6:	2b06      	cmp	r3, #6
 8005aa8:	6804      	ldr	r4, [r0, #0]
 8005aaa:	d932      	bls.n	8005b12 <HAL_ADC_ConfigChannel+0x86>
 8005aac:	2b0c      	cmp	r3, #12
 8005aae:	eb03 0383 	add.w	r3, r3, r3, lsl #2
 8005ab2:	d84e      	bhi.n	8005b52 <HAL_ADC_ConfigChannel+0xc6>
 8005ab4:	f04f 0c1f 	mov.w	ip, #31
 8005ab8:	6808      	ldr	r0, [r1, #0]
 8005aba:	6b25      	ldr	r5, [r4, #48]	; 0x30
 8005abc:	3b23      	subs	r3, #35	; 0x23
 8005abe:	fa00 fe03 	lsl.w	lr, r0, r3
 8005ac2:	fa0c f303 	lsl.w	r3, ip, r3
 8005ac6:	ea25 0303 	bic.w	r3, r5, r3
 8005aca:	ea43 030e 	orr.w	r3, r3, lr
 8005ace:	6323      	str	r3, [r4, #48]	; 0x30
 8005ad0:	2809      	cmp	r0, #9
 8005ad2:	d930      	bls.n	8005b36 <HAL_ADC_ConfigChannel+0xaa>
 8005ad4:	f04f 0c07 	mov.w	ip, #7
 8005ad8:	688d      	ldr	r5, [r1, #8]
 8005ada:	eb00 0140 	add.w	r1, r0, r0, lsl #1
 8005ade:	68e3      	ldr	r3, [r4, #12]
 8005ae0:	391e      	subs	r1, #30
 8005ae2:	408d      	lsls	r5, r1
 8005ae4:	fa0c f101 	lsl.w	r1, ip, r1
 8005ae8:	ea23 0301 	bic.w	r3, r3, r1
 8005aec:	f1a0 0110 	sub.w	r1, r0, #16
 8005af0:	432b      	orrs	r3, r5
 8005af2:	2901      	cmp	r1, #1
 8005af4:	60e3      	str	r3, [r4, #12]
 8005af6:	d844      	bhi.n	8005b82 <HAL_ADC_ConfigChannel+0xf6>
 8005af8:	4b2e      	ldr	r3, [pc, #184]	; (8005bb4 <HAL_ADC_ConfigChannel+0x128>)
 8005afa:	429c      	cmp	r4, r3
 8005afc:	d038      	beq.n	8005b70 <HAL_ADC_ConfigChannel+0xe4>
 8005afe:	2001      	movs	r0, #1
 8005b00:	6a93      	ldr	r3, [r2, #40]	; 0x28
 8005b02:	f043 0320 	orr.w	r3, r3, #32
 8005b06:	6293      	str	r3, [r2, #40]	; 0x28
 8005b08:	2300      	movs	r3, #0
 8005b0a:	f882 3024 	strb.w	r3, [r2, #36]	; 0x24
 8005b0e:	b003      	add	sp, #12
 8005b10:	bd30      	pop	{r4, r5, pc}
 8005b12:	f04f 0c1f 	mov.w	ip, #31
 8005b16:	6808      	ldr	r0, [r1, #0]
 8005b18:	eb03 0383 	add.w	r3, r3, r3, lsl #2
 8005b1c:	6b65      	ldr	r5, [r4, #52]	; 0x34
 8005b1e:	3b05      	subs	r3, #5
 8005b20:	fa00 fe03 	lsl.w	lr, r0, r3
 8005b24:	fa0c f303 	lsl.w	r3, ip, r3
 8005b28:	ea25 0303 	bic.w	r3, r5, r3
 8005b2c:	ea43 030e 	orr.w	r3, r3, lr
 8005b30:	2809      	cmp	r0, #9
 8005b32:	6363      	str	r3, [r4, #52]	; 0x34
 8005b34:	d8ce      	bhi.n	8005ad4 <HAL_ADC_ConfigChannel+0x48>
 8005b36:	2507      	movs	r5, #7
 8005b38:	6889      	ldr	r1, [r1, #8]
 8005b3a:	6923      	ldr	r3, [r4, #16]
 8005b3c:	eb00 0040 	add.w	r0, r0, r0, lsl #1
 8005b40:	4081      	lsls	r1, r0
 8005b42:	fa05 f000 	lsl.w	r0, r5, r0
 8005b46:	ea23 0300 	bic.w	r3, r3, r0
 8005b4a:	430b      	orrs	r3, r1
 8005b4c:	2000      	movs	r0, #0
 8005b4e:	6123      	str	r3, [r4, #16]
 8005b50:	e7da      	b.n	8005b08 <HAL_ADC_ConfigChannel+0x7c>
 8005b52:	f04f 0c1f 	mov.w	ip, #31
 8005b56:	6808      	ldr	r0, [r1, #0]
 8005b58:	6ae5      	ldr	r5, [r4, #44]	; 0x2c
 8005b5a:	3b41      	subs	r3, #65	; 0x41
 8005b5c:	fa00 fe03 	lsl.w	lr, r0, r3
 8005b60:	fa0c f303 	lsl.w	r3, ip, r3
 8005b64:	ea25 0303 	bic.w	r3, r5, r3
 8005b68:	ea43 030e 	orr.w	r3, r3, lr
 8005b6c:	62e3      	str	r3, [r4, #44]	; 0x2c
 8005b6e:	e7af      	b.n	8005ad0 <HAL_ADC_ConfigChannel+0x44>
 8005b70:	68a3      	ldr	r3, [r4, #8]
 8005b72:	021b      	lsls	r3, r3, #8
 8005b74:	d405      	bmi.n	8005b82 <HAL_ADC_ConfigChannel+0xf6>
 8005b76:	68a3      	ldr	r3, [r4, #8]
 8005b78:	2810      	cmp	r0, #16
 8005b7a:	f443 0300 	orr.w	r3, r3, #8388608	; 0x800000
 8005b7e:	60a3      	str	r3, [r4, #8]
 8005b80:	d004      	beq.n	8005b8c <HAL_ADC_ConfigChannel+0x100>
 8005b82:	2000      	movs	r0, #0
 8005b84:	e7c0      	b.n	8005b08 <HAL_ADC_ConfigChannel+0x7c>
 8005b86:	2002      	movs	r0, #2
 8005b88:	b003      	add	sp, #12
 8005b8a:	bd30      	pop	{r4, r5, pc}
 8005b8c:	4b0a      	ldr	r3, [pc, #40]	; (8005bb8 <HAL_ADC_ConfigChannel+0x12c>)
 8005b8e:	490b      	ldr	r1, [pc, #44]	; (8005bbc <HAL_ADC_ConfigChannel+0x130>)
 8005b90:	681b      	ldr	r3, [r3, #0]
 8005b92:	fba1 1303 	umull	r1, r3, r1, r3
 8005b96:	0c9b      	lsrs	r3, r3, #18
 8005b98:	eb03 0383 	add.w	r3, r3, r3, lsl #2
 8005b9c:	005b      	lsls	r3, r3, #1
 8005b9e:	9301      	str	r3, [sp, #4]
 8005ba0:	9b01      	ldr	r3, [sp, #4]
 8005ba2:	2b00      	cmp	r3, #0
 8005ba4:	d0ed      	beq.n	8005b82 <HAL_ADC_ConfigChannel+0xf6>
 8005ba6:	9b01      	ldr	r3, [sp, #4]
 8005ba8:	3b01      	subs	r3, #1
 8005baa:	9301      	str	r3, [sp, #4]
 8005bac:	9b01      	ldr	r3, [sp, #4]
 8005bae:	2b00      	cmp	r3, #0
 8005bb0:	d1f9      	bne.n	8005ba6 <HAL_ADC_ConfigChannel+0x11a>
 8005bb2:	e7e6      	b.n	8005b82 <HAL_ADC_ConfigChannel+0xf6>
 8005bb4:	40012400 	.word	0x40012400
 8005bb8:	20000008 	.word	0x20000008
 8005bbc:	431bde83 	.word	0x431bde83

08005bc0 <ADC_Enable>:
 8005bc0:	2300      	movs	r3, #0
 8005bc2:	b570      	push	{r4, r5, r6, lr}
 8005bc4:	6802      	ldr	r2, [r0, #0]
 8005bc6:	b082      	sub	sp, #8
 8005bc8:	9301      	str	r3, [sp, #4]
 8005bca:	6893      	ldr	r3, [r2, #8]
 8005bcc:	07db      	lsls	r3, r3, #31
 8005bce:	d421      	bmi.n	8005c14 <ADC_Enable+0x54>
 8005bd0:	4b18      	ldr	r3, [pc, #96]	; (8005c34 <ADC_Enable+0x74>)
 8005bd2:	4605      	mov	r5, r0
 8005bd4:	681b      	ldr	r3, [r3, #0]
 8005bd6:	4818      	ldr	r0, [pc, #96]	; (8005c38 <ADC_Enable+0x78>)
 8005bd8:	6891      	ldr	r1, [r2, #8]
 8005bda:	fba0 0303 	umull	r0, r3, r0, r3
 8005bde:	f041 0101 	orr.w	r1, r1, #1
 8005be2:	0c9b      	lsrs	r3, r3, #18
 8005be4:	6091      	str	r1, [r2, #8]
 8005be6:	9301      	str	r3, [sp, #4]
 8005be8:	9b01      	ldr	r3, [sp, #4]
 8005bea:	b12b      	cbz	r3, 8005bf8 <ADC_Enable+0x38>
 8005bec:	9b01      	ldr	r3, [sp, #4]
 8005bee:	3b01      	subs	r3, #1
 8005bf0:	9301      	str	r3, [sp, #4]
 8005bf2:	9b01      	ldr	r3, [sp, #4]
 8005bf4:	2b00      	cmp	r3, #0
 8005bf6:	d1f9      	bne.n	8005bec <ADC_Enable+0x2c>
 8005bf8:	f7ff fcfc 	bl	80055f4 <HAL_GetTick>
 8005bfc:	4606      	mov	r6, r0
 8005bfe:	e004      	b.n	8005c0a <ADC_Enable+0x4a>
 8005c00:	f7ff fcf8 	bl	80055f4 <HAL_GetTick>
 8005c04:	1b83      	subs	r3, r0, r6
 8005c06:	2b02      	cmp	r3, #2
 8005c08:	d807      	bhi.n	8005c1a <ADC_Enable+0x5a>
 8005c0a:	682b      	ldr	r3, [r5, #0]
 8005c0c:	689c      	ldr	r4, [r3, #8]
 8005c0e:	f014 0401 	ands.w	r4, r4, #1
 8005c12:	d0f5      	beq.n	8005c00 <ADC_Enable+0x40>
 8005c14:	2000      	movs	r0, #0
 8005c16:	b002      	add	sp, #8
 8005c18:	bd70      	pop	{r4, r5, r6, pc}
 8005c1a:	2001      	movs	r0, #1
 8005c1c:	6aab      	ldr	r3, [r5, #40]	; 0x28
 8005c1e:	f885 4024 	strb.w	r4, [r5, #36]	; 0x24
 8005c22:	f043 0310 	orr.w	r3, r3, #16
 8005c26:	62ab      	str	r3, [r5, #40]	; 0x28
 8005c28:	6aeb      	ldr	r3, [r5, #44]	; 0x2c
 8005c2a:	4303      	orrs	r3, r0
 8005c2c:	62eb      	str	r3, [r5, #44]	; 0x2c
 8005c2e:	b002      	add	sp, #8
 8005c30:	bd70      	pop	{r4, r5, r6, pc}
 8005c32:	bf00      	nop
 8005c34:	20000008 	.word	0x20000008
 8005c38:	431bde83 	.word	0x431bde83

08005c3c <HAL_ADC_Start>:
 8005c3c:	f890 3024 	ldrb.w	r3, [r0, #36]	; 0x24
 8005c40:	2b01      	cmp	r3, #1
 8005c42:	d038      	beq.n	8005cb6 <HAL_ADC_Start+0x7a>
 8005c44:	2301      	movs	r3, #1
 8005c46:	b510      	push	{r4, lr}
 8005c48:	f880 3024 	strb.w	r3, [r0, #36]	; 0x24
 8005c4c:	4604      	mov	r4, r0
 8005c4e:	f7ff ffb7 	bl	8005bc0 <ADC_Enable>
 8005c52:	bb60      	cbnz	r0, 8005cae <HAL_ADC_Start+0x72>
 8005c54:	6aa3      	ldr	r3, [r4, #40]	; 0x28
 8005c56:	6822      	ldr	r2, [r4, #0]
 8005c58:	4929      	ldr	r1, [pc, #164]	; (8005d00 <HAL_ADC_Start+0xc4>)
 8005c5a:	f423 7340 	bic.w	r3, r3, #768	; 0x300
 8005c5e:	f023 0301 	bic.w	r3, r3, #1
 8005c62:	f443 7380 	orr.w	r3, r3, #256	; 0x100
 8005c66:	428a      	cmp	r2, r1
 8005c68:	62a3      	str	r3, [r4, #40]	; 0x28
 8005c6a:	d026      	beq.n	8005cba <HAL_ADC_Start+0x7e>
 8005c6c:	6aa3      	ldr	r3, [r4, #40]	; 0x28
 8005c6e:	f423 1380 	bic.w	r3, r3, #1048576	; 0x100000
 8005c72:	62a3      	str	r3, [r4, #40]	; 0x28
 8005c74:	6853      	ldr	r3, [r2, #4]
 8005c76:	0559      	lsls	r1, r3, #21
 8005c78:	d42b      	bmi.n	8005cd2 <HAL_ADC_Start+0x96>
 8005c7a:	6aa3      	ldr	r3, [r4, #40]	; 0x28
 8005c7c:	2100      	movs	r1, #0
 8005c7e:	f413 5380 	ands.w	r3, r3, #4096	; 0x1000
 8005c82:	bf18      	it	ne
 8005c84:	6ae3      	ldrne	r3, [r4, #44]	; 0x2c
 8005c86:	f884 1024 	strb.w	r1, [r4, #36]	; 0x24
 8005c8a:	bf18      	it	ne
 8005c8c:	f023 0306 	bicne.w	r3, r3, #6
 8005c90:	62e3      	str	r3, [r4, #44]	; 0x2c
 8005c92:	f06f 0302 	mvn.w	r3, #2
 8005c96:	6013      	str	r3, [r2, #0]
 8005c98:	6893      	ldr	r3, [r2, #8]
 8005c9a:	f403 2360 	and.w	r3, r3, #917504	; 0xe0000
 8005c9e:	f5b3 2f60 	cmp.w	r3, #917504	; 0xe0000
 8005ca2:	d01d      	beq.n	8005ce0 <HAL_ADC_Start+0xa4>
 8005ca4:	6893      	ldr	r3, [r2, #8]
 8005ca6:	f443 1380 	orr.w	r3, r3, #1048576	; 0x100000
 8005caa:	6093      	str	r3, [r2, #8]
 8005cac:	bd10      	pop	{r4, pc}
 8005cae:	2300      	movs	r3, #0
 8005cb0:	f884 3024 	strb.w	r3, [r4, #36]	; 0x24
 8005cb4:	bd10      	pop	{r4, pc}
 8005cb6:	2002      	movs	r0, #2
 8005cb8:	4770      	bx	lr
 8005cba:	4b12      	ldr	r3, [pc, #72]	; (8005d04 <HAL_ADC_Start+0xc8>)
 8005cbc:	6859      	ldr	r1, [r3, #4]
 8005cbe:	f411 2f70 	tst.w	r1, #983040	; 0xf0000
 8005cc2:	d0d3      	beq.n	8005c6c <HAL_ADC_Start+0x30>
 8005cc4:	6aa1      	ldr	r1, [r4, #40]	; 0x28
 8005cc6:	f441 1180 	orr.w	r1, r1, #1048576	; 0x100000
 8005cca:	62a1      	str	r1, [r4, #40]	; 0x28
 8005ccc:	685b      	ldr	r3, [r3, #4]
 8005cce:	055b      	lsls	r3, r3, #21
 8005cd0:	d5d3      	bpl.n	8005c7a <HAL_ADC_Start+0x3e>
 8005cd2:	6aa3      	ldr	r3, [r4, #40]	; 0x28
 8005cd4:	f423 5340 	bic.w	r3, r3, #12288	; 0x3000
 8005cd8:	f443 5380 	orr.w	r3, r3, #4096	; 0x1000
 8005cdc:	62a3      	str	r3, [r4, #40]	; 0x28
 8005cde:	e7cc      	b.n	8005c7a <HAL_ADC_Start+0x3e>
 8005ce0:	4b07      	ldr	r3, [pc, #28]	; (8005d00 <HAL_ADC_Start+0xc4>)
 8005ce2:	429a      	cmp	r2, r3
 8005ce4:	d004      	beq.n	8005cf0 <HAL_ADC_Start+0xb4>
 8005ce6:	6893      	ldr	r3, [r2, #8]
 8005ce8:	f443 03a0 	orr.w	r3, r3, #5242880	; 0x500000
 8005cec:	6093      	str	r3, [r2, #8]
 8005cee:	bd10      	pop	{r4, pc}
 8005cf0:	f5a3 6380 	sub.w	r3, r3, #1024	; 0x400
 8005cf4:	685b      	ldr	r3, [r3, #4]
 8005cf6:	f413 2f70 	tst.w	r3, #983040	; 0xf0000
 8005cfa:	d1d3      	bne.n	8005ca4 <HAL_ADC_Start+0x68>
 8005cfc:	e7f3      	b.n	8005ce6 <HAL_ADC_Start+0xaa>
 8005cfe:	bf00      	nop
 8005d00:	40012800 	.word	0x40012800
 8005d04:	40012400 	.word	0x40012400

08005d08 <HAL_ADCEx_InjectedConvCpltCallback>:
 8005d08:	4770      	bx	lr
 8005d0a:	bf00      	nop

08005d0c <HAL_NVIC_SetPriorityGrouping>:
 8005d0c:	f64f 0cff 	movw	ip, #63743	; 0xf8ff
 8005d10:	4906      	ldr	r1, [pc, #24]	; (8005d2c <HAL_NVIC_SetPriorityGrouping+0x20>)
 8005d12:	0203      	lsls	r3, r0, #8
 8005d14:	68ca      	ldr	r2, [r1, #12]
 8005d16:	f403 63e0 	and.w	r3, r3, #1792	; 0x700
 8005d1a:	ea02 020c 	and.w	r2, r2, ip
 8005d1e:	4313      	orrs	r3, r2
 8005d20:	f043 63bf 	orr.w	r3, r3, #100139008	; 0x5f80000
 8005d24:	f443 3300 	orr.w	r3, r3, #131072	; 0x20000
 8005d28:	60cb      	str	r3, [r1, #12]
 8005d2a:	4770      	bx	lr
 8005d2c:	e000ed00 	.word	0xe000ed00

08005d30 <HAL_NVIC_SetPriority>:
 8005d30:	4b1c      	ldr	r3, [pc, #112]	; (8005da4 <HAL_NVIC_SetPriority+0x74>)
 8005d32:	b500      	push	{lr}
 8005d34:	68db      	ldr	r3, [r3, #12]
 8005d36:	f3c3 2302 	ubfx	r3, r3, #8, #3
 8005d3a:	f1c3 0e07 	rsb	lr, r3, #7
 8005d3e:	f1be 0f04 	cmp.w	lr, #4
 8005d42:	f103 0c04 	add.w	ip, r3, #4
 8005d46:	bf28      	it	cs
 8005d48:	f04f 0e04 	movcs.w	lr, #4
 8005d4c:	f1bc 0f06 	cmp.w	ip, #6
 8005d50:	d91b      	bls.n	8005d8a <HAL_NVIC_SetPriority+0x5a>
 8005d52:	f04f 3cff 	mov.w	ip, #4294967295
 8005d56:	3b03      	subs	r3, #3
 8005d58:	fa0c fc03 	lsl.w	ip, ip, r3
 8005d5c:	ea22 020c 	bic.w	r2, r2, ip
 8005d60:	f04f 3cff 	mov.w	ip, #4294967295
 8005d64:	fa0c fc0e 	lsl.w	ip, ip, lr
 8005d68:	ea21 010c 	bic.w	r1, r1, ip
 8005d6c:	4099      	lsls	r1, r3
 8005d6e:	2800      	cmp	r0, #0
 8005d70:	ea41 0102 	orr.w	r1, r1, r2
 8005d74:	db0c      	blt.n	8005d90 <HAL_NVIC_SetPriority+0x60>
 8005d76:	0109      	lsls	r1, r1, #4
 8005d78:	f100 4060 	add.w	r0, r0, #3758096384	; 0xe0000000
 8005d7c:	b2c9      	uxtb	r1, r1
 8005d7e:	f500 4061 	add.w	r0, r0, #57600	; 0xe100
 8005d82:	f880 1300 	strb.w	r1, [r0, #768]	; 0x300
 8005d86:	f85d fb04 	ldr.w	pc, [sp], #4
 8005d8a:	2200      	movs	r2, #0
 8005d8c:	4613      	mov	r3, r2
 8005d8e:	e7e7      	b.n	8005d60 <HAL_NVIC_SetPriority+0x30>
 8005d90:	4b05      	ldr	r3, [pc, #20]	; (8005da8 <HAL_NVIC_SetPriority+0x78>)
 8005d92:	f000 000f 	and.w	r0, r0, #15
 8005d96:	0109      	lsls	r1, r1, #4
 8005d98:	b2c9      	uxtb	r1, r1
 8005d9a:	4403      	add	r3, r0
 8005d9c:	7619      	strb	r1, [r3, #24]
 8005d9e:	f85d fb04 	ldr.w	pc, [sp], #4
 8005da2:	bf00      	nop
 8005da4:	e000ed00 	.word	0xe000ed00
 8005da8:	e000ecfc 	.word	0xe000ecfc

08005dac <HAL_NVIC_EnableIRQ>:
 8005dac:	2800      	cmp	r0, #0
 8005dae:	db07      	blt.n	8005dc0 <HAL_NVIC_EnableIRQ+0x14>
 8005db0:	2301      	movs	r3, #1
 8005db2:	f000 011f 	and.w	r1, r0, #31
 8005db6:	4a03      	ldr	r2, [pc, #12]	; (8005dc4 <HAL_NVIC_EnableIRQ+0x18>)
 8005db8:	0940      	lsrs	r0, r0, #5
 8005dba:	408b      	lsls	r3, r1
 8005dbc:	f842 3020 	str.w	r3, [r2, r0, lsl #2]
 8005dc0:	4770      	bx	lr
 8005dc2:	bf00      	nop
 8005dc4:	e000e100 	.word	0xe000e100

08005dc8 <HAL_SYSTICK_Config>:
 8005dc8:	3801      	subs	r0, #1
 8005dca:	f1b0 7f80 	cmp.w	r0, #16777216	; 0x1000000
 8005dce:	d20f      	bcs.n	8005df0 <HAL_SYSTICK_Config+0x28>
 8005dd0:	f04f 23e0 	mov.w	r3, #3758153728	; 0xe000e000
 8005dd4:	f04f 0cf0 	mov.w	ip, #240	; 0xf0
 8005dd8:	2200      	movs	r2, #0
 8005dda:	2107      	movs	r1, #7
 8005ddc:	b410      	push	{r4}
 8005dde:	4c05      	ldr	r4, [pc, #20]	; (8005df4 <HAL_SYSTICK_Config+0x2c>)
 8005de0:	6158      	str	r0, [r3, #20]
 8005de2:	f884 c023 	strb.w	ip, [r4, #35]	; 0x23
 8005de6:	4610      	mov	r0, r2
 8005de8:	619a      	str	r2, [r3, #24]
 8005dea:	bc10      	pop	{r4}
 8005dec:	6119      	str	r1, [r3, #16]
 8005dee:	4770      	bx	lr
 8005df0:	2001      	movs	r0, #1
 8005df2:	4770      	bx	lr
 8005df4:	e000ed00 	.word	0xe000ed00

08005df8 <HAL_SYSTICK_CLKSourceConfig>:
 8005df8:	f04f 22e0 	mov.w	r2, #3758153728	; 0xe000e000
 8005dfc:	6913      	ldr	r3, [r2, #16]
 8005dfe:	2804      	cmp	r0, #4
 8005e00:	bf0c      	ite	eq
 8005e02:	f043 0304 	orreq.w	r3, r3, #4
 8005e06:	f023 0304 	bicne.w	r3, r3, #4
 8005e0a:	6113      	str	r3, [r2, #16]
 8005e0c:	4770      	bx	lr
 8005e0e:	bf00      	nop

08005e10 <HAL_DMA_Abort_IT>:
 8005e10:	b508      	push	{r3, lr}
 8005e12:	f890 2021 	ldrb.w	r2, [r0, #33]	; 0x21
 8005e16:	4603      	mov	r3, r0
 8005e18:	2a02      	cmp	r2, #2
 8005e1a:	d003      	beq.n	8005e24 <HAL_DMA_Abort_IT+0x14>
 8005e1c:	2204      	movs	r2, #4
 8005e1e:	2001      	movs	r0, #1
 8005e20:	639a      	str	r2, [r3, #56]	; 0x38
 8005e22:	bd08      	pop	{r3, pc}
 8005e24:	6802      	ldr	r2, [r0, #0]
 8005e26:	4845      	ldr	r0, [pc, #276]	; (8005f3c <HAL_DMA_Abort_IT+0x12c>)
 8005e28:	6811      	ldr	r1, [r2, #0]
 8005e2a:	4282      	cmp	r2, r0
 8005e2c:	f021 010e 	bic.w	r1, r1, #14
 8005e30:	6011      	str	r1, [r2, #0]
 8005e32:	6811      	ldr	r1, [r2, #0]
 8005e34:	f021 0101 	bic.w	r1, r1, #1
 8005e38:	6011      	str	r1, [r2, #0]
 8005e3a:	4941      	ldr	r1, [pc, #260]	; (8005f40 <HAL_DMA_Abort_IT+0x130>)
 8005e3c:	d924      	bls.n	8005e88 <HAL_DMA_Abort_IT+0x78>
 8005e3e:	428a      	cmp	r2, r1
 8005e40:	d055      	beq.n	8005eee <HAL_DMA_Abort_IT+0xde>
 8005e42:	3114      	adds	r1, #20
 8005e44:	428a      	cmp	r2, r1
 8005e46:	d05e      	beq.n	8005f06 <HAL_DMA_Abort_IT+0xf6>
 8005e48:	3114      	adds	r1, #20
 8005e4a:	428a      	cmp	r2, r1
 8005e4c:	d05d      	beq.n	8005f0a <HAL_DMA_Abort_IT+0xfa>
 8005e4e:	3114      	adds	r1, #20
 8005e50:	428a      	cmp	r2, r1
 8005e52:	d053      	beq.n	8005efc <HAL_DMA_Abort_IT+0xec>
 8005e54:	3114      	adds	r1, #20
 8005e56:	428a      	cmp	r2, r1
 8005e58:	d060      	beq.n	8005f1c <HAL_DMA_Abort_IT+0x10c>
 8005e5a:	3114      	adds	r1, #20
 8005e5c:	428a      	cmp	r2, r1
 8005e5e:	d063      	beq.n	8005f28 <HAL_DMA_Abort_IT+0x118>
 8005e60:	4282      	cmp	r2, r0
 8005e62:	d067      	beq.n	8005f34 <HAL_DMA_Abort_IT+0x124>
 8005e64:	f501 7167 	add.w	r1, r1, #924	; 0x39c
 8005e68:	428a      	cmp	r2, r1
 8005e6a:	d040      	beq.n	8005eee <HAL_DMA_Abort_IT+0xde>
 8005e6c:	3114      	adds	r1, #20
 8005e6e:	428a      	cmp	r2, r1
 8005e70:	d049      	beq.n	8005f06 <HAL_DMA_Abort_IT+0xf6>
 8005e72:	3114      	adds	r1, #20
 8005e74:	428a      	cmp	r2, r1
 8005e76:	d048      	beq.n	8005f0a <HAL_DMA_Abort_IT+0xfa>
 8005e78:	3114      	adds	r1, #20
 8005e7a:	428a      	cmp	r2, r1
 8005e7c:	bf14      	ite	ne
 8005e7e:	f44f 3280 	movne.w	r2, #65536	; 0x10000
 8005e82:	f44f 5280 	moveq.w	r2, #4096	; 0x1000
 8005e86:	e033      	b.n	8005ef0 <HAL_DMA_Abort_IT+0xe0>
 8005e88:	428a      	cmp	r2, r1
 8005e8a:	d022      	beq.n	8005ed2 <HAL_DMA_Abort_IT+0xc2>
 8005e8c:	3114      	adds	r1, #20
 8005e8e:	428a      	cmp	r2, r1
 8005e90:	d037      	beq.n	8005f02 <HAL_DMA_Abort_IT+0xf2>
 8005e92:	3114      	adds	r1, #20
 8005e94:	428a      	cmp	r2, r1
 8005e96:	d03b      	beq.n	8005f10 <HAL_DMA_Abort_IT+0x100>
 8005e98:	3114      	adds	r1, #20
 8005e9a:	428a      	cmp	r2, r1
 8005e9c:	d02b      	beq.n	8005ef6 <HAL_DMA_Abort_IT+0xe6>
 8005e9e:	3114      	adds	r1, #20
 8005ea0:	428a      	cmp	r2, r1
 8005ea2:	d038      	beq.n	8005f16 <HAL_DMA_Abort_IT+0x106>
 8005ea4:	3114      	adds	r1, #20
 8005ea6:	428a      	cmp	r2, r1
 8005ea8:	d03b      	beq.n	8005f22 <HAL_DMA_Abort_IT+0x112>
 8005eaa:	4282      	cmp	r2, r0
 8005eac:	d03f      	beq.n	8005f2e <HAL_DMA_Abort_IT+0x11e>
 8005eae:	f501 7167 	add.w	r1, r1, #924	; 0x39c
 8005eb2:	428a      	cmp	r2, r1
 8005eb4:	d00d      	beq.n	8005ed2 <HAL_DMA_Abort_IT+0xc2>
 8005eb6:	3114      	adds	r1, #20
 8005eb8:	428a      	cmp	r2, r1
 8005eba:	d022      	beq.n	8005f02 <HAL_DMA_Abort_IT+0xf2>
 8005ebc:	3114      	adds	r1, #20
 8005ebe:	428a      	cmp	r2, r1
 8005ec0:	d026      	beq.n	8005f10 <HAL_DMA_Abort_IT+0x100>
 8005ec2:	3114      	adds	r1, #20
 8005ec4:	428a      	cmp	r2, r1
 8005ec6:	bf14      	ite	ne
 8005ec8:	f44f 3280 	movne.w	r2, #65536	; 0x10000
 8005ecc:	f44f 5280 	moveq.w	r2, #4096	; 0x1000
 8005ed0:	e000      	b.n	8005ed4 <HAL_DMA_Abort_IT+0xc4>
 8005ed2:	2201      	movs	r2, #1
 8005ed4:	491b      	ldr	r1, [pc, #108]	; (8005f44 <HAL_DMA_Abort_IT+0x134>)
 8005ed6:	604a      	str	r2, [r1, #4]
 8005ed8:	f44f 7180 	mov.w	r1, #256	; 0x100
 8005edc:	6b5a      	ldr	r2, [r3, #52]	; 0x34
 8005ede:	8419      	strh	r1, [r3, #32]
 8005ee0:	b11a      	cbz	r2, 8005eea <HAL_DMA_Abort_IT+0xda>
 8005ee2:	4618      	mov	r0, r3
 8005ee4:	4790      	blx	r2
 8005ee6:	2000      	movs	r0, #0
 8005ee8:	bd08      	pop	{r3, pc}
 8005eea:	4610      	mov	r0, r2
 8005eec:	bd08      	pop	{r3, pc}
 8005eee:	2201      	movs	r2, #1
 8005ef0:	4915      	ldr	r1, [pc, #84]	; (8005f48 <HAL_DMA_Abort_IT+0x138>)
 8005ef2:	604a      	str	r2, [r1, #4]
 8005ef4:	e7f0      	b.n	8005ed8 <HAL_DMA_Abort_IT+0xc8>
 8005ef6:	f44f 5280 	mov.w	r2, #4096	; 0x1000
 8005efa:	e7eb      	b.n	8005ed4 <HAL_DMA_Abort_IT+0xc4>
 8005efc:	f44f 5280 	mov.w	r2, #4096	; 0x1000
 8005f00:	e7f6      	b.n	8005ef0 <HAL_DMA_Abort_IT+0xe0>
 8005f02:	2210      	movs	r2, #16
 8005f04:	e7e6      	b.n	8005ed4 <HAL_DMA_Abort_IT+0xc4>
 8005f06:	2210      	movs	r2, #16
 8005f08:	e7f2      	b.n	8005ef0 <HAL_DMA_Abort_IT+0xe0>
 8005f0a:	f44f 7280 	mov.w	r2, #256	; 0x100
 8005f0e:	e7ef      	b.n	8005ef0 <HAL_DMA_Abort_IT+0xe0>
 8005f10:	f44f 7280 	mov.w	r2, #256	; 0x100
 8005f14:	e7de      	b.n	8005ed4 <HAL_DMA_Abort_IT+0xc4>
 8005f16:	f44f 3280 	mov.w	r2, #65536	; 0x10000
 8005f1a:	e7db      	b.n	8005ed4 <HAL_DMA_Abort_IT+0xc4>
 8005f1c:	f44f 3280 	mov.w	r2, #65536	; 0x10000
 8005f20:	e7e6      	b.n	8005ef0 <HAL_DMA_Abort_IT+0xe0>
 8005f22:	f44f 1280 	mov.w	r2, #1048576	; 0x100000
 8005f26:	e7d5      	b.n	8005ed4 <HAL_DMA_Abort_IT+0xc4>
 8005f28:	f44f 1280 	mov.w	r2, #1048576	; 0x100000
 8005f2c:	e7e0      	b.n	8005ef0 <HAL_DMA_Abort_IT+0xe0>
 8005f2e:	f04f 7280 	mov.w	r2, #16777216	; 0x1000000
 8005f32:	e7cf      	b.n	8005ed4 <HAL_DMA_Abort_IT+0xc4>
 8005f34:	f04f 7280 	mov.w	r2, #16777216	; 0x1000000
 8005f38:	e7da      	b.n	8005ef0 <HAL_DMA_Abort_IT+0xe0>
 8005f3a:	bf00      	nop
 8005f3c:	40020080 	.word	0x40020080
 8005f40:	40020008 	.word	0x40020008
 8005f44:	40020000 	.word	0x40020000
 8005f48:	40020400 	.word	0x40020400

08005f4c <HAL_FLASH_Program>:
 8005f4c:	e92d 4ff0 	stmdb	sp!, {r4, r5, r6, r7, r8, r9, sl, fp, lr}
 8005f50:	f8df 91c4 	ldr.w	r9, [pc, #452]	; 8006118 <HAL_FLASH_Program+0x1cc>
 8005f54:	b083      	sub	sp, #12
 8005f56:	f899 4018 	ldrb.w	r4, [r9, #24]
 8005f5a:	2c01      	cmp	r4, #1
 8005f5c:	f000 80cf 	beq.w	80060fe <HAL_FLASH_Program+0x1b2>
 8005f60:	469a      	mov	sl, r3
 8005f62:	2301      	movs	r3, #1
 8005f64:	4606      	mov	r6, r0
 8005f66:	4688      	mov	r8, r1
 8005f68:	4693      	mov	fp, r2
 8005f6a:	f889 3018 	strb.w	r3, [r9, #24]
 8005f6e:	f7ff fb41 	bl	80055f4 <HAL_GetTick>
 8005f72:	f24c 3750 	movw	r7, #50000	; 0xc350
 8005f76:	4604      	mov	r4, r0
 8005f78:	4d68      	ldr	r5, [pc, #416]	; (800611c <HAL_FLASH_Program+0x1d0>)
 8005f7a:	e005      	b.n	8005f88 <HAL_FLASH_Program+0x3c>
 8005f7c:	f7ff fb3a 	bl	80055f4 <HAL_GetTick>
 8005f80:	1b00      	subs	r0, r0, r4
 8005f82:	42b8      	cmp	r0, r7
 8005f84:	f200 80b9 	bhi.w	80060fa <HAL_FLASH_Program+0x1ae>
 8005f88:	68eb      	ldr	r3, [r5, #12]
 8005f8a:	07da      	lsls	r2, r3, #31
 8005f8c:	d4f6      	bmi.n	8005f7c <HAL_FLASH_Program+0x30>
 8005f8e:	68eb      	ldr	r3, [r5, #12]
 8005f90:	069b      	lsls	r3, r3, #26
 8005f92:	bf44      	itt	mi
 8005f94:	2320      	movmi	r3, #32
 8005f96:	60eb      	strmi	r3, [r5, #12]
 8005f98:	4b60      	ldr	r3, [pc, #384]	; (800611c <HAL_FLASH_Program+0x1d0>)
 8005f9a:	68da      	ldr	r2, [r3, #12]
 8005f9c:	06d7      	lsls	r7, r2, #27
 8005f9e:	d453      	bmi.n	8006048 <HAL_FLASH_Program+0xfc>
 8005fa0:	69da      	ldr	r2, [r3, #28]
 8005fa2:	07d5      	lsls	r5, r2, #31
 8005fa4:	d450      	bmi.n	8006048 <HAL_FLASH_Program+0xfc>
 8005fa6:	68df      	ldr	r7, [r3, #12]
 8005fa8:	f017 0704 	ands.w	r7, r7, #4
 8005fac:	d14c      	bne.n	8006048 <HAL_FLASH_Program+0xfc>
 8005fae:	2e01      	cmp	r6, #1
 8005fb0:	d003      	beq.n	8005fba <HAL_FLASH_Program+0x6e>
 8005fb2:	2e02      	cmp	r6, #2
 8005fb4:	bf0c      	ite	eq
 8005fb6:	2602      	moveq	r6, #2
 8005fb8:	2604      	movne	r6, #4
 8005fba:	eb08 0346 	add.w	r3, r8, r6, lsl #1
 8005fbe:	f24c 3650 	movw	r6, #50000	; 0xc350
 8005fc2:	4c56      	ldr	r4, [pc, #344]	; (800611c <HAL_FLASH_Program+0x1d0>)
 8005fc4:	9301      	str	r3, [sp, #4]
 8005fc6:	f1c7 0120 	rsb	r1, r7, #32
 8005fca:	fa0a f101 	lsl.w	r1, sl, r1
 8005fce:	fa2b f307 	lsr.w	r3, fp, r7
 8005fd2:	430b      	orrs	r3, r1
 8005fd4:	2100      	movs	r1, #0
 8005fd6:	f1a7 0220 	sub.w	r2, r7, #32
 8005fda:	f8c9 101c 	str.w	r1, [r9, #28]
 8005fde:	fa2a f202 	lsr.w	r2, sl, r2
 8005fe2:	4313      	orrs	r3, r2
 8005fe4:	6922      	ldr	r2, [r4, #16]
 8005fe6:	b29b      	uxth	r3, r3
 8005fe8:	f042 0201 	orr.w	r2, r2, #1
 8005fec:	6122      	str	r2, [r4, #16]
 8005fee:	f8a8 3000 	strh.w	r3, [r8]
 8005ff2:	f7ff faff 	bl	80055f4 <HAL_GetTick>
 8005ff6:	4605      	mov	r5, r0
 8005ff8:	e004      	b.n	8006004 <HAL_FLASH_Program+0xb8>
 8005ffa:	f7ff fafb 	bl	80055f4 <HAL_GetTick>
 8005ffe:	1b40      	subs	r0, r0, r5
 8006000:	42b0      	cmp	r0, r6
 8006002:	d872      	bhi.n	80060ea <HAL_FLASH_Program+0x19e>
 8006004:	68e3      	ldr	r3, [r4, #12]
 8006006:	07d9      	lsls	r1, r3, #31
 8006008:	d4f7      	bmi.n	8005ffa <HAL_FLASH_Program+0xae>
 800600a:	68e3      	ldr	r3, [r4, #12]
 800600c:	069a      	lsls	r2, r3, #26
 800600e:	bf44      	itt	mi
 8006010:	2320      	movmi	r3, #32
 8006012:	60e3      	strmi	r3, [r4, #12]
 8006014:	68e3      	ldr	r3, [r4, #12]
 8006016:	06db      	lsls	r3, r3, #27
 8006018:	d439      	bmi.n	800608e <HAL_FLASH_Program+0x142>
 800601a:	69e3      	ldr	r3, [r4, #28]
 800601c:	07dd      	lsls	r5, r3, #31
 800601e:	d436      	bmi.n	800608e <HAL_FLASH_Program+0x142>
 8006020:	68e0      	ldr	r0, [r4, #12]
 8006022:	f010 0004 	ands.w	r0, r0, #4
 8006026:	d132      	bne.n	800608e <HAL_FLASH_Program+0x142>
 8006028:	6923      	ldr	r3, [r4, #16]
 800602a:	f108 0802 	add.w	r8, r8, #2
 800602e:	f023 0301 	bic.w	r3, r3, #1
 8006032:	6123      	str	r3, [r4, #16]
 8006034:	9b01      	ldr	r3, [sp, #4]
 8006036:	3710      	adds	r7, #16
 8006038:	4598      	cmp	r8, r3
 800603a:	d1c4      	bne.n	8005fc6 <HAL_FLASH_Program+0x7a>
 800603c:	2300      	movs	r3, #0
 800603e:	f889 3018 	strb.w	r3, [r9, #24]
 8006042:	b003      	add	sp, #12
 8006044:	e8bd 8ff0 	ldmia.w	sp!, {r4, r5, r6, r7, r8, r9, sl, fp, pc}
 8006048:	4b34      	ldr	r3, [pc, #208]	; (800611c <HAL_FLASH_Program+0x1d0>)
 800604a:	68db      	ldr	r3, [r3, #12]
 800604c:	f013 0310 	ands.w	r3, r3, #16
 8006050:	d159      	bne.n	8006106 <HAL_FLASH_Program+0x1ba>
 8006052:	2104      	movs	r1, #4
 8006054:	4a31      	ldr	r2, [pc, #196]	; (800611c <HAL_FLASH_Program+0x1d0>)
 8006056:	68d2      	ldr	r2, [r2, #12]
 8006058:	0754      	lsls	r4, r2, #29
 800605a:	d506      	bpl.n	800606a <HAL_FLASH_Program+0x11e>
 800605c:	460b      	mov	r3, r1
 800605e:	f8d9 201c 	ldr.w	r2, [r9, #28]
 8006062:	f042 0201 	orr.w	r2, r2, #1
 8006066:	f8c9 201c 	str.w	r2, [r9, #28]
 800606a:	4a2c      	ldr	r2, [pc, #176]	; (800611c <HAL_FLASH_Program+0x1d0>)
 800606c:	69d1      	ldr	r1, [r2, #28]
 800606e:	07c8      	lsls	r0, r1, #31
 8006070:	d509      	bpl.n	8006086 <HAL_FLASH_Program+0x13a>
 8006072:	f8d9 101c 	ldr.w	r1, [r9, #28]
 8006076:	f041 0104 	orr.w	r1, r1, #4
 800607a:	f8c9 101c 	str.w	r1, [r9, #28]
 800607e:	69d1      	ldr	r1, [r2, #28]
 8006080:	f021 0101 	bic.w	r1, r1, #1
 8006084:	61d1      	str	r1, [r2, #28]
 8006086:	4a25      	ldr	r2, [pc, #148]	; (800611c <HAL_FLASH_Program+0x1d0>)
 8006088:	2001      	movs	r0, #1
 800608a:	60d3      	str	r3, [r2, #12]
 800608c:	e7d6      	b.n	800603c <HAL_FLASH_Program+0xf0>
 800608e:	4b23      	ldr	r3, [pc, #140]	; (800611c <HAL_FLASH_Program+0x1d0>)
 8006090:	68da      	ldr	r2, [r3, #12]
 8006092:	f012 0210 	ands.w	r2, r2, #16
 8006096:	d02e      	beq.n	80060f6 <HAL_FLASH_Program+0x1aa>
 8006098:	2114      	movs	r1, #20
 800609a:	2210      	movs	r2, #16
 800609c:	f8d9 301c 	ldr.w	r3, [r9, #28]
 80060a0:	f043 0302 	orr.w	r3, r3, #2
 80060a4:	f8c9 301c 	str.w	r3, [r9, #28]
 80060a8:	4b1c      	ldr	r3, [pc, #112]	; (800611c <HAL_FLASH_Program+0x1d0>)
 80060aa:	68db      	ldr	r3, [r3, #12]
 80060ac:	0758      	lsls	r0, r3, #29
 80060ae:	d506      	bpl.n	80060be <HAL_FLASH_Program+0x172>
 80060b0:	460a      	mov	r2, r1
 80060b2:	f8d9 301c 	ldr.w	r3, [r9, #28]
 80060b6:	f043 0301 	orr.w	r3, r3, #1
 80060ba:	f8c9 301c 	str.w	r3, [r9, #28]
 80060be:	4b17      	ldr	r3, [pc, #92]	; (800611c <HAL_FLASH_Program+0x1d0>)
 80060c0:	69d9      	ldr	r1, [r3, #28]
 80060c2:	07c9      	lsls	r1, r1, #31
 80060c4:	d509      	bpl.n	80060da <HAL_FLASH_Program+0x18e>
 80060c6:	f8d9 101c 	ldr.w	r1, [r9, #28]
 80060ca:	f041 0104 	orr.w	r1, r1, #4
 80060ce:	f8c9 101c 	str.w	r1, [r9, #28]
 80060d2:	69d9      	ldr	r1, [r3, #28]
 80060d4:	f021 0101 	bic.w	r1, r1, #1
 80060d8:	61d9      	str	r1, [r3, #28]
 80060da:	4b10      	ldr	r3, [pc, #64]	; (800611c <HAL_FLASH_Program+0x1d0>)
 80060dc:	2001      	movs	r0, #1
 80060de:	60da      	str	r2, [r3, #12]
 80060e0:	691a      	ldr	r2, [r3, #16]
 80060e2:	f022 0201 	bic.w	r2, r2, #1
 80060e6:	611a      	str	r2, [r3, #16]
 80060e8:	e7a8      	b.n	800603c <HAL_FLASH_Program+0xf0>
 80060ea:	6923      	ldr	r3, [r4, #16]
 80060ec:	2003      	movs	r0, #3
 80060ee:	f023 0301 	bic.w	r3, r3, #1
 80060f2:	6123      	str	r3, [r4, #16]
 80060f4:	e7a2      	b.n	800603c <HAL_FLASH_Program+0xf0>
 80060f6:	2104      	movs	r1, #4
 80060f8:	e7d6      	b.n	80060a8 <HAL_FLASH_Program+0x15c>
 80060fa:	2003      	movs	r0, #3
 80060fc:	e79e      	b.n	800603c <HAL_FLASH_Program+0xf0>
 80060fe:	2002      	movs	r0, #2
 8006100:	b003      	add	sp, #12
 8006102:	e8bd 8ff0 	ldmia.w	sp!, {r4, r5, r6, r7, r8, r9, sl, fp, pc}
 8006106:	f8d9 201c 	ldr.w	r2, [r9, #28]
 800610a:	2114      	movs	r1, #20
 800610c:	f042 0202 	orr.w	r2, r2, #2
 8006110:	2310      	movs	r3, #16
 8006112:	f8c9 201c 	str.w	r2, [r9, #28]
 8006116:	e79d      	b.n	8006054 <HAL_FLASH_Program+0x108>
 8006118:	20000420 	.word	0x20000420
 800611c:	40022000 	.word	0x40022000

08006120 <HAL_FLASH_Unlock>:
 8006120:	4b06      	ldr	r3, [pc, #24]	; (800613c <HAL_FLASH_Unlock+0x1c>)
 8006122:	6918      	ldr	r0, [r3, #16]
 8006124:	f010 0080 	ands.w	r0, r0, #128	; 0x80
 8006128:	d006      	beq.n	8006138 <HAL_FLASH_Unlock+0x18>
 800612a:	4905      	ldr	r1, [pc, #20]	; (8006140 <HAL_FLASH_Unlock+0x20>)
 800612c:	4a05      	ldr	r2, [pc, #20]	; (8006144 <HAL_FLASH_Unlock+0x24>)
 800612e:	6059      	str	r1, [r3, #4]
 8006130:	605a      	str	r2, [r3, #4]
 8006132:	6918      	ldr	r0, [r3, #16]
 8006134:	f3c0 10c0 	ubfx	r0, r0, #7, #1
 8006138:	4770      	bx	lr
 800613a:	bf00      	nop
 800613c:	40022000 	.word	0x40022000
 8006140:	45670123 	.word	0x45670123
 8006144:	cdef89ab 	.word	0xcdef89ab

08006148 <HAL_FLASH_Lock>:
 8006148:	4a03      	ldr	r2, [pc, #12]	; (8006158 <HAL_FLASH_Lock+0x10>)
 800614a:	2000      	movs	r0, #0
 800614c:	6913      	ldr	r3, [r2, #16]
 800614e:	f043 0380 	orr.w	r3, r3, #128	; 0x80
 8006152:	6113      	str	r3, [r2, #16]
 8006154:	4770      	bx	lr
 8006156:	bf00      	nop
 8006158:	40022000 	.word	0x40022000

0800615c <FLASH_WaitForLastOperation>:
 800615c:	b570      	push	{r4, r5, r6, lr}
 800615e:	4604      	mov	r4, r0
 8006160:	f7ff fa48 	bl	80055f4 <HAL_GetTick>
 8006164:	4605      	mov	r5, r0
 8006166:	4e26      	ldr	r6, [pc, #152]	; (8006200 <FLASH_WaitForLastOperation+0xa4>)
 8006168:	1c60      	adds	r0, r4, #1
 800616a:	d136      	bne.n	80061da <FLASH_WaitForLastOperation+0x7e>
 800616c:	4a24      	ldr	r2, [pc, #144]	; (8006200 <FLASH_WaitForLastOperation+0xa4>)
 800616e:	68d3      	ldr	r3, [r2, #12]
 8006170:	07d9      	lsls	r1, r3, #31
 8006172:	d4fc      	bmi.n	800616e <FLASH_WaitForLastOperation+0x12>
 8006174:	4b22      	ldr	r3, [pc, #136]	; (8006200 <FLASH_WaitForLastOperation+0xa4>)
 8006176:	68da      	ldr	r2, [r3, #12]
 8006178:	0696      	lsls	r6, r2, #26
 800617a:	bf44      	itt	mi
 800617c:	2220      	movmi	r2, #32
 800617e:	60da      	strmi	r2, [r3, #12]
 8006180:	4b1f      	ldr	r3, [pc, #124]	; (8006200 <FLASH_WaitForLastOperation+0xa4>)
 8006182:	68da      	ldr	r2, [r3, #12]
 8006184:	06d5      	lsls	r5, r2, #27
 8006186:	d407      	bmi.n	8006198 <FLASH_WaitForLastOperation+0x3c>
 8006188:	69da      	ldr	r2, [r3, #28]
 800618a:	07d4      	lsls	r4, r2, #31
 800618c:	d404      	bmi.n	8006198 <FLASH_WaitForLastOperation+0x3c>
 800618e:	68d8      	ldr	r0, [r3, #12]
 8006190:	f010 0004 	ands.w	r0, r0, #4
 8006194:	d100      	bne.n	8006198 <FLASH_WaitForLastOperation+0x3c>
 8006196:	bd70      	pop	{r4, r5, r6, pc}
 8006198:	4b19      	ldr	r3, [pc, #100]	; (8006200 <FLASH_WaitForLastOperation+0xa4>)
 800619a:	68db      	ldr	r3, [r3, #12]
 800619c:	f013 0310 	ands.w	r3, r3, #16
 80061a0:	d126      	bne.n	80061f0 <FLASH_WaitForLastOperation+0x94>
 80061a2:	2104      	movs	r1, #4
 80061a4:	4a16      	ldr	r2, [pc, #88]	; (8006200 <FLASH_WaitForLastOperation+0xa4>)
 80061a6:	68d2      	ldr	r2, [r2, #12]
 80061a8:	0750      	lsls	r0, r2, #29
 80061aa:	d505      	bpl.n	80061b8 <FLASH_WaitForLastOperation+0x5c>
 80061ac:	460b      	mov	r3, r1
 80061ae:	4915      	ldr	r1, [pc, #84]	; (8006204 <FLASH_WaitForLastOperation+0xa8>)
 80061b0:	69ca      	ldr	r2, [r1, #28]
 80061b2:	f042 0201 	orr.w	r2, r2, #1
 80061b6:	61ca      	str	r2, [r1, #28]
 80061b8:	4a11      	ldr	r2, [pc, #68]	; (8006200 <FLASH_WaitForLastOperation+0xa4>)
 80061ba:	69d1      	ldr	r1, [r2, #28]
 80061bc:	07c9      	lsls	r1, r1, #31
 80061be:	d508      	bpl.n	80061d2 <FLASH_WaitForLastOperation+0x76>
 80061c0:	4810      	ldr	r0, [pc, #64]	; (8006204 <FLASH_WaitForLastOperation+0xa8>)
 80061c2:	69c1      	ldr	r1, [r0, #28]
 80061c4:	f041 0104 	orr.w	r1, r1, #4
 80061c8:	61c1      	str	r1, [r0, #28]
 80061ca:	69d1      	ldr	r1, [r2, #28]
 80061cc:	f021 0101 	bic.w	r1, r1, #1
 80061d0:	61d1      	str	r1, [r2, #28]
 80061d2:	4a0b      	ldr	r2, [pc, #44]	; (8006200 <FLASH_WaitForLastOperation+0xa4>)
 80061d4:	2001      	movs	r0, #1
 80061d6:	60d3      	str	r3, [r2, #12]
 80061d8:	bd70      	pop	{r4, r5, r6, pc}
 80061da:	68f3      	ldr	r3, [r6, #12]
 80061dc:	07db      	lsls	r3, r3, #31
 80061de:	d5c9      	bpl.n	8006174 <FLASH_WaitForLastOperation+0x18>
 80061e0:	b124      	cbz	r4, 80061ec <FLASH_WaitForLastOperation+0x90>
 80061e2:	f7ff fa07 	bl	80055f4 <HAL_GetTick>
 80061e6:	1b40      	subs	r0, r0, r5
 80061e8:	42a0      	cmp	r0, r4
 80061ea:	d9bd      	bls.n	8006168 <FLASH_WaitForLastOperation+0xc>
 80061ec:	2003      	movs	r0, #3
 80061ee:	bd70      	pop	{r4, r5, r6, pc}
 80061f0:	4804      	ldr	r0, [pc, #16]	; (8006204 <FLASH_WaitForLastOperation+0xa8>)
 80061f2:	2114      	movs	r1, #20
 80061f4:	69c2      	ldr	r2, [r0, #28]
 80061f6:	2310      	movs	r3, #16
 80061f8:	f042 0202 	orr.w	r2, r2, #2
 80061fc:	61c2      	str	r2, [r0, #28]
 80061fe:	e7d1      	b.n	80061a4 <FLASH_WaitForLastOperation+0x48>
 8006200:	40022000 	.word	0x40022000
 8006204:	20000420 	.word	0x20000420

08006208 <HAL_FLASHEx_Erase>:
 8006208:	e92d 43f8 	stmdb	sp!, {r3, r4, r5, r6, r7, r8, r9, lr}
 800620c:	4e2d      	ldr	r6, [pc, #180]	; (80062c4 <HAL_FLASHEx_Erase+0xbc>)
 800620e:	7e33      	ldrb	r3, [r6, #24]
 8006210:	2b01      	cmp	r3, #1
 8006212:	d054      	beq.n	80062be <HAL_FLASHEx_Erase+0xb6>
 8006214:	2301      	movs	r3, #1
 8006216:	7633      	strb	r3, [r6, #24]
 8006218:	6803      	ldr	r3, [r0, #0]
 800621a:	4681      	mov	r9, r0
 800621c:	2b02      	cmp	r3, #2
 800621e:	d031      	beq.n	8006284 <HAL_FLASHEx_Erase+0x7c>
 8006220:	f24c 3050 	movw	r0, #50000	; 0xc350
 8006224:	4688      	mov	r8, r1
 8006226:	f7ff ff99 	bl	800615c <FLASH_WaitForLastOperation>
 800622a:	4607      	mov	r7, r0
 800622c:	bb78      	cbnz	r0, 800628e <HAL_FLASHEx_Erase+0x86>
 800622e:	f04f 33ff 	mov.w	r3, #4294967295
 8006232:	f8c8 3000 	str.w	r3, [r8]
 8006236:	e9d9 5302 	ldrd	r5, r3, [r9, #8]
 800623a:	eb05 23c3 	add.w	r3, r5, r3, lsl #11
 800623e:	429d      	cmp	r5, r3
 8006240:	d225      	bcs.n	800628e <HAL_FLASHEx_Erase+0x86>
 8006242:	4c21      	ldr	r4, [pc, #132]	; (80062c8 <HAL_FLASHEx_Erase+0xc0>)
 8006244:	e007      	b.n	8006256 <HAL_FLASHEx_Erase+0x4e>
 8006246:	f505 6500 	add.w	r5, r5, #2048	; 0x800
 800624a:	e9d9 3202 	ldrd	r3, r2, [r9, #8]
 800624e:	eb03 23c2 	add.w	r3, r3, r2, lsl #11
 8006252:	42ab      	cmp	r3, r5
 8006254:	d91c      	bls.n	8006290 <HAL_FLASHEx_Erase+0x88>
 8006256:	61f7      	str	r7, [r6, #28]
 8006258:	6923      	ldr	r3, [r4, #16]
 800625a:	f24c 3050 	movw	r0, #50000	; 0xc350
 800625e:	f043 0302 	orr.w	r3, r3, #2
 8006262:	6123      	str	r3, [r4, #16]
 8006264:	6165      	str	r5, [r4, #20]
 8006266:	6923      	ldr	r3, [r4, #16]
 8006268:	f043 0340 	orr.w	r3, r3, #64	; 0x40
 800626c:	6123      	str	r3, [r4, #16]
 800626e:	f7ff ff75 	bl	800615c <FLASH_WaitForLastOperation>
 8006272:	6923      	ldr	r3, [r4, #16]
 8006274:	f023 0302 	bic.w	r3, r3, #2
 8006278:	6123      	str	r3, [r4, #16]
 800627a:	2800      	cmp	r0, #0
 800627c:	d0e3      	beq.n	8006246 <HAL_FLASHEx_Erase+0x3e>
 800627e:	f8c8 5000 	str.w	r5, [r8]
 8006282:	e005      	b.n	8006290 <HAL_FLASHEx_Erase+0x88>
 8006284:	f24c 3050 	movw	r0, #50000	; 0xc350
 8006288:	f7ff ff68 	bl	800615c <FLASH_WaitForLastOperation>
 800628c:	b120      	cbz	r0, 8006298 <HAL_FLASHEx_Erase+0x90>
 800628e:	2001      	movs	r0, #1
 8006290:	2300      	movs	r3, #0
 8006292:	7633      	strb	r3, [r6, #24]
 8006294:	e8bd 83f8 	ldmia.w	sp!, {r3, r4, r5, r6, r7, r8, r9, pc}
 8006298:	4c0b      	ldr	r4, [pc, #44]	; (80062c8 <HAL_FLASHEx_Erase+0xc0>)
 800629a:	61f0      	str	r0, [r6, #28]
 800629c:	6923      	ldr	r3, [r4, #16]
 800629e:	f24c 3050 	movw	r0, #50000	; 0xc350
 80062a2:	f043 0304 	orr.w	r3, r3, #4
 80062a6:	6123      	str	r3, [r4, #16]
 80062a8:	6923      	ldr	r3, [r4, #16]
 80062aa:	f043 0340 	orr.w	r3, r3, #64	; 0x40
 80062ae:	6123      	str	r3, [r4, #16]
 80062b0:	f7ff ff54 	bl	800615c <FLASH_WaitForLastOperation>
 80062b4:	6923      	ldr	r3, [r4, #16]
 80062b6:	f023 0304 	bic.w	r3, r3, #4
 80062ba:	6123      	str	r3, [r4, #16]
 80062bc:	e7e8      	b.n	8006290 <HAL_FLASHEx_Erase+0x88>
 80062be:	2002      	movs	r0, #2
 80062c0:	e8bd 83f8 	ldmia.w	sp!, {r3, r4, r5, r6, r7, r8, r9, pc}
 80062c4:	20000420 	.word	0x20000420
 80062c8:	40022000 	.word	0x40022000

080062cc <HAL_GPIO_Init>:
 80062cc:	e92d 4ff0 	stmdb	sp!, {r4, r5, r6, r7, r8, r9, sl, fp, lr}
 80062d0:	680e      	ldr	r6, [r1, #0]
 80062d2:	b083      	sub	sp, #12
 80062d4:	2e00      	cmp	r6, #0
 80062d6:	f000 80be 	beq.w	8006456 <HAL_GPIO_Init+0x18a>
 80062da:	2200      	movs	r2, #0
 80062dc:	4f85      	ldr	r7, [pc, #532]	; (80064f4 <HAL_GPIO_Init+0x228>)
 80062de:	4692      	mov	sl, r2
 80062e0:	4613      	mov	r3, r2
 80062e2:	4d85      	ldr	r5, [pc, #532]	; (80064f8 <HAL_GPIO_Init+0x22c>)
 80062e4:	f8df 8214 	ldr.w	r8, [pc, #532]	; 80064fc <HAL_GPIO_Init+0x230>
 80062e8:	e006      	b.n	80062f8 <HAL_GPIO_Init+0x2c>
 80062ea:	3301      	adds	r3, #1
 80062ec:	fa36 f403 	lsrs.w	r4, r6, r3
 80062f0:	f102 0204 	add.w	r2, r2, #4
 80062f4:	f000 80af 	beq.w	8006456 <HAL_GPIO_Init+0x18a>
 80062f8:	2401      	movs	r4, #1
 80062fa:	409c      	lsls	r4, r3
 80062fc:	ea34 0e06 	bics.w	lr, r4, r6
 8006300:	ea04 0c06 	and.w	ip, r4, r6
 8006304:	d1f1      	bne.n	80062ea <HAL_GPIO_Init+0x1e>
 8006306:	684e      	ldr	r6, [r1, #4]
 8006308:	2e12      	cmp	r6, #18
 800630a:	f200 80a7 	bhi.w	800645c <HAL_GPIO_Init+0x190>
 800630e:	2e12      	cmp	r6, #18
 8006310:	d81a      	bhi.n	8006348 <HAL_GPIO_Init+0x7c>
 8006312:	e8df f006 	tbb	[pc, r6]
 8006316:	c2b0      	.short	0xc2b0
 8006318:	1919d7be 	.word	0x1919d7be
 800631c:	19191919 	.word	0x19191919
 8006320:	19191919 	.word	0x19191919
 8006324:	ba191919 	.word	0xba191919
 8006328:	c5          	.byte	0xc5
 8006329:	00          	.byte	0x00
 800632a:	f8df e1d4 	ldr.w	lr, [pc, #468]	; 8006500 <HAL_GPIO_Init+0x234>
 800632e:	4576      	cmp	r6, lr
 8006330:	f000 80a1 	beq.w	8006476 <HAL_GPIO_Init+0x1aa>
 8006334:	f50e 2e70 	add.w	lr, lr, #983040	; 0xf0000
 8006338:	4576      	cmp	r6, lr
 800633a:	f000 809c 	beq.w	8006476 <HAL_GPIO_Init+0x1aa>
 800633e:	f5ae 1e80 	sub.w	lr, lr, #1048576	; 0x100000
 8006342:	4576      	cmp	r6, lr
 8006344:	f000 8097 	beq.w	8006476 <HAL_GPIO_Init+0x1aa>
 8006348:	f1bc 0fff 	cmp.w	ip, #255	; 0xff
 800634c:	bf9c      	itt	ls
 800634e:	4686      	movls	lr, r0
 8006350:	4693      	movls	fp, r2
 8006352:	f04f 060f 	mov.w	r6, #15
 8006356:	bf84      	itt	hi
 8006358:	f100 0e04 	addhi.w	lr, r0, #4
 800635c:	f1a2 0b20 	subhi.w	fp, r2, #32
 8006360:	f8de 4000 	ldr.w	r4, [lr]
 8006364:	fa0a f90b 	lsl.w	r9, sl, fp
 8006368:	fa06 fb0b 	lsl.w	fp, r6, fp
 800636c:	ea24 040b 	bic.w	r4, r4, fp
 8006370:	ea44 0409 	orr.w	r4, r4, r9
 8006374:	f8ce 4000 	str.w	r4, [lr]
 8006378:	684c      	ldr	r4, [r1, #4]
 800637a:	f014 5f80 	tst.w	r4, #268435456	; 0x10000000
 800637e:	f000 8082 	beq.w	8006486 <HAL_GPIO_Init+0x1ba>
 8006382:	f8d7 e018 	ldr.w	lr, [r7, #24]
 8006386:	f003 0903 	and.w	r9, r3, #3
 800638a:	f04e 0e01 	orr.w	lr, lr, #1
 800638e:	f8c7 e018 	str.w	lr, [r7, #24]
 8006392:	f8d7 e018 	ldr.w	lr, [r7, #24]
 8006396:	ea4f 0989 	mov.w	r9, r9, lsl #2
 800639a:	f00e 0e01 	and.w	lr, lr, #1
 800639e:	f8cd e004 	str.w	lr, [sp, #4]
 80063a2:	f8dd e004 	ldr.w	lr, [sp, #4]
 80063a6:	f023 0e03 	bic.w	lr, r3, #3
 80063aa:	f10e 4e80 	add.w	lr, lr, #1073741824	; 0x40000000
 80063ae:	f50e 3e80 	add.w	lr, lr, #65536	; 0x10000
 80063b2:	f8de b008 	ldr.w	fp, [lr, #8]
 80063b6:	fa06 f609 	lsl.w	r6, r6, r9
 80063ba:	ea2b 0606 	bic.w	r6, fp, r6
 80063be:	f8df b144 	ldr.w	fp, [pc, #324]	; 8006504 <HAL_GPIO_Init+0x238>
 80063c2:	4558      	cmp	r0, fp
 80063c4:	d01b      	beq.n	80063fe <HAL_GPIO_Init+0x132>
 80063c6:	f50b 6b80 	add.w	fp, fp, #1024	; 0x400
 80063ca:	4558      	cmp	r0, fp
 80063cc:	d073      	beq.n	80064b6 <HAL_GPIO_Init+0x1ea>
 80063ce:	f8df b138 	ldr.w	fp, [pc, #312]	; 8006508 <HAL_GPIO_Init+0x23c>
 80063d2:	4558      	cmp	r0, fp
 80063d4:	d068      	beq.n	80064a8 <HAL_GPIO_Init+0x1dc>
 80063d6:	f8df b134 	ldr.w	fp, [pc, #308]	; 800650c <HAL_GPIO_Init+0x240>
 80063da:	4558      	cmp	r0, fp
 80063dc:	d07c      	beq.n	80064d8 <HAL_GPIO_Init+0x20c>
 80063de:	f8df b130 	ldr.w	fp, [pc, #304]	; 8006510 <HAL_GPIO_Init+0x244>
 80063e2:	4558      	cmp	r0, fp
 80063e4:	d07f      	beq.n	80064e6 <HAL_GPIO_Init+0x21a>
 80063e6:	f8df b12c 	ldr.w	fp, [pc, #300]	; 8006514 <HAL_GPIO_Init+0x248>
 80063ea:	4558      	cmp	r0, fp
 80063ec:	bf0c      	ite	eq
 80063ee:	f04f 0b05 	moveq.w	fp, #5
 80063f2:	f04f 0b06 	movne.w	fp, #6
 80063f6:	fa0b f909 	lsl.w	r9, fp, r9
 80063fa:	ea46 0609 	orr.w	r6, r6, r9
 80063fe:	f8ce 6008 	str.w	r6, [lr, #8]
 8006402:	682e      	ldr	r6, [r5, #0]
 8006404:	f414 3f80 	tst.w	r4, #65536	; 0x10000
 8006408:	bf14      	ite	ne
 800640a:	ea46 060c 	orrne.w	r6, r6, ip
 800640e:	ea26 060c 	biceq.w	r6, r6, ip
 8006412:	602e      	str	r6, [r5, #0]
 8006414:	686e      	ldr	r6, [r5, #4]
 8006416:	f414 3f00 	tst.w	r4, #131072	; 0x20000
 800641a:	bf14      	ite	ne
 800641c:	ea46 060c 	orrne.w	r6, r6, ip
 8006420:	ea26 060c 	biceq.w	r6, r6, ip
 8006424:	606e      	str	r6, [r5, #4]
 8006426:	68ae      	ldr	r6, [r5, #8]
 8006428:	f414 1f80 	tst.w	r4, #1048576	; 0x100000
 800642c:	bf14      	ite	ne
 800642e:	ea46 060c 	orrne.w	r6, r6, ip
 8006432:	ea26 060c 	biceq.w	r6, r6, ip
 8006436:	60ae      	str	r6, [r5, #8]
 8006438:	f414 1f00 	tst.w	r4, #2097152	; 0x200000
 800643c:	68ec      	ldr	r4, [r5, #12]
 800643e:	d01f      	beq.n	8006480 <HAL_GPIO_Init+0x1b4>
 8006440:	ea44 040c 	orr.w	r4, r4, ip
 8006444:	60ec      	str	r4, [r5, #12]
 8006446:	680e      	ldr	r6, [r1, #0]
 8006448:	3301      	adds	r3, #1
 800644a:	fa36 f403 	lsrs.w	r4, r6, r3
 800644e:	f102 0204 	add.w	r2, r2, #4
 8006452:	f47f af51 	bne.w	80062f8 <HAL_GPIO_Init+0x2c>
 8006456:	b003      	add	sp, #12
 8006458:	e8bd 8ff0 	ldmia.w	sp!, {r4, r5, r6, r7, r8, r9, sl, fp, pc}
 800645c:	4546      	cmp	r6, r8
 800645e:	d00a      	beq.n	8006476 <HAL_GPIO_Init+0x1aa>
 8006460:	f67f af63 	bls.w	800632a <HAL_GPIO_Init+0x5e>
 8006464:	f8df e0b0 	ldr.w	lr, [pc, #176]	; 8006518 <HAL_GPIO_Init+0x24c>
 8006468:	4576      	cmp	r6, lr
 800646a:	d004      	beq.n	8006476 <HAL_GPIO_Init+0x1aa>
 800646c:	f50e 3e80 	add.w	lr, lr, #65536	; 0x10000
 8006470:	4576      	cmp	r6, lr
 8006472:	f47f af69 	bne.w	8006348 <HAL_GPIO_Init+0x7c>
 8006476:	688e      	ldr	r6, [r1, #8]
 8006478:	bb3e      	cbnz	r6, 80064ca <HAL_GPIO_Init+0x1fe>
 800647a:	f04f 0a04 	mov.w	sl, #4
 800647e:	e763      	b.n	8006348 <HAL_GPIO_Init+0x7c>
 8006480:	ea24 040c 	bic.w	r4, r4, ip
 8006484:	60ec      	str	r4, [r5, #12]
 8006486:	680e      	ldr	r6, [r1, #0]
 8006488:	e72f      	b.n	80062ea <HAL_GPIO_Init+0x1e>
 800648a:	68cc      	ldr	r4, [r1, #12]
 800648c:	f104 0a04 	add.w	sl, r4, #4
 8006490:	e75a      	b.n	8006348 <HAL_GPIO_Init+0x7c>
 8006492:	68cc      	ldr	r4, [r1, #12]
 8006494:	f104 0a08 	add.w	sl, r4, #8
 8006498:	e756      	b.n	8006348 <HAL_GPIO_Init+0x7c>
 800649a:	f8d1 a00c 	ldr.w	sl, [r1, #12]
 800649e:	e753      	b.n	8006348 <HAL_GPIO_Init+0x7c>
 80064a0:	68cc      	ldr	r4, [r1, #12]
 80064a2:	f104 0a0c 	add.w	sl, r4, #12
 80064a6:	e74f      	b.n	8006348 <HAL_GPIO_Init+0x7c>
 80064a8:	f04f 0b02 	mov.w	fp, #2
 80064ac:	fa0b f909 	lsl.w	r9, fp, r9
 80064b0:	ea46 0609 	orr.w	r6, r6, r9
 80064b4:	e7a3      	b.n	80063fe <HAL_GPIO_Init+0x132>
 80064b6:	f04f 0b01 	mov.w	fp, #1
 80064ba:	fa0b f909 	lsl.w	r9, fp, r9
 80064be:	ea46 0609 	orr.w	r6, r6, r9
 80064c2:	e79c      	b.n	80063fe <HAL_GPIO_Init+0x132>
 80064c4:	f04f 0a00 	mov.w	sl, #0
 80064c8:	e73e      	b.n	8006348 <HAL_GPIO_Init+0x7c>
 80064ca:	2e01      	cmp	r6, #1
 80064cc:	f04f 0a08 	mov.w	sl, #8
 80064d0:	bf0c      	ite	eq
 80064d2:	6104      	streq	r4, [r0, #16]
 80064d4:	6144      	strne	r4, [r0, #20]
 80064d6:	e737      	b.n	8006348 <HAL_GPIO_Init+0x7c>
 80064d8:	f04f 0b03 	mov.w	fp, #3
 80064dc:	fa0b f909 	lsl.w	r9, fp, r9
 80064e0:	ea46 0609 	orr.w	r6, r6, r9
 80064e4:	e78b      	b.n	80063fe <HAL_GPIO_Init+0x132>
 80064e6:	f04f 0b04 	mov.w	fp, #4
 80064ea:	fa0b f909 	lsl.w	r9, fp, r9
 80064ee:	ea46 0609 	orr.w	r6, r6, r9
 80064f2:	e784      	b.n	80063fe <HAL_GPIO_Init+0x132>
 80064f4:	40021000 	.word	0x40021000
 80064f8:	40010400 	.word	0x40010400
 80064fc:	10220000 	.word	0x10220000
 8006500:	10120000 	.word	0x10120000
 8006504:	40010800 	.word	0x40010800
 8006508:	40011000 	.word	0x40011000
 800650c:	40011400 	.word	0x40011400
 8006510:	40011800 	.word	0x40011800
 8006514:	40011c00 	.word	0x40011c00
 8006518:	10310000 	.word	0x10310000

0800651c <HAL_GPIO_ReadPin>:
 800651c:	6883      	ldr	r3, [r0, #8]
 800651e:	4219      	tst	r1, r3
 8006520:	bf14      	ite	ne
 8006522:	2001      	movne	r0, #1
 8006524:	2000      	moveq	r0, #0
 8006526:	4770      	bx	lr

08006528 <HAL_GPIO_WritePin>:
 8006528:	b902      	cbnz	r2, 800652c <HAL_GPIO_WritePin+0x4>
 800652a:	0409      	lsls	r1, r1, #16
 800652c:	6101      	str	r1, [r0, #16]
 800652e:	4770      	bx	lr

08006530 <HAL_GPIO_TogglePin>:
 8006530:	68c3      	ldr	r3, [r0, #12]
 8006532:	ea01 0203 	and.w	r2, r1, r3
 8006536:	ea21 0103 	bic.w	r1, r1, r3
 800653a:	ea41 4102 	orr.w	r1, r1, r2, lsl #16
 800653e:	6101      	str	r1, [r0, #16]
 8006540:	4770      	bx	lr
 8006542:	bf00      	nop

08006544 <I2C_RequestMemoryWrite>:
 8006544:	e92d 4ff0 	stmdb	sp!, {r4, r5, r6, r7, r8, r9, sl, fp, lr}
 8006548:	4606      	mov	r6, r0
 800654a:	468a      	mov	sl, r1
 800654c:	4617      	mov	r7, r2
 800654e:	6804      	ldr	r4, [r0, #0]
 8006550:	4698      	mov	r8, r3
 8006552:	6823      	ldr	r3, [r4, #0]
 8006554:	b083      	sub	sp, #12
 8006556:	f443 7380 	orr.w	r3, r3, #256	; 0x100
 800655a:	6023      	str	r3, [r4, #0]
 800655c:	e9dd 9b0c 	ldrd	r9, fp, [sp, #48]	; 0x30
 8006560:	f1b9 3fff 	cmp.w	r9, #4294967295
 8006564:	d136      	bne.n	80065d4 <I2C_RequestMemoryWrite+0x90>
 8006566:	6965      	ldr	r5, [r4, #20]
 8006568:	07e8      	lsls	r0, r5, #31
 800656a:	d5fc      	bpl.n	8006566 <I2C_RequestMemoryWrite+0x22>
 800656c:	f00a 01fe 	and.w	r1, sl, #254	; 0xfe
 8006570:	6121      	str	r1, [r4, #16]
 8006572:	f1b9 3fff 	cmp.w	r9, #4294967295
 8006576:	d003      	beq.n	8006580 <I2C_RequestMemoryWrite+0x3c>
 8006578:	e052      	b.n	8006620 <I2C_RequestMemoryWrite+0xdc>
 800657a:	6961      	ldr	r1, [r4, #20]
 800657c:	054d      	lsls	r5, r1, #21
 800657e:	d460      	bmi.n	8006642 <I2C_RequestMemoryWrite+0xfe>
 8006580:	6961      	ldr	r1, [r4, #20]
 8006582:	078b      	lsls	r3, r1, #30
 8006584:	d5f9      	bpl.n	800657a <I2C_RequestMemoryWrite+0x36>
 8006586:	2300      	movs	r3, #0
 8006588:	9301      	str	r3, [sp, #4]
 800658a:	6963      	ldr	r3, [r4, #20]
 800658c:	9301      	str	r3, [sp, #4]
 800658e:	69a3      	ldr	r3, [r4, #24]
 8006590:	9301      	str	r3, [sp, #4]
 8006592:	9b01      	ldr	r3, [sp, #4]
 8006594:	f1b9 3fff 	cmp.w	r9, #4294967295
 8006598:	f040 80a4 	bne.w	80066e4 <I2C_RequestMemoryWrite+0x1a0>
 800659c:	6963      	ldr	r3, [r4, #20]
 800659e:	061a      	lsls	r2, r3, #24
 80065a0:	d467      	bmi.n	8006672 <I2C_RequestMemoryWrite+0x12e>
 80065a2:	6963      	ldr	r3, [r4, #20]
 80065a4:	055b      	lsls	r3, r3, #21
 80065a6:	d5f9      	bpl.n	800659c <I2C_RequestMemoryWrite+0x58>
 80065a8:	2200      	movs	r2, #0
 80065aa:	2320      	movs	r3, #32
 80065ac:	f46f 6180 	mvn.w	r1, #1024	; 0x400
 80065b0:	6161      	str	r1, [r4, #20]
 80065b2:	6332      	str	r2, [r6, #48]	; 0x30
 80065b4:	f886 303d 	strb.w	r3, [r6, #61]	; 0x3d
 80065b8:	f886 203e 	strb.w	r2, [r6, #62]	; 0x3e
 80065bc:	6c33      	ldr	r3, [r6, #64]	; 0x40
 80065be:	f886 203c 	strb.w	r2, [r6, #60]	; 0x3c
 80065c2:	f043 0304 	orr.w	r3, r3, #4
 80065c6:	6433      	str	r3, [r6, #64]	; 0x40
 80065c8:	6c33      	ldr	r3, [r6, #64]	; 0x40
 80065ca:	2b04      	cmp	r3, #4
 80065cc:	f000 8083 	beq.w	80066d6 <I2C_RequestMemoryWrite+0x192>
 80065d0:	2001      	movs	r0, #1
 80065d2:	e04b      	b.n	800666c <I2C_RequestMemoryWrite+0x128>
 80065d4:	6963      	ldr	r3, [r4, #20]
 80065d6:	07d9      	lsls	r1, r3, #31
 80065d8:	d4c8      	bmi.n	800656c <I2C_RequestMemoryWrite+0x28>
 80065da:	f7ff f80b 	bl	80055f4 <HAL_GetTick>
 80065de:	eba0 000b 	sub.w	r0, r0, fp
 80065e2:	4581      	cmp	r9, r0
 80065e4:	d304      	bcc.n	80065f0 <I2C_RequestMemoryWrite+0xac>
 80065e6:	f1b9 0f00 	cmp.w	r9, #0
 80065ea:	d001      	beq.n	80065f0 <I2C_RequestMemoryWrite+0xac>
 80065ec:	6834      	ldr	r4, [r6, #0]
 80065ee:	e7b7      	b.n	8006560 <I2C_RequestMemoryWrite+0x1c>
 80065f0:	2200      	movs	r2, #0
 80065f2:	2320      	movs	r3, #32
 80065f4:	6332      	str	r2, [r6, #48]	; 0x30
 80065f6:	f886 303d 	strb.w	r3, [r6, #61]	; 0x3d
 80065fa:	f886 203e 	strb.w	r2, [r6, #62]	; 0x3e
 80065fe:	6c33      	ldr	r3, [r6, #64]	; 0x40
 8006600:	6831      	ldr	r1, [r6, #0]
 8006602:	f043 0320 	orr.w	r3, r3, #32
 8006606:	f886 203c 	strb.w	r2, [r6, #60]	; 0x3c
 800660a:	6433      	str	r3, [r6, #64]	; 0x40
 800660c:	680b      	ldr	r3, [r1, #0]
 800660e:	05dc      	lsls	r4, r3, #23
 8006610:	d538      	bpl.n	8006684 <I2C_RequestMemoryWrite+0x140>
 8006612:	f44f 7300 	mov.w	r3, #512	; 0x200
 8006616:	2003      	movs	r0, #3
 8006618:	6433      	str	r3, [r6, #64]	; 0x40
 800661a:	b003      	add	sp, #12
 800661c:	e8bd 8ff0 	ldmia.w	sp!, {r4, r5, r6, r7, r8, r9, sl, fp, pc}
 8006620:	6963      	ldr	r3, [r4, #20]
 8006622:	0798      	lsls	r0, r3, #30
 8006624:	d4af      	bmi.n	8006586 <I2C_RequestMemoryWrite+0x42>
 8006626:	6963      	ldr	r3, [r4, #20]
 8006628:	055a      	lsls	r2, r3, #21
 800662a:	d40a      	bmi.n	8006642 <I2C_RequestMemoryWrite+0xfe>
 800662c:	f7fe ffe2 	bl	80055f4 <HAL_GetTick>
 8006630:	eba0 000b 	sub.w	r0, r0, fp
 8006634:	4581      	cmp	r9, r0
 8006636:	d367      	bcc.n	8006708 <I2C_RequestMemoryWrite+0x1c4>
 8006638:	f1b9 0f00 	cmp.w	r9, #0
 800663c:	d064      	beq.n	8006708 <I2C_RequestMemoryWrite+0x1c4>
 800663e:	6834      	ldr	r4, [r6, #0]
 8006640:	e797      	b.n	8006572 <I2C_RequestMemoryWrite+0x2e>
 8006642:	2200      	movs	r2, #0
 8006644:	f46f 6580 	mvn.w	r5, #1024	; 0x400
 8006648:	2120      	movs	r1, #32
 800664a:	2001      	movs	r0, #1
 800664c:	6823      	ldr	r3, [r4, #0]
 800664e:	f443 7300 	orr.w	r3, r3, #512	; 0x200
 8006652:	6023      	str	r3, [r4, #0]
 8006654:	6165      	str	r5, [r4, #20]
 8006656:	6332      	str	r2, [r6, #48]	; 0x30
 8006658:	f886 103d 	strb.w	r1, [r6, #61]	; 0x3d
 800665c:	f886 203e 	strb.w	r2, [r6, #62]	; 0x3e
 8006660:	6c33      	ldr	r3, [r6, #64]	; 0x40
 8006662:	f886 203c 	strb.w	r2, [r6, #60]	; 0x3c
 8006666:	f043 0304 	orr.w	r3, r3, #4
 800666a:	6433      	str	r3, [r6, #64]	; 0x40
 800666c:	b003      	add	sp, #12
 800666e:	e8bd 8ff0 	ldmia.w	sp!, {r4, r5, r6, r7, r8, r9, sl, fp, pc}
 8006672:	f1b8 0f01 	cmp.w	r8, #1
 8006676:	d109      	bne.n	800668c <I2C_RequestMemoryWrite+0x148>
 8006678:	2000      	movs	r0, #0
 800667a:	b2ff      	uxtb	r7, r7
 800667c:	6127      	str	r7, [r4, #16]
 800667e:	b003      	add	sp, #12
 8006680:	e8bd 8ff0 	ldmia.w	sp!, {r4, r5, r6, r7, r8, r9, sl, fp, pc}
 8006684:	2003      	movs	r0, #3
 8006686:	b003      	add	sp, #12
 8006688:	e8bd 8ff0 	ldmia.w	sp!, {r4, r5, r6, r7, r8, r9, sl, fp, pc}
 800668c:	0a3b      	lsrs	r3, r7, #8
 800668e:	6123      	str	r3, [r4, #16]
 8006690:	f1b9 3fff 	cmp.w	r9, #4294967295
 8006694:	d147      	bne.n	8006726 <I2C_RequestMemoryWrite+0x1e2>
 8006696:	6963      	ldr	r3, [r4, #20]
 8006698:	0619      	lsls	r1, r3, #24
 800669a:	d4ed      	bmi.n	8006678 <I2C_RequestMemoryWrite+0x134>
 800669c:	6963      	ldr	r3, [r4, #20]
 800669e:	055a      	lsls	r2, r3, #21
 80066a0:	d5f9      	bpl.n	8006696 <I2C_RequestMemoryWrite+0x152>
 80066a2:	2200      	movs	r2, #0
 80066a4:	2320      	movs	r3, #32
 80066a6:	f46f 6180 	mvn.w	r1, #1024	; 0x400
 80066aa:	6161      	str	r1, [r4, #20]
 80066ac:	6332      	str	r2, [r6, #48]	; 0x30
 80066ae:	f886 303d 	strb.w	r3, [r6, #61]	; 0x3d
 80066b2:	f886 203e 	strb.w	r2, [r6, #62]	; 0x3e
 80066b6:	6c33      	ldr	r3, [r6, #64]	; 0x40
 80066b8:	f886 203c 	strb.w	r2, [r6, #60]	; 0x3c
 80066bc:	f043 0304 	orr.w	r3, r3, #4
 80066c0:	6433      	str	r3, [r6, #64]	; 0x40
 80066c2:	6c33      	ldr	r3, [r6, #64]	; 0x40
 80066c4:	2b04      	cmp	r3, #4
 80066c6:	d183      	bne.n	80065d0 <I2C_RequestMemoryWrite+0x8c>
 80066c8:	6832      	ldr	r2, [r6, #0]
 80066ca:	2001      	movs	r0, #1
 80066cc:	6813      	ldr	r3, [r2, #0]
 80066ce:	f443 7300 	orr.w	r3, r3, #512	; 0x200
 80066d2:	6013      	str	r3, [r2, #0]
 80066d4:	e7ca      	b.n	800666c <I2C_RequestMemoryWrite+0x128>
 80066d6:	6832      	ldr	r2, [r6, #0]
 80066d8:	2001      	movs	r0, #1
 80066da:	6813      	ldr	r3, [r2, #0]
 80066dc:	f443 7300 	orr.w	r3, r3, #512	; 0x200
 80066e0:	6013      	str	r3, [r2, #0]
 80066e2:	e7c3      	b.n	800666c <I2C_RequestMemoryWrite+0x128>
 80066e4:	6963      	ldr	r3, [r4, #20]
 80066e6:	061d      	lsls	r5, r3, #24
 80066e8:	d4c3      	bmi.n	8006672 <I2C_RequestMemoryWrite+0x12e>
 80066ea:	6963      	ldr	r3, [r4, #20]
 80066ec:	0559      	lsls	r1, r3, #21
 80066ee:	f53f af5b 	bmi.w	80065a8 <I2C_RequestMemoryWrite+0x64>
 80066f2:	f7fe ff7f 	bl	80055f4 <HAL_GetTick>
 80066f6:	eba0 030b 	sub.w	r3, r0, fp
 80066fa:	4599      	cmp	r9, r3
 80066fc:	d324      	bcc.n	8006748 <I2C_RequestMemoryWrite+0x204>
 80066fe:	f1b9 0f00 	cmp.w	r9, #0
 8006702:	d021      	beq.n	8006748 <I2C_RequestMemoryWrite+0x204>
 8006704:	6834      	ldr	r4, [r6, #0]
 8006706:	e745      	b.n	8006594 <I2C_RequestMemoryWrite+0x50>
 8006708:	2200      	movs	r2, #0
 800670a:	2320      	movs	r3, #32
 800670c:	6332      	str	r2, [r6, #48]	; 0x30
 800670e:	f886 303d 	strb.w	r3, [r6, #61]	; 0x3d
 8006712:	f886 203e 	strb.w	r2, [r6, #62]	; 0x3e
 8006716:	6c33      	ldr	r3, [r6, #64]	; 0x40
 8006718:	2001      	movs	r0, #1
 800671a:	f043 0320 	orr.w	r3, r3, #32
 800671e:	f886 203c 	strb.w	r2, [r6, #60]	; 0x3c
 8006722:	6433      	str	r3, [r6, #64]	; 0x40
 8006724:	e7a2      	b.n	800666c <I2C_RequestMemoryWrite+0x128>
 8006726:	6963      	ldr	r3, [r4, #20]
 8006728:	061b      	lsls	r3, r3, #24
 800672a:	d4a5      	bmi.n	8006678 <I2C_RequestMemoryWrite+0x134>
 800672c:	6963      	ldr	r3, [r4, #20]
 800672e:	0558      	lsls	r0, r3, #21
 8006730:	d4b7      	bmi.n	80066a2 <I2C_RequestMemoryWrite+0x15e>
 8006732:	f7fe ff5f 	bl	80055f4 <HAL_GetTick>
 8006736:	eba0 030b 	sub.w	r3, r0, fp
 800673a:	4599      	cmp	r9, r3
 800673c:	d312      	bcc.n	8006764 <I2C_RequestMemoryWrite+0x220>
 800673e:	f1b9 0f00 	cmp.w	r9, #0
 8006742:	d00f      	beq.n	8006764 <I2C_RequestMemoryWrite+0x220>
 8006744:	6834      	ldr	r4, [r6, #0]
 8006746:	e7a3      	b.n	8006690 <I2C_RequestMemoryWrite+0x14c>
 8006748:	2200      	movs	r2, #0
 800674a:	2320      	movs	r3, #32
 800674c:	6332      	str	r2, [r6, #48]	; 0x30
 800674e:	f886 303d 	strb.w	r3, [r6, #61]	; 0x3d
 8006752:	f886 203e 	strb.w	r2, [r6, #62]	; 0x3e
 8006756:	6c33      	ldr	r3, [r6, #64]	; 0x40
 8006758:	f886 203c 	strb.w	r2, [r6, #60]	; 0x3c
 800675c:	f043 0320 	orr.w	r3, r3, #32
 8006760:	6433      	str	r3, [r6, #64]	; 0x40
 8006762:	e731      	b.n	80065c8 <I2C_RequestMemoryWrite+0x84>
 8006764:	2200      	movs	r2, #0
 8006766:	2320      	movs	r3, #32
 8006768:	6332      	str	r2, [r6, #48]	; 0x30
 800676a:	f886 303d 	strb.w	r3, [r6, #61]	; 0x3d
 800676e:	f886 203e 	strb.w	r2, [r6, #62]	; 0x3e
 8006772:	6c33      	ldr	r3, [r6, #64]	; 0x40
 8006774:	f886 203c 	strb.w	r2, [r6, #60]	; 0x3c
 8006778:	f043 0320 	orr.w	r3, r3, #32
 800677c:	6433      	str	r3, [r6, #64]	; 0x40
 800677e:	e7a0      	b.n	80066c2 <I2C_RequestMemoryWrite+0x17e>

08006780 <I2C_RequestMemoryRead>:
 8006780:	e92d 4ff0 	stmdb	sp!, {r4, r5, r6, r7, r8, r9, sl, fp, lr}
 8006784:	4606      	mov	r6, r0
 8006786:	468b      	mov	fp, r1
 8006788:	4617      	mov	r7, r2
 800678a:	6804      	ldr	r4, [r0, #0]
 800678c:	4698      	mov	r8, r3
 800678e:	6823      	ldr	r3, [r4, #0]
 8006790:	b083      	sub	sp, #12
 8006792:	f443 6380 	orr.w	r3, r3, #1024	; 0x400
 8006796:	6023      	str	r3, [r4, #0]
 8006798:	6823      	ldr	r3, [r4, #0]
 800679a:	e9dd a90c 	ldrd	sl, r9, [sp, #48]	; 0x30
 800679e:	f443 7380 	orr.w	r3, r3, #256	; 0x100
 80067a2:	6023      	str	r3, [r4, #0]
 80067a4:	f1ba 3fff 	cmp.w	sl, #4294967295
 80067a8:	d139      	bne.n	800681e <I2C_RequestMemoryRead+0x9e>
 80067aa:	6965      	ldr	r5, [r4, #20]
 80067ac:	07eb      	lsls	r3, r5, #31
 80067ae:	d5fc      	bpl.n	80067aa <I2C_RequestMemoryRead+0x2a>
 80067b0:	f00b 03fe 	and.w	r3, fp, #254	; 0xfe
 80067b4:	6123      	str	r3, [r4, #16]
 80067b6:	fa5f fb8b 	uxtb.w	fp, fp
 80067ba:	f1ba 3fff 	cmp.w	sl, #4294967295
 80067be:	d003      	beq.n	80067c8 <I2C_RequestMemoryRead+0x48>
 80067c0:	e06b      	b.n	800689a <I2C_RequestMemoryRead+0x11a>
 80067c2:	6961      	ldr	r1, [r4, #20]
 80067c4:	054a      	lsls	r2, r1, #21
 80067c6:	d450      	bmi.n	800686a <I2C_RequestMemoryRead+0xea>
 80067c8:	6961      	ldr	r1, [r4, #20]
 80067ca:	0789      	lsls	r1, r1, #30
 80067cc:	d5f9      	bpl.n	80067c2 <I2C_RequestMemoryRead+0x42>
 80067ce:	2300      	movs	r3, #0
 80067d0:	9301      	str	r3, [sp, #4]
 80067d2:	6963      	ldr	r3, [r4, #20]
 80067d4:	9301      	str	r3, [sp, #4]
 80067d6:	69a3      	ldr	r3, [r4, #24]
 80067d8:	9301      	str	r3, [sp, #4]
 80067da:	9b01      	ldr	r3, [sp, #4]
 80067dc:	f1ba 3fff 	cmp.w	sl, #4294967295
 80067e0:	f040 80bf 	bne.w	8006962 <I2C_RequestMemoryRead+0x1e2>
 80067e4:	6963      	ldr	r3, [r4, #20]
 80067e6:	0618      	lsls	r0, r3, #24
 80067e8:	d46a      	bmi.n	80068c0 <I2C_RequestMemoryRead+0x140>
 80067ea:	6963      	ldr	r3, [r4, #20]
 80067ec:	0559      	lsls	r1, r3, #21
 80067ee:	d5f9      	bpl.n	80067e4 <I2C_RequestMemoryRead+0x64>
 80067f0:	2200      	movs	r2, #0
 80067f2:	2320      	movs	r3, #32
 80067f4:	f46f 6180 	mvn.w	r1, #1024	; 0x400
 80067f8:	6161      	str	r1, [r4, #20]
 80067fa:	6332      	str	r2, [r6, #48]	; 0x30
 80067fc:	f886 303d 	strb.w	r3, [r6, #61]	; 0x3d
 8006800:	f886 203e 	strb.w	r2, [r6, #62]	; 0x3e
 8006804:	6c33      	ldr	r3, [r6, #64]	; 0x40
 8006806:	f886 203c 	strb.w	r2, [r6, #60]	; 0x3c
 800680a:	f043 0304 	orr.w	r3, r3, #4
 800680e:	6433      	str	r3, [r6, #64]	; 0x40
 8006810:	6c33      	ldr	r3, [r6, #64]	; 0x40
 8006812:	2b04      	cmp	r3, #4
 8006814:	d073      	beq.n	80068fe <I2C_RequestMemoryRead+0x17e>
 8006816:	2001      	movs	r0, #1
 8006818:	b003      	add	sp, #12
 800681a:	e8bd 8ff0 	ldmia.w	sp!, {r4, r5, r6, r7, r8, r9, sl, fp, pc}
 800681e:	6963      	ldr	r3, [r4, #20]
 8006820:	07dd      	lsls	r5, r3, #31
 8006822:	d4c5      	bmi.n	80067b0 <I2C_RequestMemoryRead+0x30>
 8006824:	f7fe fee6 	bl	80055f4 <HAL_GetTick>
 8006828:	eba0 0009 	sub.w	r0, r0, r9
 800682c:	4582      	cmp	sl, r0
 800682e:	d304      	bcc.n	800683a <I2C_RequestMemoryRead+0xba>
 8006830:	f1ba 0f00 	cmp.w	sl, #0
 8006834:	d001      	beq.n	800683a <I2C_RequestMemoryRead+0xba>
 8006836:	6834      	ldr	r4, [r6, #0]
 8006838:	e7b4      	b.n	80067a4 <I2C_RequestMemoryRead+0x24>
 800683a:	2200      	movs	r2, #0
 800683c:	2320      	movs	r3, #32
 800683e:	6332      	str	r2, [r6, #48]	; 0x30
 8006840:	f886 303d 	strb.w	r3, [r6, #61]	; 0x3d
 8006844:	f886 203e 	strb.w	r2, [r6, #62]	; 0x3e
 8006848:	6c33      	ldr	r3, [r6, #64]	; 0x40
 800684a:	6831      	ldr	r1, [r6, #0]
 800684c:	f043 0320 	orr.w	r3, r3, #32
 8006850:	f886 203c 	strb.w	r2, [r6, #60]	; 0x3c
 8006854:	6433      	str	r3, [r6, #64]	; 0x40
 8006856:	680b      	ldr	r3, [r1, #0]
 8006858:	05da      	lsls	r2, r3, #23
 800685a:	d540      	bpl.n	80068de <I2C_RequestMemoryRead+0x15e>
 800685c:	f44f 7300 	mov.w	r3, #512	; 0x200
 8006860:	2003      	movs	r0, #3
 8006862:	6433      	str	r3, [r6, #64]	; 0x40
 8006864:	b003      	add	sp, #12
 8006866:	e8bd 8ff0 	ldmia.w	sp!, {r4, r5, r6, r7, r8, r9, sl, fp, pc}
 800686a:	2200      	movs	r2, #0
 800686c:	f46f 6580 	mvn.w	r5, #1024	; 0x400
 8006870:	2120      	movs	r1, #32
 8006872:	2001      	movs	r0, #1
 8006874:	6823      	ldr	r3, [r4, #0]
 8006876:	f443 7300 	orr.w	r3, r3, #512	; 0x200
 800687a:	6023      	str	r3, [r4, #0]
 800687c:	6165      	str	r5, [r4, #20]
 800687e:	6332      	str	r2, [r6, #48]	; 0x30
 8006880:	f886 103d 	strb.w	r1, [r6, #61]	; 0x3d
 8006884:	f886 203e 	strb.w	r2, [r6, #62]	; 0x3e
 8006888:	6c33      	ldr	r3, [r6, #64]	; 0x40
 800688a:	f886 203c 	strb.w	r2, [r6, #60]	; 0x3c
 800688e:	f043 0304 	orr.w	r3, r3, #4
 8006892:	6433      	str	r3, [r6, #64]	; 0x40
 8006894:	b003      	add	sp, #12
 8006896:	e8bd 8ff0 	ldmia.w	sp!, {r4, r5, r6, r7, r8, r9, sl, fp, pc}
 800689a:	6963      	ldr	r3, [r4, #20]
 800689c:	079b      	lsls	r3, r3, #30
 800689e:	d496      	bmi.n	80067ce <I2C_RequestMemoryRead+0x4e>
 80068a0:	6963      	ldr	r3, [r4, #20]
 80068a2:	0558      	lsls	r0, r3, #21
 80068a4:	d4e1      	bmi.n	800686a <I2C_RequestMemoryRead+0xea>
 80068a6:	f7fe fea5 	bl	80055f4 <HAL_GetTick>
 80068aa:	eba0 0009 	sub.w	r0, r0, r9
 80068ae:	4582      	cmp	sl, r0
 80068b0:	f0c0 808f 	bcc.w	80069d2 <I2C_RequestMemoryRead+0x252>
 80068b4:	f1ba 0f00 	cmp.w	sl, #0
 80068b8:	f000 808b 	beq.w	80069d2 <I2C_RequestMemoryRead+0x252>
 80068bc:	6834      	ldr	r4, [r6, #0]
 80068be:	e77c      	b.n	80067ba <I2C_RequestMemoryRead+0x3a>
 80068c0:	f1b8 0f01 	cmp.w	r8, #1
 80068c4:	d10f      	bne.n	80068e6 <I2C_RequestMemoryRead+0x166>
 80068c6:	b2ff      	uxtb	r7, r7
 80068c8:	6127      	str	r7, [r4, #16]
 80068ca:	f1ba 3fff 	cmp.w	sl, #4294967295
 80068ce:	d16e      	bne.n	80069ae <I2C_RequestMemoryRead+0x22e>
 80068d0:	6963      	ldr	r3, [r4, #20]
 80068d2:	061b      	lsls	r3, r3, #24
 80068d4:	d41a      	bmi.n	800690c <I2C_RequestMemoryRead+0x18c>
 80068d6:	6963      	ldr	r3, [r4, #20]
 80068d8:	055f      	lsls	r7, r3, #21
 80068da:	d5f9      	bpl.n	80068d0 <I2C_RequestMemoryRead+0x150>
 80068dc:	e788      	b.n	80067f0 <I2C_RequestMemoryRead+0x70>
 80068de:	2003      	movs	r0, #3
 80068e0:	b003      	add	sp, #12
 80068e2:	e8bd 8ff0 	ldmia.w	sp!, {r4, r5, r6, r7, r8, r9, sl, fp, pc}
 80068e6:	0a3b      	lsrs	r3, r7, #8
 80068e8:	6123      	str	r3, [r4, #16]
 80068ea:	f1ba 3fff 	cmp.w	sl, #4294967295
 80068ee:	d17f      	bne.n	80069f0 <I2C_RequestMemoryRead+0x270>
 80068f0:	6963      	ldr	r3, [r4, #20]
 80068f2:	061d      	lsls	r5, r3, #24
 80068f4:	d4e7      	bmi.n	80068c6 <I2C_RequestMemoryRead+0x146>
 80068f6:	6963      	ldr	r3, [r4, #20]
 80068f8:	0558      	lsls	r0, r3, #21
 80068fa:	d5f9      	bpl.n	80068f0 <I2C_RequestMemoryRead+0x170>
 80068fc:	e778      	b.n	80067f0 <I2C_RequestMemoryRead+0x70>
 80068fe:	6832      	ldr	r2, [r6, #0]
 8006900:	2001      	movs	r0, #1
 8006902:	6813      	ldr	r3, [r2, #0]
 8006904:	f443 7300 	orr.w	r3, r3, #512	; 0x200
 8006908:	6013      	str	r3, [r2, #0]
 800690a:	e7c3      	b.n	8006894 <I2C_RequestMemoryRead+0x114>
 800690c:	6823      	ldr	r3, [r4, #0]
 800690e:	f443 7380 	orr.w	r3, r3, #256	; 0x100
 8006912:	6023      	str	r3, [r4, #0]
 8006914:	f1ba 3fff 	cmp.w	sl, #4294967295
 8006918:	d113      	bne.n	8006942 <I2C_RequestMemoryRead+0x1c2>
 800691a:	6963      	ldr	r3, [r4, #20]
 800691c:	07d8      	lsls	r0, r3, #31
 800691e:	d5fc      	bpl.n	800691a <I2C_RequestMemoryRead+0x19a>
 8006920:	f04b 0301 	orr.w	r3, fp, #1
 8006924:	6123      	str	r3, [r4, #16]
 8006926:	f1ba 3fff 	cmp.w	sl, #4294967295
 800692a:	d003      	beq.n	8006934 <I2C_RequestMemoryRead+0x1b4>
 800692c:	e02b      	b.n	8006986 <I2C_RequestMemoryRead+0x206>
 800692e:	6963      	ldr	r3, [r4, #20]
 8006930:	055b      	lsls	r3, r3, #21
 8006932:	d49a      	bmi.n	800686a <I2C_RequestMemoryRead+0xea>
 8006934:	6963      	ldr	r3, [r4, #20]
 8006936:	43db      	mvns	r3, r3
 8006938:	f013 0302 	ands.w	r3, r3, #2
 800693c:	d1f7      	bne.n	800692e <I2C_RequestMemoryRead+0x1ae>
 800693e:	4618      	mov	r0, r3
 8006940:	e7a8      	b.n	8006894 <I2C_RequestMemoryRead+0x114>
 8006942:	6963      	ldr	r3, [r4, #20]
 8006944:	07d9      	lsls	r1, r3, #31
 8006946:	d4eb      	bmi.n	8006920 <I2C_RequestMemoryRead+0x1a0>
 8006948:	f7fe fe54 	bl	80055f4 <HAL_GetTick>
 800694c:	eba0 0309 	sub.w	r3, r0, r9
 8006950:	459a      	cmp	sl, r3
 8006952:	f4ff af72 	bcc.w	800683a <I2C_RequestMemoryRead+0xba>
 8006956:	f1ba 0f00 	cmp.w	sl, #0
 800695a:	f43f af6e 	beq.w	800683a <I2C_RequestMemoryRead+0xba>
 800695e:	6834      	ldr	r4, [r6, #0]
 8006960:	e7d8      	b.n	8006914 <I2C_RequestMemoryRead+0x194>
 8006962:	6963      	ldr	r3, [r4, #20]
 8006964:	061a      	lsls	r2, r3, #24
 8006966:	d4ab      	bmi.n	80068c0 <I2C_RequestMemoryRead+0x140>
 8006968:	6963      	ldr	r3, [r4, #20]
 800696a:	055d      	lsls	r5, r3, #21
 800696c:	f53f af40 	bmi.w	80067f0 <I2C_RequestMemoryRead+0x70>
 8006970:	f7fe fe40 	bl	80055f4 <HAL_GetTick>
 8006974:	eba0 0309 	sub.w	r3, r0, r9
 8006978:	459a      	cmp	sl, r3
 800697a:	d34c      	bcc.n	8006a16 <I2C_RequestMemoryRead+0x296>
 800697c:	f1ba 0f00 	cmp.w	sl, #0
 8006980:	d049      	beq.n	8006a16 <I2C_RequestMemoryRead+0x296>
 8006982:	6834      	ldr	r4, [r6, #0]
 8006984:	e72a      	b.n	80067dc <I2C_RequestMemoryRead+0x5c>
 8006986:	6963      	ldr	r3, [r4, #20]
 8006988:	43db      	mvns	r3, r3
 800698a:	f013 0302 	ands.w	r3, r3, #2
 800698e:	d0d6      	beq.n	800693e <I2C_RequestMemoryRead+0x1be>
 8006990:	6963      	ldr	r3, [r4, #20]
 8006992:	055a      	lsls	r2, r3, #21
 8006994:	f53f af69 	bmi.w	800686a <I2C_RequestMemoryRead+0xea>
 8006998:	f7fe fe2c 	bl	80055f4 <HAL_GetTick>
 800699c:	eba0 0309 	sub.w	r3, r0, r9
 80069a0:	459a      	cmp	sl, r3
 80069a2:	d316      	bcc.n	80069d2 <I2C_RequestMemoryRead+0x252>
 80069a4:	f1ba 0f00 	cmp.w	sl, #0
 80069a8:	d013      	beq.n	80069d2 <I2C_RequestMemoryRead+0x252>
 80069aa:	6834      	ldr	r4, [r6, #0]
 80069ac:	e7bb      	b.n	8006926 <I2C_RequestMemoryRead+0x1a6>
 80069ae:	6963      	ldr	r3, [r4, #20]
 80069b0:	061d      	lsls	r5, r3, #24
 80069b2:	d4ab      	bmi.n	800690c <I2C_RequestMemoryRead+0x18c>
 80069b4:	6963      	ldr	r3, [r4, #20]
 80069b6:	055a      	lsls	r2, r3, #21
 80069b8:	f53f af1a 	bmi.w	80067f0 <I2C_RequestMemoryRead+0x70>
 80069bc:	f7fe fe1a 	bl	80055f4 <HAL_GetTick>
 80069c0:	eba0 0309 	sub.w	r3, r0, r9
 80069c4:	459a      	cmp	sl, r3
 80069c6:	d326      	bcc.n	8006a16 <I2C_RequestMemoryRead+0x296>
 80069c8:	f1ba 0f00 	cmp.w	sl, #0
 80069cc:	d023      	beq.n	8006a16 <I2C_RequestMemoryRead+0x296>
 80069ce:	6834      	ldr	r4, [r6, #0]
 80069d0:	e77b      	b.n	80068ca <I2C_RequestMemoryRead+0x14a>
 80069d2:	2200      	movs	r2, #0
 80069d4:	2320      	movs	r3, #32
 80069d6:	6332      	str	r2, [r6, #48]	; 0x30
 80069d8:	f886 303d 	strb.w	r3, [r6, #61]	; 0x3d
 80069dc:	f886 203e 	strb.w	r2, [r6, #62]	; 0x3e
 80069e0:	6c33      	ldr	r3, [r6, #64]	; 0x40
 80069e2:	2001      	movs	r0, #1
 80069e4:	f043 0320 	orr.w	r3, r3, #32
 80069e8:	f886 203c 	strb.w	r2, [r6, #60]	; 0x3c
 80069ec:	6433      	str	r3, [r6, #64]	; 0x40
 80069ee:	e751      	b.n	8006894 <I2C_RequestMemoryRead+0x114>
 80069f0:	6963      	ldr	r3, [r4, #20]
 80069f2:	0619      	lsls	r1, r3, #24
 80069f4:	f53f af67 	bmi.w	80068c6 <I2C_RequestMemoryRead+0x146>
 80069f8:	6963      	ldr	r3, [r4, #20]
 80069fa:	055b      	lsls	r3, r3, #21
 80069fc:	f53f aef8 	bmi.w	80067f0 <I2C_RequestMemoryRead+0x70>
 8006a00:	f7fe fdf8 	bl	80055f4 <HAL_GetTick>
 8006a04:	eba0 0309 	sub.w	r3, r0, r9
 8006a08:	459a      	cmp	sl, r3
 8006a0a:	d304      	bcc.n	8006a16 <I2C_RequestMemoryRead+0x296>
 8006a0c:	f1ba 0f00 	cmp.w	sl, #0
 8006a10:	d001      	beq.n	8006a16 <I2C_RequestMemoryRead+0x296>
 8006a12:	6834      	ldr	r4, [r6, #0]
 8006a14:	e769      	b.n	80068ea <I2C_RequestMemoryRead+0x16a>
 8006a16:	2200      	movs	r2, #0
 8006a18:	2320      	movs	r3, #32
 8006a1a:	6332      	str	r2, [r6, #48]	; 0x30
 8006a1c:	f886 303d 	strb.w	r3, [r6, #61]	; 0x3d
 8006a20:	f886 203e 	strb.w	r2, [r6, #62]	; 0x3e
 8006a24:	6c33      	ldr	r3, [r6, #64]	; 0x40
 8006a26:	f886 203c 	strb.w	r2, [r6, #60]	; 0x3c
 8006a2a:	f043 0320 	orr.w	r3, r3, #32
 8006a2e:	6433      	str	r3, [r6, #64]	; 0x40
 8006a30:	e6ee      	b.n	8006810 <I2C_RequestMemoryRead+0x90>
 8006a32:	bf00      	nop

08006a34 <HAL_I2C_Init>:
 8006a34:	2800      	cmp	r0, #0
 8006a36:	f000 80b9 	beq.w	8006bac <HAL_I2C_Init+0x178>
 8006a3a:	b538      	push	{r3, r4, r5, lr}
 8006a3c:	f890 303d 	ldrb.w	r3, [r0, #61]	; 0x3d
 8006a40:	4604      	mov	r4, r0
 8006a42:	f003 02ff 	and.w	r2, r3, #255	; 0xff
 8006a46:	2b00      	cmp	r3, #0
 8006a48:	f000 8098 	beq.w	8006b7c <HAL_I2C_Init+0x148>
 8006a4c:	2224      	movs	r2, #36	; 0x24
 8006a4e:	6823      	ldr	r3, [r4, #0]
 8006a50:	f884 203d 	strb.w	r2, [r4, #61]	; 0x3d
 8006a54:	681a      	ldr	r2, [r3, #0]
 8006a56:	f022 0201 	bic.w	r2, r2, #1
 8006a5a:	601a      	str	r2, [r3, #0]
 8006a5c:	681a      	ldr	r2, [r3, #0]
 8006a5e:	f442 4200 	orr.w	r2, r2, #32768	; 0x8000
 8006a62:	601a      	str	r2, [r3, #0]
 8006a64:	681a      	ldr	r2, [r3, #0]
 8006a66:	f422 4200 	bic.w	r2, r2, #32768	; 0x8000
 8006a6a:	601a      	str	r2, [r3, #0]
 8006a6c:	f000 ffce 	bl	8007a0c <HAL_RCC_GetPCLK1Freq>
 8006a70:	6863      	ldr	r3, [r4, #4]
 8006a72:	494f      	ldr	r1, [pc, #316]	; (8006bb0 <HAL_I2C_Init+0x17c>)
 8006a74:	428b      	cmp	r3, r1
 8006a76:	d84f      	bhi.n	8006b18 <HAL_I2C_Init+0xe4>
 8006a78:	4a4e      	ldr	r2, [pc, #312]	; (8006bb4 <HAL_I2C_Init+0x180>)
 8006a7a:	4290      	cmp	r0, r2
 8006a7c:	d97c      	bls.n	8006b78 <HAL_I2C_Init+0x144>
 8006a7e:	4d4e      	ldr	r5, [pc, #312]	; (8006bb8 <HAL_I2C_Init+0x184>)
 8006a80:	005a      	lsls	r2, r3, #1
 8006a82:	fba5 3500 	umull	r3, r5, r5, r0
 8006a86:	1e43      	subs	r3, r0, #1
 8006a88:	fbb3 f3f2 	udiv	r3, r3, r2
 8006a8c:	f640 7efc 	movw	lr, #4092	; 0xffc
 8006a90:	6822      	ldr	r2, [r4, #0]
 8006a92:	0ca9      	lsrs	r1, r5, #18
 8006a94:	6850      	ldr	r0, [r2, #4]
 8006a96:	f101 0c01 	add.w	ip, r1, #1
 8006a9a:	f020 003f 	bic.w	r0, r0, #63	; 0x3f
 8006a9e:	ea40 4095 	orr.w	r0, r0, r5, lsr #18
 8006aa2:	6050      	str	r0, [r2, #4]
 8006aa4:	6a11      	ldr	r1, [r2, #32]
 8006aa6:	3301      	adds	r3, #1
 8006aa8:	f021 013f 	bic.w	r1, r1, #63	; 0x3f
 8006aac:	ea41 010c 	orr.w	r1, r1, ip
 8006ab0:	6211      	str	r1, [r2, #32]
 8006ab2:	69d1      	ldr	r1, [r2, #28]
 8006ab4:	ea13 0f0e 	tst.w	r3, lr
 8006ab8:	f421 414f 	bic.w	r1, r1, #52992	; 0xcf00
 8006abc:	f021 01ff 	bic.w	r1, r1, #255	; 0xff
 8006ac0:	d161      	bne.n	8006b86 <HAL_I2C_Init+0x152>
 8006ac2:	2304      	movs	r3, #4
 8006ac4:	430b      	orrs	r3, r1
 8006ac6:	61d3      	str	r3, [r2, #28]
 8006ac8:	6811      	ldr	r1, [r2, #0]
 8006aca:	e9d4 3007 	ldrd	r3, r0, [r4, #28]
 8006ace:	f021 01c0 	bic.w	r1, r1, #192	; 0xc0
 8006ad2:	4303      	orrs	r3, r0
 8006ad4:	430b      	orrs	r3, r1
 8006ad6:	6013      	str	r3, [r2, #0]
 8006ad8:	6891      	ldr	r1, [r2, #8]
 8006ada:	e9d4 0303 	ldrd	r0, r3, [r4, #12]
 8006ade:	f421 4103 	bic.w	r1, r1, #33536	; 0x8300
 8006ae2:	4303      	orrs	r3, r0
 8006ae4:	f021 01ff 	bic.w	r1, r1, #255	; 0xff
 8006ae8:	430b      	orrs	r3, r1
 8006aea:	6093      	str	r3, [r2, #8]
 8006aec:	68d0      	ldr	r0, [r2, #12]
 8006aee:	e9d4 3105 	ldrd	r3, r1, [r4, #20]
 8006af2:	f020 00ff 	bic.w	r0, r0, #255	; 0xff
 8006af6:	430b      	orrs	r3, r1
 8006af8:	4303      	orrs	r3, r0
 8006afa:	60d3      	str	r3, [r2, #12]
 8006afc:	6813      	ldr	r3, [r2, #0]
 8006afe:	2100      	movs	r1, #0
 8006b00:	f043 0301 	orr.w	r3, r3, #1
 8006b04:	6013      	str	r3, [r2, #0]
 8006b06:	2320      	movs	r3, #32
 8006b08:	6421      	str	r1, [r4, #64]	; 0x40
 8006b0a:	f884 303d 	strb.w	r3, [r4, #61]	; 0x3d
 8006b0e:	6321      	str	r1, [r4, #48]	; 0x30
 8006b10:	f884 103e 	strb.w	r1, [r4, #62]	; 0x3e
 8006b14:	4608      	mov	r0, r1
 8006b16:	bd38      	pop	{r3, r4, r5, pc}
 8006b18:	4a28      	ldr	r2, [pc, #160]	; (8006bbc <HAL_I2C_Init+0x188>)
 8006b1a:	4290      	cmp	r0, r2
 8006b1c:	d92c      	bls.n	8006b78 <HAL_I2C_Init+0x144>
 8006b1e:	4d26      	ldr	r5, [pc, #152]	; (8006bb8 <HAL_I2C_Init+0x184>)
 8006b20:	fba5 2c00 	umull	r2, ip, r5, r0
 8006b24:	f44f 7296 	mov.w	r2, #300	; 0x12c
 8006b28:	ea4f 419c 	mov.w	r1, ip, lsr #18
 8006b2c:	fb02 f101 	mul.w	r1, r2, r1
 8006b30:	4d23      	ldr	r5, [pc, #140]	; (8006bc0 <HAL_I2C_Init+0x18c>)
 8006b32:	6822      	ldr	r2, [r4, #0]
 8006b34:	fba5 5101 	umull	r5, r1, r5, r1
 8006b38:	6855      	ldr	r5, [r2, #4]
 8006b3a:	0989      	lsrs	r1, r1, #6
 8006b3c:	f025 053f 	bic.w	r5, r5, #63	; 0x3f
 8006b40:	ea45 459c 	orr.w	r5, r5, ip, lsr #18
 8006b44:	6055      	str	r5, [r2, #4]
 8006b46:	6a15      	ldr	r5, [r2, #32]
 8006b48:	3101      	adds	r1, #1
 8006b4a:	f025 053f 	bic.w	r5, r5, #63	; 0x3f
 8006b4e:	4329      	orrs	r1, r5
 8006b50:	6211      	str	r1, [r2, #32]
 8006b52:	69d1      	ldr	r1, [r2, #28]
 8006b54:	68a5      	ldr	r5, [r4, #8]
 8006b56:	f421 414f 	bic.w	r1, r1, #52992	; 0xcf00
 8006b5a:	f021 01ff 	bic.w	r1, r1, #255	; 0xff
 8006b5e:	b9ad      	cbnz	r5, 8006b8c <HAL_I2C_Init+0x158>
 8006b60:	3801      	subs	r0, #1
 8006b62:	eb03 0343 	add.w	r3, r3, r3, lsl #1
 8006b66:	fbb0 f3f3 	udiv	r3, r0, r3
 8006b6a:	3301      	adds	r3, #1
 8006b6c:	f3c3 030b 	ubfx	r3, r3, #0, #12
 8006b70:	b1d3      	cbz	r3, 8006ba8 <HAL_I2C_Init+0x174>
 8006b72:	f443 4300 	orr.w	r3, r3, #32768	; 0x8000
 8006b76:	e7a5      	b.n	8006ac4 <HAL_I2C_Init+0x90>
 8006b78:	2001      	movs	r0, #1
 8006b7a:	bd38      	pop	{r3, r4, r5, pc}
 8006b7c:	f880 203c 	strb.w	r2, [r0, #60]	; 0x3c
 8006b80:	f7fe facc 	bl	800511c <HAL_I2C_MspInit>
 8006b84:	e762      	b.n	8006a4c <HAL_I2C_Init+0x18>
 8006b86:	f3c3 030b 	ubfx	r3, r3, #0, #12
 8006b8a:	e79b      	b.n	8006ac4 <HAL_I2C_Init+0x90>
 8006b8c:	eb03 0383 	add.w	r3, r3, r3, lsl #2
 8006b90:	3801      	subs	r0, #1
 8006b92:	eb03 0383 	add.w	r3, r3, r3, lsl #2
 8006b96:	fbb0 f3f3 	udiv	r3, r0, r3
 8006b9a:	3301      	adds	r3, #1
 8006b9c:	f3c3 030b 	ubfx	r3, r3, #0, #12
 8006ba0:	b113      	cbz	r3, 8006ba8 <HAL_I2C_Init+0x174>
 8006ba2:	f443 4340 	orr.w	r3, r3, #49152	; 0xc000
 8006ba6:	e78d      	b.n	8006ac4 <HAL_I2C_Init+0x90>
 8006ba8:	2301      	movs	r3, #1
 8006baa:	e78b      	b.n	8006ac4 <HAL_I2C_Init+0x90>
 8006bac:	2001      	movs	r0, #1
 8006bae:	4770      	bx	lr
 8006bb0:	000186a0 	.word	0x000186a0
 8006bb4:	001e847f 	.word	0x001e847f
 8006bb8:	431bde83 	.word	0x431bde83
 8006bbc:	003d08ff 	.word	0x003d08ff
 8006bc0:	10624dd3 	.word	0x10624dd3

08006bc4 <HAL_I2C_Mem_Write>:
 8006bc4:	e92d 4ff0 	stmdb	sp!, {r4, r5, r6, r7, r8, r9, sl, fp, lr}
 8006bc8:	4604      	mov	r4, r0
 8006bca:	b083      	sub	sp, #12
 8006bcc:	4699      	mov	r9, r3
 8006bce:	460f      	mov	r7, r1
 8006bd0:	4690      	mov	r8, r2
 8006bd2:	f8bd a034 	ldrh.w	sl, [sp, #52]	; 0x34
 8006bd6:	9e0e      	ldr	r6, [sp, #56]	; 0x38
 8006bd8:	f7fe fd0c 	bl	80055f4 <HAL_GetTick>
 8006bdc:	f894 303d 	ldrb.w	r3, [r4, #61]	; 0x3d
 8006be0:	2b20      	cmp	r3, #32
 8006be2:	d004      	beq.n	8006bee <HAL_I2C_Mem_Write+0x2a>
 8006be4:	2702      	movs	r7, #2
 8006be6:	4638      	mov	r0, r7
 8006be8:	b003      	add	sp, #12
 8006bea:	e8bd 8ff0 	ldmia.w	sp!, {r4, r5, r6, r7, r8, r9, sl, fp, pc}
 8006bee:	4605      	mov	r5, r0
 8006bf0:	e005      	b.n	8006bfe <HAL_I2C_Mem_Write+0x3a>
 8006bf2:	f7fe fcff 	bl	80055f4 <HAL_GetTick>
 8006bf6:	1b40      	subs	r0, r0, r5
 8006bf8:	2819      	cmp	r0, #25
 8006bfa:	f200 80c0 	bhi.w	8006d7e <HAL_I2C_Mem_Write+0x1ba>
 8006bfe:	6820      	ldr	r0, [r4, #0]
 8006c00:	6983      	ldr	r3, [r0, #24]
 8006c02:	ea6f 0c03 	mvn.w	ip, r3
 8006c06:	f01c 0b02 	ands.w	fp, ip, #2
 8006c0a:	d0f2      	beq.n	8006bf2 <HAL_I2C_Mem_Write+0x2e>
 8006c0c:	f894 303c 	ldrb.w	r3, [r4, #60]	; 0x3c
 8006c10:	2b01      	cmp	r3, #1
 8006c12:	d0e7      	beq.n	8006be4 <HAL_I2C_Mem_Write+0x20>
 8006c14:	2301      	movs	r3, #1
 8006c16:	f884 303c 	strb.w	r3, [r4, #60]	; 0x3c
 8006c1a:	6803      	ldr	r3, [r0, #0]
 8006c1c:	07db      	lsls	r3, r3, #31
 8006c1e:	f140 808e 	bpl.w	8006d3e <HAL_I2C_Mem_Write+0x17a>
 8006c22:	4642      	mov	r2, r8
 8006c24:	f04f 0e40 	mov.w	lr, #64	; 0x40
 8006c28:	f04f 0c00 	mov.w	ip, #0
 8006c2c:	f04f 0821 	mov.w	r8, #33	; 0x21
 8006c30:	4639      	mov	r1, r7
 8006c32:	6807      	ldr	r7, [r0, #0]
 8006c34:	464b      	mov	r3, r9
 8006c36:	f427 6700 	bic.w	r7, r7, #2048	; 0x800
 8006c3a:	6007      	str	r7, [r0, #0]
 8006c3c:	980c      	ldr	r0, [sp, #48]	; 0x30
 8006c3e:	6260      	str	r0, [r4, #36]	; 0x24
 8006c40:	e9cd 6500 	strd	r6, r5, [sp]
 8006c44:	f884 803d 	strb.w	r8, [r4, #61]	; 0x3d
 8006c48:	f884 e03e 	strb.w	lr, [r4, #62]	; 0x3e
 8006c4c:	f8c4 c040 	str.w	ip, [r4, #64]	; 0x40
 8006c50:	f8a4 a02a 	strh.w	sl, [r4, #42]	; 0x2a
 8006c54:	8d60      	ldrh	r0, [r4, #42]	; 0x2a
 8006c56:	8520      	strh	r0, [r4, #40]	; 0x28
 8006c58:	486a      	ldr	r0, [pc, #424]	; (8006e04 <HAL_I2C_Mem_Write+0x240>)
 8006c5a:	62e0      	str	r0, [r4, #44]	; 0x2c
 8006c5c:	4620      	mov	r0, r4
 8006c5e:	f7ff fc71 	bl	8006544 <I2C_RequestMemoryWrite>
 8006c62:	4607      	mov	r7, r0
 8006c64:	bb00      	cbnz	r0, 8006ca8 <HAL_I2C_Mem_Write+0xe4>
 8006c66:	8d23      	ldrh	r3, [r4, #40]	; 0x28
 8006c68:	2b00      	cmp	r3, #0
 8006c6a:	f000 80ba 	beq.w	8006de2 <HAL_I2C_Mem_Write+0x21e>
 8006c6e:	6823      	ldr	r3, [r4, #0]
 8006c70:	1c71      	adds	r1, r6, #1
 8006c72:	d169      	bne.n	8006d48 <HAL_I2C_Mem_Write+0x184>
 8006c74:	695a      	ldr	r2, [r3, #20]
 8006c76:	0612      	lsls	r2, r2, #24
 8006c78:	d41b      	bmi.n	8006cb2 <HAL_I2C_Mem_Write+0xee>
 8006c7a:	695a      	ldr	r2, [r3, #20]
 8006c7c:	0550      	lsls	r0, r2, #21
 8006c7e:	d5f9      	bpl.n	8006c74 <HAL_I2C_Mem_Write+0xb0>
 8006c80:	2200      	movs	r2, #0
 8006c82:	f46f 6080 	mvn.w	r0, #1024	; 0x400
 8006c86:	2120      	movs	r1, #32
 8006c88:	6158      	str	r0, [r3, #20]
 8006c8a:	6322      	str	r2, [r4, #48]	; 0x30
 8006c8c:	f884 103d 	strb.w	r1, [r4, #61]	; 0x3d
 8006c90:	f884 203e 	strb.w	r2, [r4, #62]	; 0x3e
 8006c94:	6c23      	ldr	r3, [r4, #64]	; 0x40
 8006c96:	f884 203c 	strb.w	r2, [r4, #60]	; 0x3c
 8006c9a:	f043 0304 	orr.w	r3, r3, #4
 8006c9e:	6423      	str	r3, [r4, #64]	; 0x40
 8006ca0:	6c23      	ldr	r3, [r4, #64]	; 0x40
 8006ca2:	2b04      	cmp	r3, #4
 8006ca4:	f000 808a 	beq.w	8006dbc <HAL_I2C_Mem_Write+0x1f8>
 8006ca8:	2701      	movs	r7, #1
 8006caa:	4638      	mov	r0, r7
 8006cac:	b003      	add	sp, #12
 8006cae:	e8bd 8ff0 	ldmia.w	sp!, {r4, r5, r6, r7, r8, r9, sl, fp, pc}
 8006cb2:	6a60      	ldr	r0, [r4, #36]	; 0x24
 8006cb4:	f8b4 c028 	ldrh.w	ip, [r4, #40]	; 0x28
 8006cb8:	4602      	mov	r2, r0
 8006cba:	f812 eb01 	ldrb.w	lr, [r2], #1
 8006cbe:	f10c 31ff 	add.w	r1, ip, #4294967295
 8006cc2:	f8c3 e010 	str.w	lr, [r3, #16]
 8006cc6:	6262      	str	r2, [r4, #36]	; 0x24
 8006cc8:	8d62      	ldrh	r2, [r4, #42]	; 0x2a
 8006cca:	b289      	uxth	r1, r1
 8006ccc:	3a01      	subs	r2, #1
 8006cce:	b292      	uxth	r2, r2
 8006cd0:	8562      	strh	r2, [r4, #42]	; 0x2a
 8006cd2:	695a      	ldr	r2, [r3, #20]
 8006cd4:	8521      	strh	r1, [r4, #40]	; 0x28
 8006cd6:	0752      	lsls	r2, r2, #29
 8006cd8:	d52e      	bpl.n	8006d38 <HAL_I2C_Mem_Write+0x174>
 8006cda:	bb09      	cbnz	r1, 8006d20 <HAL_I2C_Mem_Write+0x15c>
 8006cdc:	1c72      	adds	r2, r6, #1
 8006cde:	d174      	bne.n	8006dca <HAL_I2C_Mem_Write+0x206>
 8006ce0:	695a      	ldr	r2, [r3, #20]
 8006ce2:	0750      	lsls	r0, r2, #29
 8006ce4:	d45d      	bmi.n	8006da2 <HAL_I2C_Mem_Write+0x1de>
 8006ce6:	695a      	ldr	r2, [r3, #20]
 8006ce8:	0551      	lsls	r1, r2, #21
 8006cea:	d5f9      	bpl.n	8006ce0 <HAL_I2C_Mem_Write+0x11c>
 8006cec:	2200      	movs	r2, #0
 8006cee:	f46f 6080 	mvn.w	r0, #1024	; 0x400
 8006cf2:	2120      	movs	r1, #32
 8006cf4:	6158      	str	r0, [r3, #20]
 8006cf6:	6322      	str	r2, [r4, #48]	; 0x30
 8006cf8:	f884 103d 	strb.w	r1, [r4, #61]	; 0x3d
 8006cfc:	f884 203e 	strb.w	r2, [r4, #62]	; 0x3e
 8006d00:	6c23      	ldr	r3, [r4, #64]	; 0x40
 8006d02:	f884 203c 	strb.w	r2, [r4, #60]	; 0x3c
 8006d06:	f043 0304 	orr.w	r3, r3, #4
 8006d0a:	6423      	str	r3, [r4, #64]	; 0x40
 8006d0c:	6c23      	ldr	r3, [r4, #64]	; 0x40
 8006d0e:	2b04      	cmp	r3, #4
 8006d10:	d1ca      	bne.n	8006ca8 <HAL_I2C_Mem_Write+0xe4>
 8006d12:	6822      	ldr	r2, [r4, #0]
 8006d14:	2701      	movs	r7, #1
 8006d16:	6813      	ldr	r3, [r2, #0]
 8006d18:	f443 7300 	orr.w	r3, r3, #512	; 0x200
 8006d1c:	6013      	str	r3, [r2, #0]
 8006d1e:	e762      	b.n	8006be6 <HAL_I2C_Mem_Write+0x22>
 8006d20:	7842      	ldrb	r2, [r0, #1]
 8006d22:	f1ac 0102 	sub.w	r1, ip, #2
 8006d26:	611a      	str	r2, [r3, #16]
 8006d28:	8d62      	ldrh	r2, [r4, #42]	; 0x2a
 8006d2a:	b289      	uxth	r1, r1
 8006d2c:	3a01      	subs	r2, #1
 8006d2e:	3002      	adds	r0, #2
 8006d30:	b292      	uxth	r2, r2
 8006d32:	6260      	str	r0, [r4, #36]	; 0x24
 8006d34:	8521      	strh	r1, [r4, #40]	; 0x28
 8006d36:	8562      	strh	r2, [r4, #42]	; 0x2a
 8006d38:	2900      	cmp	r1, #0
 8006d3a:	d199      	bne.n	8006c70 <HAL_I2C_Mem_Write+0xac>
 8006d3c:	e7ce      	b.n	8006cdc <HAL_I2C_Mem_Write+0x118>
 8006d3e:	6803      	ldr	r3, [r0, #0]
 8006d40:	f043 0301 	orr.w	r3, r3, #1
 8006d44:	6003      	str	r3, [r0, #0]
 8006d46:	e76c      	b.n	8006c22 <HAL_I2C_Mem_Write+0x5e>
 8006d48:	695a      	ldr	r2, [r3, #20]
 8006d4a:	0611      	lsls	r1, r2, #24
 8006d4c:	d4b1      	bmi.n	8006cb2 <HAL_I2C_Mem_Write+0xee>
 8006d4e:	695a      	ldr	r2, [r3, #20]
 8006d50:	0550      	lsls	r0, r2, #21
 8006d52:	d495      	bmi.n	8006c80 <HAL_I2C_Mem_Write+0xbc>
 8006d54:	f7fe fc4e 	bl	80055f4 <HAL_GetTick>
 8006d58:	1b40      	subs	r0, r0, r5
 8006d5a:	4286      	cmp	r6, r0
 8006d5c:	d301      	bcc.n	8006d62 <HAL_I2C_Mem_Write+0x19e>
 8006d5e:	2e00      	cmp	r6, #0
 8006d60:	d185      	bne.n	8006c6e <HAL_I2C_Mem_Write+0xaa>
 8006d62:	2200      	movs	r2, #0
 8006d64:	2320      	movs	r3, #32
 8006d66:	6322      	str	r2, [r4, #48]	; 0x30
 8006d68:	f884 303d 	strb.w	r3, [r4, #61]	; 0x3d
 8006d6c:	f884 203e 	strb.w	r2, [r4, #62]	; 0x3e
 8006d70:	6c23      	ldr	r3, [r4, #64]	; 0x40
 8006d72:	f884 203c 	strb.w	r2, [r4, #60]	; 0x3c
 8006d76:	f043 0320 	orr.w	r3, r3, #32
 8006d7a:	6423      	str	r3, [r4, #64]	; 0x40
 8006d7c:	e790      	b.n	8006ca0 <HAL_I2C_Mem_Write+0xdc>
 8006d7e:	2702      	movs	r7, #2
 8006d80:	2320      	movs	r3, #32
 8006d82:	4638      	mov	r0, r7
 8006d84:	f8c4 b030 	str.w	fp, [r4, #48]	; 0x30
 8006d88:	f884 303d 	strb.w	r3, [r4, #61]	; 0x3d
 8006d8c:	f884 b03e 	strb.w	fp, [r4, #62]	; 0x3e
 8006d90:	6c23      	ldr	r3, [r4, #64]	; 0x40
 8006d92:	f884 b03c 	strb.w	fp, [r4, #60]	; 0x3c
 8006d96:	f043 0320 	orr.w	r3, r3, #32
 8006d9a:	6423      	str	r3, [r4, #64]	; 0x40
 8006d9c:	b003      	add	sp, #12
 8006d9e:	e8bd 8ff0 	ldmia.w	sp!, {r4, r5, r6, r7, r8, r9, sl, fp, pc}
 8006da2:	2100      	movs	r1, #0
 8006da4:	2020      	movs	r0, #32
 8006da6:	681a      	ldr	r2, [r3, #0]
 8006da8:	f442 7200 	orr.w	r2, r2, #512	; 0x200
 8006dac:	601a      	str	r2, [r3, #0]
 8006dae:	f884 003d 	strb.w	r0, [r4, #61]	; 0x3d
 8006db2:	f884 103c 	strb.w	r1, [r4, #60]	; 0x3c
 8006db6:	f884 103e 	strb.w	r1, [r4, #62]	; 0x3e
 8006dba:	e714      	b.n	8006be6 <HAL_I2C_Mem_Write+0x22>
 8006dbc:	6822      	ldr	r2, [r4, #0]
 8006dbe:	2701      	movs	r7, #1
 8006dc0:	6813      	ldr	r3, [r2, #0]
 8006dc2:	f443 7300 	orr.w	r3, r3, #512	; 0x200
 8006dc6:	6013      	str	r3, [r2, #0]
 8006dc8:	e70d      	b.n	8006be6 <HAL_I2C_Mem_Write+0x22>
 8006dca:	695a      	ldr	r2, [r3, #20]
 8006dcc:	0752      	lsls	r2, r2, #29
 8006dce:	d4e8      	bmi.n	8006da2 <HAL_I2C_Mem_Write+0x1de>
 8006dd0:	695a      	ldr	r2, [r3, #20]
 8006dd2:	0551      	lsls	r1, r2, #21
 8006dd4:	d48a      	bmi.n	8006cec <HAL_I2C_Mem_Write+0x128>
 8006dd6:	f7fe fc0d 	bl	80055f4 <HAL_GetTick>
 8006dda:	1b43      	subs	r3, r0, r5
 8006ddc:	429e      	cmp	r6, r3
 8006dde:	d302      	bcc.n	8006de6 <HAL_I2C_Mem_Write+0x222>
 8006de0:	b10e      	cbz	r6, 8006de6 <HAL_I2C_Mem_Write+0x222>
 8006de2:	6823      	ldr	r3, [r4, #0]
 8006de4:	e77a      	b.n	8006cdc <HAL_I2C_Mem_Write+0x118>
 8006de6:	2200      	movs	r2, #0
 8006de8:	2320      	movs	r3, #32
 8006dea:	6322      	str	r2, [r4, #48]	; 0x30
 8006dec:	f884 303d 	strb.w	r3, [r4, #61]	; 0x3d
 8006df0:	f884 203e 	strb.w	r2, [r4, #62]	; 0x3e
 8006df4:	6c23      	ldr	r3, [r4, #64]	; 0x40
 8006df6:	f884 203c 	strb.w	r2, [r4, #60]	; 0x3c
 8006dfa:	f043 0320 	orr.w	r3, r3, #32
 8006dfe:	6423      	str	r3, [r4, #64]	; 0x40
 8006e00:	e784      	b.n	8006d0c <HAL_I2C_Mem_Write+0x148>
 8006e02:	bf00      	nop
 8006e04:	ffff0000 	.word	0xffff0000

08006e08 <HAL_I2C_Mem_Read>:
 8006e08:	e92d 4ff0 	stmdb	sp!, {r4, r5, r6, r7, r8, r9, sl, fp, lr}
 8006e0c:	2400      	movs	r4, #0
 8006e0e:	b089      	sub	sp, #36	; 0x24
 8006e10:	9403      	str	r4, [sp, #12]
 8006e12:	4604      	mov	r4, r0
 8006e14:	4699      	mov	r9, r3
 8006e16:	460f      	mov	r7, r1
 8006e18:	4690      	mov	r8, r2
 8006e1a:	f8bd a04c 	ldrh.w	sl, [sp, #76]	; 0x4c
 8006e1e:	9e14      	ldr	r6, [sp, #80]	; 0x50
 8006e20:	f7fe fbe8 	bl	80055f4 <HAL_GetTick>
 8006e24:	f894 303d 	ldrb.w	r3, [r4, #61]	; 0x3d
 8006e28:	2b20      	cmp	r3, #32
 8006e2a:	d004      	beq.n	8006e36 <HAL_I2C_Mem_Read+0x2e>
 8006e2c:	2702      	movs	r7, #2
 8006e2e:	4638      	mov	r0, r7
 8006e30:	b009      	add	sp, #36	; 0x24
 8006e32:	e8bd 8ff0 	ldmia.w	sp!, {r4, r5, r6, r7, r8, r9, sl, fp, pc}
 8006e36:	4605      	mov	r5, r0
 8006e38:	e005      	b.n	8006e46 <HAL_I2C_Mem_Read+0x3e>
 8006e3a:	f7fe fbdb 	bl	80055f4 <HAL_GetTick>
 8006e3e:	1b40      	subs	r0, r0, r5
 8006e40:	2819      	cmp	r0, #25
 8006e42:	f200 80c1 	bhi.w	8006fc8 <HAL_I2C_Mem_Read+0x1c0>
 8006e46:	6820      	ldr	r0, [r4, #0]
 8006e48:	6983      	ldr	r3, [r0, #24]
 8006e4a:	ea6f 0c03 	mvn.w	ip, r3
 8006e4e:	f01c 0b02 	ands.w	fp, ip, #2
 8006e52:	d0f2      	beq.n	8006e3a <HAL_I2C_Mem_Read+0x32>
 8006e54:	f894 303c 	ldrb.w	r3, [r4, #60]	; 0x3c
 8006e58:	2b01      	cmp	r3, #1
 8006e5a:	d0e7      	beq.n	8006e2c <HAL_I2C_Mem_Read+0x24>
 8006e5c:	2301      	movs	r3, #1
 8006e5e:	f884 303c 	strb.w	r3, [r4, #60]	; 0x3c
 8006e62:	6803      	ldr	r3, [r0, #0]
 8006e64:	07d9      	lsls	r1, r3, #31
 8006e66:	d539      	bpl.n	8006edc <HAL_I2C_Mem_Read+0xd4>
 8006e68:	4642      	mov	r2, r8
 8006e6a:	f04f 0e40 	mov.w	lr, #64	; 0x40
 8006e6e:	f04f 0c00 	mov.w	ip, #0
 8006e72:	f04f 0822 	mov.w	r8, #34	; 0x22
 8006e76:	4639      	mov	r1, r7
 8006e78:	6807      	ldr	r7, [r0, #0]
 8006e7a:	464b      	mov	r3, r9
 8006e7c:	f427 6700 	bic.w	r7, r7, #2048	; 0x800
 8006e80:	6007      	str	r7, [r0, #0]
 8006e82:	9812      	ldr	r0, [sp, #72]	; 0x48
 8006e84:	6260      	str	r0, [r4, #36]	; 0x24
 8006e86:	e9cd 6500 	strd	r6, r5, [sp]
 8006e8a:	f884 803d 	strb.w	r8, [r4, #61]	; 0x3d
 8006e8e:	f884 e03e 	strb.w	lr, [r4, #62]	; 0x3e
 8006e92:	f8c4 c040 	str.w	ip, [r4, #64]	; 0x40
 8006e96:	f8a4 a02a 	strh.w	sl, [r4, #42]	; 0x2a
 8006e9a:	8d60      	ldrh	r0, [r4, #42]	; 0x2a
 8006e9c:	8520      	strh	r0, [r4, #40]	; 0x28
 8006e9e:	489c      	ldr	r0, [pc, #624]	; (8007110 <HAL_I2C_Mem_Read+0x308>)
 8006ea0:	62e0      	str	r0, [r4, #44]	; 0x2c
 8006ea2:	4620      	mov	r0, r4
 8006ea4:	f7ff fc6c 	bl	8006780 <I2C_RequestMemoryRead>
 8006ea8:	4607      	mov	r7, r0
 8006eaa:	2800      	cmp	r0, #0
 8006eac:	f040 809e 	bne.w	8006fec <HAL_I2C_Mem_Read+0x1e4>
 8006eb0:	8d22      	ldrh	r2, [r4, #40]	; 0x28
 8006eb2:	b9c2      	cbnz	r2, 8006ee6 <HAL_I2C_Mem_Read+0xde>
 8006eb4:	6823      	ldr	r3, [r4, #0]
 8006eb6:	9004      	str	r0, [sp, #16]
 8006eb8:	695a      	ldr	r2, [r3, #20]
 8006eba:	9204      	str	r2, [sp, #16]
 8006ebc:	699a      	ldr	r2, [r3, #24]
 8006ebe:	9204      	str	r2, [sp, #16]
 8006ec0:	9a04      	ldr	r2, [sp, #16]
 8006ec2:	681a      	ldr	r2, [r3, #0]
 8006ec4:	f442 7200 	orr.w	r2, r2, #512	; 0x200
 8006ec8:	601a      	str	r2, [r3, #0]
 8006eca:	2300      	movs	r3, #0
 8006ecc:	2220      	movs	r2, #32
 8006ece:	f884 303c 	strb.w	r3, [r4, #60]	; 0x3c
 8006ed2:	f884 203d 	strb.w	r2, [r4, #61]	; 0x3d
 8006ed6:	f884 303e 	strb.w	r3, [r4, #62]	; 0x3e
 8006eda:	e7a8      	b.n	8006e2e <HAL_I2C_Mem_Read+0x26>
 8006edc:	6803      	ldr	r3, [r0, #0]
 8006ede:	f043 0301 	orr.w	r3, r3, #1
 8006ee2:	6003      	str	r3, [r0, #0]
 8006ee4:	e7c0      	b.n	8006e68 <HAL_I2C_Mem_Read+0x60>
 8006ee6:	2a01      	cmp	r2, #1
 8006ee8:	f000 8143 	beq.w	8007172 <HAL_I2C_Mem_Read+0x36a>
 8006eec:	2a02      	cmp	r2, #2
 8006eee:	f000 80cd 	beq.w	800708c <HAL_I2C_Mem_Read+0x284>
 8006ef2:	6823      	ldr	r3, [r4, #0]
 8006ef4:	6819      	ldr	r1, [r3, #0]
 8006ef6:	f441 6180 	orr.w	r1, r1, #1024	; 0x400
 8006efa:	6019      	str	r1, [r3, #0]
 8006efc:	9007      	str	r0, [sp, #28]
 8006efe:	6959      	ldr	r1, [r3, #20]
 8006f00:	9107      	str	r1, [sp, #28]
 8006f02:	6999      	ldr	r1, [r3, #24]
 8006f04:	9107      	str	r1, [sp, #28]
 8006f06:	9907      	ldr	r1, [sp, #28]
 8006f08:	2a03      	cmp	r2, #3
 8006f0a:	f8df 9208 	ldr.w	r9, [pc, #520]	; 8007114 <HAL_I2C_Mem_Read+0x30c>
 8006f0e:	f8df 8208 	ldr.w	r8, [pc, #520]	; 8007118 <HAL_I2C_Mem_Read+0x310>
 8006f12:	d832      	bhi.n	8006f7a <HAL_I2C_Mem_Read+0x172>
 8006f14:	2a01      	cmp	r2, #1
 8006f16:	f000 80f8 	beq.w	800710a <HAL_I2C_Mem_Read+0x302>
 8006f1a:	2a02      	cmp	r2, #2
 8006f1c:	d176      	bne.n	800700c <HAL_I2C_Mem_Read+0x204>
 8006f1e:	1c71      	adds	r1, r6, #1
 8006f20:	f040 80cc 	bne.w	80070bc <HAL_I2C_Mem_Read+0x2b4>
 8006f24:	695a      	ldr	r2, [r3, #20]
 8006f26:	0752      	lsls	r2, r2, #29
 8006f28:	d5fc      	bpl.n	8006f24 <HAL_I2C_Mem_Read+0x11c>
 8006f2a:	b672      	cpsid	i
 8006f2c:	6823      	ldr	r3, [r4, #0]
 8006f2e:	6a61      	ldr	r1, [r4, #36]	; 0x24
 8006f30:	681a      	ldr	r2, [r3, #0]
 8006f32:	f442 7200 	orr.w	r2, r2, #512	; 0x200
 8006f36:	601a      	str	r2, [r3, #0]
 8006f38:	691b      	ldr	r3, [r3, #16]
 8006f3a:	700b      	strb	r3, [r1, #0]
 8006f3c:	8d63      	ldrh	r3, [r4, #42]	; 0x2a
 8006f3e:	3b01      	subs	r3, #1
 8006f40:	b29b      	uxth	r3, r3
 8006f42:	8563      	strh	r3, [r4, #42]	; 0x2a
 8006f44:	6a63      	ldr	r3, [r4, #36]	; 0x24
 8006f46:	3301      	adds	r3, #1
 8006f48:	6263      	str	r3, [r4, #36]	; 0x24
 8006f4a:	8d23      	ldrh	r3, [r4, #40]	; 0x28
 8006f4c:	3b01      	subs	r3, #1
 8006f4e:	8523      	strh	r3, [r4, #40]	; 0x28
 8006f50:	b662      	cpsie	i
 8006f52:	6823      	ldr	r3, [r4, #0]
 8006f54:	691a      	ldr	r2, [r3, #16]
 8006f56:	6a63      	ldr	r3, [r4, #36]	; 0x24
 8006f58:	701a      	strb	r2, [r3, #0]
 8006f5a:	8d63      	ldrh	r3, [r4, #42]	; 0x2a
 8006f5c:	8d22      	ldrh	r2, [r4, #40]	; 0x28
 8006f5e:	3b01      	subs	r3, #1
 8006f60:	b29b      	uxth	r3, r3
 8006f62:	8563      	strh	r3, [r4, #42]	; 0x2a
 8006f64:	6a63      	ldr	r3, [r4, #36]	; 0x24
 8006f66:	3a01      	subs	r2, #1
 8006f68:	b292      	uxth	r2, r2
 8006f6a:	3301      	adds	r3, #1
 8006f6c:	8522      	strh	r2, [r4, #40]	; 0x28
 8006f6e:	6263      	str	r3, [r4, #36]	; 0x24
 8006f70:	2a00      	cmp	r2, #0
 8006f72:	d0aa      	beq.n	8006eca <HAL_I2C_Mem_Read+0xc2>
 8006f74:	2a03      	cmp	r2, #3
 8006f76:	6823      	ldr	r3, [r4, #0]
 8006f78:	d9cc      	bls.n	8006f14 <HAL_I2C_Mem_Read+0x10c>
 8006f7a:	b95e      	cbnz	r6, 8006f94 <HAL_I2C_Mem_Read+0x18c>
 8006f7c:	e0aa      	b.n	80070d4 <HAL_I2C_Mem_Read+0x2cc>
 8006f7e:	695a      	ldr	r2, [r3, #20]
 8006f80:	06d0      	lsls	r0, r2, #27
 8006f82:	f100 80d8 	bmi.w	8007136 <HAL_I2C_Mem_Read+0x32e>
 8006f86:	f7fe fb35 	bl	80055f4 <HAL_GetTick>
 8006f8a:	1b40      	subs	r0, r0, r5
 8006f8c:	4286      	cmp	r6, r0
 8006f8e:	f0c0 80aa 	bcc.w	80070e6 <HAL_I2C_Mem_Read+0x2de>
 8006f92:	6823      	ldr	r3, [r4, #0]
 8006f94:	695a      	ldr	r2, [r3, #20]
 8006f96:	0652      	lsls	r2, r2, #25
 8006f98:	d5f1      	bpl.n	8006f7e <HAL_I2C_Mem_Read+0x176>
 8006f9a:	691a      	ldr	r2, [r3, #16]
 8006f9c:	6a63      	ldr	r3, [r4, #36]	; 0x24
 8006f9e:	701a      	strb	r2, [r3, #0]
 8006fa0:	8d63      	ldrh	r3, [r4, #42]	; 0x2a
 8006fa2:	6821      	ldr	r1, [r4, #0]
 8006fa4:	3b01      	subs	r3, #1
 8006fa6:	b29b      	uxth	r3, r3
 8006fa8:	8d22      	ldrh	r2, [r4, #40]	; 0x28
 8006faa:	8563      	strh	r3, [r4, #42]	; 0x2a
 8006fac:	6948      	ldr	r0, [r1, #20]
 8006fae:	6a63      	ldr	r3, [r4, #36]	; 0x24
 8006fb0:	3a01      	subs	r2, #1
 8006fb2:	b292      	uxth	r2, r2
 8006fb4:	f103 0c01 	add.w	ip, r3, #1
 8006fb8:	0740      	lsls	r0, r0, #29
 8006fba:	8522      	strh	r2, [r4, #40]	; 0x28
 8006fbc:	f8c4 c024 	str.w	ip, [r4, #36]	; 0x24
 8006fc0:	d5d6      	bpl.n	8006f70 <HAL_I2C_Mem_Read+0x168>
 8006fc2:	690a      	ldr	r2, [r1, #16]
 8006fc4:	705a      	strb	r2, [r3, #1]
 8006fc6:	e7c8      	b.n	8006f5a <HAL_I2C_Mem_Read+0x152>
 8006fc8:	2702      	movs	r7, #2
 8006fca:	2320      	movs	r3, #32
 8006fcc:	4638      	mov	r0, r7
 8006fce:	f8c4 b030 	str.w	fp, [r4, #48]	; 0x30
 8006fd2:	f884 303d 	strb.w	r3, [r4, #61]	; 0x3d
 8006fd6:	f884 b03e 	strb.w	fp, [r4, #62]	; 0x3e
 8006fda:	6c23      	ldr	r3, [r4, #64]	; 0x40
 8006fdc:	f884 b03c 	strb.w	fp, [r4, #60]	; 0x3c
 8006fe0:	f043 0320 	orr.w	r3, r3, #32
 8006fe4:	6423      	str	r3, [r4, #64]	; 0x40
 8006fe6:	b009      	add	sp, #36	; 0x24
 8006fe8:	e8bd 8ff0 	ldmia.w	sp!, {r4, r5, r6, r7, r8, r9, sl, fp, pc}
 8006fec:	2701      	movs	r7, #1
 8006fee:	4638      	mov	r0, r7
 8006ff0:	b009      	add	sp, #36	; 0x24
 8006ff2:	e8bd 8ff0 	ldmia.w	sp!, {r4, r5, r6, r7, r8, r9, sl, fp, pc}
 8006ff6:	695a      	ldr	r2, [r3, #20]
 8006ff8:	0752      	lsls	r2, r2, #29
 8006ffa:	d40c      	bmi.n	8007016 <HAL_I2C_Mem_Read+0x20e>
 8006ffc:	f7fe fafa 	bl	80055f4 <HAL_GetTick>
 8007000:	1b40      	subs	r0, r0, r5
 8007002:	4286      	cmp	r6, r0
 8007004:	d36f      	bcc.n	80070e6 <HAL_I2C_Mem_Read+0x2de>
 8007006:	2e00      	cmp	r6, #0
 8007008:	d06d      	beq.n	80070e6 <HAL_I2C_Mem_Read+0x2de>
 800700a:	6823      	ldr	r3, [r4, #0]
 800700c:	1c70      	adds	r0, r6, #1
 800700e:	d1f2      	bne.n	8006ff6 <HAL_I2C_Mem_Read+0x1ee>
 8007010:	695a      	ldr	r2, [r3, #20]
 8007012:	0751      	lsls	r1, r2, #29
 8007014:	d5fc      	bpl.n	8007010 <HAL_I2C_Mem_Read+0x208>
 8007016:	681a      	ldr	r2, [r3, #0]
 8007018:	f422 6280 	bic.w	r2, r2, #1024	; 0x400
 800701c:	601a      	str	r2, [r3, #0]
 800701e:	b672      	cpsid	i
 8007020:	6823      	ldr	r3, [r4, #0]
 8007022:	691a      	ldr	r2, [r3, #16]
 8007024:	6a63      	ldr	r3, [r4, #36]	; 0x24
 8007026:	701a      	strb	r2, [r3, #0]
 8007028:	f8d9 3000 	ldr.w	r3, [r9]
 800702c:	6a61      	ldr	r1, [r4, #36]	; 0x24
 800702e:	08db      	lsrs	r3, r3, #3
 8007030:	fba8 2303 	umull	r2, r3, r8, r3
 8007034:	8d62      	ldrh	r2, [r4, #42]	; 0x2a
 8007036:	0a1b      	lsrs	r3, r3, #8
 8007038:	eb03 0383 	add.w	r3, r3, r3, lsl #2
 800703c:	3a01      	subs	r2, #1
 800703e:	ebc3 03c3 	rsb	r3, r3, r3, lsl #3
 8007042:	b292      	uxth	r2, r2
 8007044:	8562      	strh	r2, [r4, #42]	; 0x2a
 8007046:	9303      	str	r3, [sp, #12]
 8007048:	8d23      	ldrh	r3, [r4, #40]	; 0x28
 800704a:	3b01      	subs	r3, #1
 800704c:	8523      	strh	r3, [r4, #40]	; 0x28
 800704e:	1c4b      	adds	r3, r1, #1
 8007050:	6263      	str	r3, [r4, #36]	; 0x24
 8007052:	e003      	b.n	800705c <HAL_I2C_Mem_Read+0x254>
 8007054:	6823      	ldr	r3, [r4, #0]
 8007056:	695a      	ldr	r2, [r3, #20]
 8007058:	0750      	lsls	r0, r2, #29
 800705a:	d47f      	bmi.n	800715c <HAL_I2C_Mem_Read+0x354>
 800705c:	9b03      	ldr	r3, [sp, #12]
 800705e:	3b01      	subs	r3, #1
 8007060:	9303      	str	r3, [sp, #12]
 8007062:	9b03      	ldr	r3, [sp, #12]
 8007064:	2b00      	cmp	r3, #0
 8007066:	d1f5      	bne.n	8007054 <HAL_I2C_Mem_Read+0x24c>
 8007068:	2220      	movs	r2, #32
 800706a:	6323      	str	r3, [r4, #48]	; 0x30
 800706c:	f884 203d 	strb.w	r2, [r4, #61]	; 0x3d
 8007070:	f884 303e 	strb.w	r3, [r4, #62]	; 0x3e
 8007074:	6c22      	ldr	r2, [r4, #64]	; 0x40
 8007076:	f042 0220 	orr.w	r2, r2, #32
 800707a:	6422      	str	r2, [r4, #64]	; 0x40
 800707c:	b662      	cpsie	i
 800707e:	2701      	movs	r7, #1
 8007080:	4638      	mov	r0, r7
 8007082:	f884 303c 	strb.w	r3, [r4, #60]	; 0x3c
 8007086:	b009      	add	sp, #36	; 0x24
 8007088:	e8bd 8ff0 	ldmia.w	sp!, {r4, r5, r6, r7, r8, r9, sl, fp, pc}
 800708c:	6822      	ldr	r2, [r4, #0]
 800708e:	6813      	ldr	r3, [r2, #0]
 8007090:	f443 6300 	orr.w	r3, r3, #2048	; 0x800
 8007094:	6013      	str	r3, [r2, #0]
 8007096:	b672      	cpsid	i
 8007098:	6823      	ldr	r3, [r4, #0]
 800709a:	9006      	str	r0, [sp, #24]
 800709c:	695a      	ldr	r2, [r3, #20]
 800709e:	9206      	str	r2, [sp, #24]
 80070a0:	699a      	ldr	r2, [r3, #24]
 80070a2:	9206      	str	r2, [sp, #24]
 80070a4:	9a06      	ldr	r2, [sp, #24]
 80070a6:	681a      	ldr	r2, [r3, #0]
 80070a8:	f422 6280 	bic.w	r2, r2, #1024	; 0x400
 80070ac:	601a      	str	r2, [r3, #0]
 80070ae:	b662      	cpsie	i
 80070b0:	8d22      	ldrh	r2, [r4, #40]	; 0x28
 80070b2:	2a00      	cmp	r2, #0
 80070b4:	f43f af09 	beq.w	8006eca <HAL_I2C_Mem_Read+0xc2>
 80070b8:	6823      	ldr	r3, [r4, #0]
 80070ba:	e725      	b.n	8006f08 <HAL_I2C_Mem_Read+0x100>
 80070bc:	695b      	ldr	r3, [r3, #20]
 80070be:	075b      	lsls	r3, r3, #29
 80070c0:	f53f af33 	bmi.w	8006f2a <HAL_I2C_Mem_Read+0x122>
 80070c4:	f7fe fa96 	bl	80055f4 <HAL_GetTick>
 80070c8:	1b40      	subs	r0, r0, r5
 80070ca:	4286      	cmp	r6, r0
 80070cc:	d30b      	bcc.n	80070e6 <HAL_I2C_Mem_Read+0x2de>
 80070ce:	b156      	cbz	r6, 80070e6 <HAL_I2C_Mem_Read+0x2de>
 80070d0:	6823      	ldr	r3, [r4, #0]
 80070d2:	e724      	b.n	8006f1e <HAL_I2C_Mem_Read+0x116>
 80070d4:	695a      	ldr	r2, [r3, #20]
 80070d6:	0652      	lsls	r2, r2, #25
 80070d8:	f53f af5f 	bmi.w	8006f9a <HAL_I2C_Mem_Read+0x192>
 80070dc:	695a      	ldr	r2, [r3, #20]
 80070de:	06d1      	lsls	r1, r2, #27
 80070e0:	d429      	bmi.n	8007136 <HAL_I2C_Mem_Read+0x32e>
 80070e2:	f7fe fa87 	bl	80055f4 <HAL_GetTick>
 80070e6:	2701      	movs	r7, #1
 80070e8:	2200      	movs	r2, #0
 80070ea:	2320      	movs	r3, #32
 80070ec:	4638      	mov	r0, r7
 80070ee:	6322      	str	r2, [r4, #48]	; 0x30
 80070f0:	f884 303d 	strb.w	r3, [r4, #61]	; 0x3d
 80070f4:	f884 203e 	strb.w	r2, [r4, #62]	; 0x3e
 80070f8:	6c23      	ldr	r3, [r4, #64]	; 0x40
 80070fa:	f884 203c 	strb.w	r2, [r4, #60]	; 0x3c
 80070fe:	f043 0320 	orr.w	r3, r3, #32
 8007102:	6423      	str	r3, [r4, #64]	; 0x40
 8007104:	b009      	add	sp, #36	; 0x24
 8007106:	e8bd 8ff0 	ldmia.w	sp!, {r4, r5, r6, r7, r8, r9, sl, fp, pc}
 800710a:	b96e      	cbnz	r6, 8007128 <HAL_I2C_Mem_Read+0x320>
 800710c:	e02d      	b.n	800716a <HAL_I2C_Mem_Read+0x362>
 800710e:	bf00      	nop
 8007110:	ffff0000 	.word	0xffff0000
 8007114:	20000008 	.word	0x20000008
 8007118:	14f8b589 	.word	0x14f8b589
 800711c:	f7fe fa6a 	bl	80055f4 <HAL_GetTick>
 8007120:	1b40      	subs	r0, r0, r5
 8007122:	4286      	cmp	r6, r0
 8007124:	d3df      	bcc.n	80070e6 <HAL_I2C_Mem_Read+0x2de>
 8007126:	6823      	ldr	r3, [r4, #0]
 8007128:	695a      	ldr	r2, [r3, #20]
 800712a:	0651      	lsls	r1, r2, #25
 800712c:	f53f af12 	bmi.w	8006f54 <HAL_I2C_Mem_Read+0x14c>
 8007130:	695a      	ldr	r2, [r3, #20]
 8007132:	06d2      	lsls	r2, r2, #27
 8007134:	d5f2      	bpl.n	800711c <HAL_I2C_Mem_Read+0x314>
 8007136:	f06f 0010 	mvn.w	r0, #16
 800713a:	2701      	movs	r7, #1
 800713c:	2200      	movs	r2, #0
 800713e:	2120      	movs	r1, #32
 8007140:	6158      	str	r0, [r3, #20]
 8007142:	4638      	mov	r0, r7
 8007144:	6322      	str	r2, [r4, #48]	; 0x30
 8007146:	f884 103d 	strb.w	r1, [r4, #61]	; 0x3d
 800714a:	f884 203e 	strb.w	r2, [r4, #62]	; 0x3e
 800714e:	6c23      	ldr	r3, [r4, #64]	; 0x40
 8007150:	f884 203c 	strb.w	r2, [r4, #60]	; 0x3c
 8007154:	6423      	str	r3, [r4, #64]	; 0x40
 8007156:	b009      	add	sp, #36	; 0x24
 8007158:	e8bd 8ff0 	ldmia.w	sp!, {r4, r5, r6, r7, r8, r9, sl, fp, pc}
 800715c:	681a      	ldr	r2, [r3, #0]
 800715e:	f442 7200 	orr.w	r2, r2, #512	; 0x200
 8007162:	601a      	str	r2, [r3, #0]
 8007164:	691b      	ldr	r3, [r3, #16]
 8007166:	704b      	strb	r3, [r1, #1]
 8007168:	e6e8      	b.n	8006f3c <HAL_I2C_Mem_Read+0x134>
 800716a:	695a      	ldr	r2, [r3, #20]
 800716c:	0650      	lsls	r0, r2, #25
 800716e:	d5b5      	bpl.n	80070dc <HAL_I2C_Mem_Read+0x2d4>
 8007170:	e6f0      	b.n	8006f54 <HAL_I2C_Mem_Read+0x14c>
 8007172:	6822      	ldr	r2, [r4, #0]
 8007174:	6813      	ldr	r3, [r2, #0]
 8007176:	f423 6380 	bic.w	r3, r3, #1024	; 0x400
 800717a:	6013      	str	r3, [r2, #0]
 800717c:	b672      	cpsid	i
 800717e:	6823      	ldr	r3, [r4, #0]
 8007180:	9005      	str	r0, [sp, #20]
 8007182:	695a      	ldr	r2, [r3, #20]
 8007184:	9205      	str	r2, [sp, #20]
 8007186:	699a      	ldr	r2, [r3, #24]
 8007188:	9205      	str	r2, [sp, #20]
 800718a:	9a05      	ldr	r2, [sp, #20]
 800718c:	681a      	ldr	r2, [r3, #0]
 800718e:	f442 7200 	orr.w	r2, r2, #512	; 0x200
 8007192:	601a      	str	r2, [r3, #0]
 8007194:	b662      	cpsie	i
 8007196:	e78b      	b.n	80070b0 <HAL_I2C_Mem_Read+0x2a8>

08007198 <HAL_I2C_IsDeviceReady>:
 8007198:	e92d 4ff0 	stmdb	sp!, {r4, r5, r6, r7, r8, r9, sl, fp, lr}
 800719c:	4605      	mov	r5, r0
 800719e:	b083      	sub	sp, #12
 80071a0:	461f      	mov	r7, r3
 80071a2:	468a      	mov	sl, r1
 80071a4:	4693      	mov	fp, r2
 80071a6:	f7fe fa25 	bl	80055f4 <HAL_GetTick>
 80071aa:	f895 303d 	ldrb.w	r3, [r5, #61]	; 0x3d
 80071ae:	2b20      	cmp	r3, #32
 80071b0:	d003      	beq.n	80071ba <HAL_I2C_IsDeviceReady+0x22>
 80071b2:	2002      	movs	r0, #2
 80071b4:	b003      	add	sp, #12
 80071b6:	e8bd 8ff0 	ldmia.w	sp!, {r4, r5, r6, r7, r8, r9, sl, fp, pc}
 80071ba:	4606      	mov	r6, r0
 80071bc:	e005      	b.n	80071ca <HAL_I2C_IsDeviceReady+0x32>
 80071be:	f7fe fa19 	bl	80055f4 <HAL_GetTick>
 80071c2:	1b80      	subs	r0, r0, r6
 80071c4:	2819      	cmp	r0, #25
 80071c6:	f200 80c1 	bhi.w	800734c <HAL_I2C_IsDeviceReady+0x1b4>
 80071ca:	682b      	ldr	r3, [r5, #0]
 80071cc:	699a      	ldr	r2, [r3, #24]
 80071ce:	43d2      	mvns	r2, r2
 80071d0:	f012 0402 	ands.w	r4, r2, #2
 80071d4:	d0f3      	beq.n	80071be <HAL_I2C_IsDeviceReady+0x26>
 80071d6:	f895 203c 	ldrb.w	r2, [r5, #60]	; 0x3c
 80071da:	2a01      	cmp	r2, #1
 80071dc:	d0e9      	beq.n	80071b2 <HAL_I2C_IsDeviceReady+0x1a>
 80071de:	2201      	movs	r2, #1
 80071e0:	f885 203c 	strb.w	r2, [r5, #60]	; 0x3c
 80071e4:	681a      	ldr	r2, [r3, #0]
 80071e6:	07d2      	lsls	r2, r2, #31
 80071e8:	f140 8095 	bpl.w	8007316 <HAL_I2C_IsDeviceReady+0x17e>
 80071ec:	2024      	movs	r0, #36	; 0x24
 80071ee:	2100      	movs	r1, #0
 80071f0:	f04f 0901 	mov.w	r9, #1
 80071f4:	f04f 08a0 	mov.w	r8, #160	; 0xa0
 80071f8:	681a      	ldr	r2, [r3, #0]
 80071fa:	f00a 0afe 	and.w	sl, sl, #254	; 0xfe
 80071fe:	f422 6200 	bic.w	r2, r2, #2048	; 0x800
 8007202:	601a      	str	r2, [r3, #0]
 8007204:	4a64      	ldr	r2, [pc, #400]	; (8007398 <HAL_I2C_IsDeviceReady+0x200>)
 8007206:	f885 003d 	strb.w	r0, [r5, #61]	; 0x3d
 800720a:	6429      	str	r1, [r5, #64]	; 0x40
 800720c:	62ea      	str	r2, [r5, #44]	; 0x2c
 800720e:	681a      	ldr	r2, [r3, #0]
 8007210:	f442 7280 	orr.w	r2, r2, #256	; 0x100
 8007214:	601a      	str	r2, [r3, #0]
 8007216:	1c7c      	adds	r4, r7, #1
 8007218:	d162      	bne.n	80072e0 <HAL_I2C_IsDeviceReady+0x148>
 800721a:	695a      	ldr	r2, [r3, #20]
 800721c:	07d0      	lsls	r0, r2, #31
 800721e:	d5fc      	bpl.n	800721a <HAL_I2C_IsDeviceReady+0x82>
 8007220:	f8c3 a010 	str.w	sl, [r3, #16]
 8007224:	f7fe f9e6 	bl	80055f4 <HAL_GetTick>
 8007228:	682b      	ldr	r3, [r5, #0]
 800722a:	4606      	mov	r6, r0
 800722c:	6959      	ldr	r1, [r3, #20]
 800722e:	695a      	ldr	r2, [r3, #20]
 8007230:	f895 403d 	ldrb.w	r4, [r5, #61]	; 0x3d
 8007234:	f001 0102 	and.w	r1, r1, #2
 8007238:	2ca0      	cmp	r4, #160	; 0xa0
 800723a:	f402 6280 	and.w	r2, r2, #1024	; 0x400
 800723e:	d018      	beq.n	8007272 <HAL_I2C_IsDeviceReady+0xda>
 8007240:	430a      	orrs	r2, r1
 8007242:	d116      	bne.n	8007272 <HAL_I2C_IsDeviceReady+0xda>
 8007244:	2f00      	cmp	r7, #0
 8007246:	d03b      	beq.n	80072c0 <HAL_I2C_IsDeviceReady+0x128>
 8007248:	e001      	b.n	800724e <HAL_I2C_IsDeviceReady+0xb6>
 800724a:	430a      	orrs	r2, r1
 800724c:	d111      	bne.n	8007272 <HAL_I2C_IsDeviceReady+0xda>
 800724e:	f7fe f9d1 	bl	80055f4 <HAL_GetTick>
 8007252:	1b80      	subs	r0, r0, r6
 8007254:	4287      	cmp	r7, r0
 8007256:	682b      	ldr	r3, [r5, #0]
 8007258:	bf38      	it	cc
 800725a:	f885 803d 	strbcc.w	r8, [r5, #61]	; 0x3d
 800725e:	6959      	ldr	r1, [r3, #20]
 8007260:	695a      	ldr	r2, [r3, #20]
 8007262:	f895 003d 	ldrb.w	r0, [r5, #61]	; 0x3d
 8007266:	f001 0102 	and.w	r1, r1, #2
 800726a:	28a0      	cmp	r0, #160	; 0xa0
 800726c:	f402 6280 	and.w	r2, r2, #1024	; 0x400
 8007270:	d1eb      	bne.n	800724a <HAL_I2C_IsDeviceReady+0xb2>
 8007272:	2220      	movs	r2, #32
 8007274:	f885 203d 	strb.w	r2, [r5, #61]	; 0x3d
 8007278:	695a      	ldr	r2, [r3, #20]
 800727a:	0792      	lsls	r2, r2, #30
 800727c:	d46c      	bmi.n	8007358 <HAL_I2C_IsDeviceReady+0x1c0>
 800727e:	f46f 6180 	mvn.w	r1, #1024	; 0x400
 8007282:	681a      	ldr	r2, [r3, #0]
 8007284:	f442 7200 	orr.w	r2, r2, #512	; 0x200
 8007288:	601a      	str	r2, [r3, #0]
 800728a:	6159      	str	r1, [r3, #20]
 800728c:	e005      	b.n	800729a <HAL_I2C_IsDeviceReady+0x102>
 800728e:	f7fe f9b1 	bl	80055f4 <HAL_GetTick>
 8007292:	1b80      	subs	r0, r0, r6
 8007294:	2819      	cmp	r0, #25
 8007296:	d82e      	bhi.n	80072f6 <HAL_I2C_IsDeviceReady+0x15e>
 8007298:	682b      	ldr	r3, [r5, #0]
 800729a:	699c      	ldr	r4, [r3, #24]
 800729c:	43e4      	mvns	r4, r4
 800729e:	f014 0402 	ands.w	r4, r4, #2
 80072a2:	d0f4      	beq.n	800728e <HAL_I2C_IsDeviceReady+0xf6>
 80072a4:	f109 0901 	add.w	r9, r9, #1
 80072a8:	45d9      	cmp	r9, fp
 80072aa:	d3b0      	bcc.n	800720e <HAL_I2C_IsDeviceReady+0x76>
 80072ac:	2220      	movs	r2, #32
 80072ae:	2300      	movs	r3, #0
 80072b0:	2001      	movs	r0, #1
 80072b2:	f885 203d 	strb.w	r2, [r5, #61]	; 0x3d
 80072b6:	f885 303c 	strb.w	r3, [r5, #60]	; 0x3c
 80072ba:	e77b      	b.n	80071b4 <HAL_I2C_IsDeviceReady+0x1c>
 80072bc:	430a      	orrs	r2, r1
 80072be:	d1d8      	bne.n	8007272 <HAL_I2C_IsDeviceReady+0xda>
 80072c0:	f7fe f998 	bl	80055f4 <HAL_GetTick>
 80072c4:	682b      	ldr	r3, [r5, #0]
 80072c6:	f885 803d 	strb.w	r8, [r5, #61]	; 0x3d
 80072ca:	6959      	ldr	r1, [r3, #20]
 80072cc:	695a      	ldr	r2, [r3, #20]
 80072ce:	f895 003d 	ldrb.w	r0, [r5, #61]	; 0x3d
 80072d2:	f001 0102 	and.w	r1, r1, #2
 80072d6:	28a0      	cmp	r0, #160	; 0xa0
 80072d8:	f402 6280 	and.w	r2, r2, #1024	; 0x400
 80072dc:	d1ee      	bne.n	80072bc <HAL_I2C_IsDeviceReady+0x124>
 80072de:	e7c8      	b.n	8007272 <HAL_I2C_IsDeviceReady+0xda>
 80072e0:	695a      	ldr	r2, [r3, #20]
 80072e2:	07d1      	lsls	r1, r2, #31
 80072e4:	d49c      	bmi.n	8007220 <HAL_I2C_IsDeviceReady+0x88>
 80072e6:	f7fe f985 	bl	80055f4 <HAL_GetTick>
 80072ea:	1b80      	subs	r0, r0, r6
 80072ec:	4287      	cmp	r7, r0
 80072ee:	d317      	bcc.n	8007320 <HAL_I2C_IsDeviceReady+0x188>
 80072f0:	b1b7      	cbz	r7, 8007320 <HAL_I2C_IsDeviceReady+0x188>
 80072f2:	682b      	ldr	r3, [r5, #0]
 80072f4:	e78f      	b.n	8007216 <HAL_I2C_IsDeviceReady+0x7e>
 80072f6:	2320      	movs	r3, #32
 80072f8:	2001      	movs	r0, #1
 80072fa:	632c      	str	r4, [r5, #48]	; 0x30
 80072fc:	f885 303d 	strb.w	r3, [r5, #61]	; 0x3d
 8007300:	f885 403e 	strb.w	r4, [r5, #62]	; 0x3e
 8007304:	6c2b      	ldr	r3, [r5, #64]	; 0x40
 8007306:	f885 403c 	strb.w	r4, [r5, #60]	; 0x3c
 800730a:	f043 0320 	orr.w	r3, r3, #32
 800730e:	642b      	str	r3, [r5, #64]	; 0x40
 8007310:	b003      	add	sp, #12
 8007312:	e8bd 8ff0 	ldmia.w	sp!, {r4, r5, r6, r7, r8, r9, sl, fp, pc}
 8007316:	681a      	ldr	r2, [r3, #0]
 8007318:	f042 0201 	orr.w	r2, r2, #1
 800731c:	601a      	str	r2, [r3, #0]
 800731e:	e765      	b.n	80071ec <HAL_I2C_IsDeviceReady+0x54>
 8007320:	2200      	movs	r2, #0
 8007322:	2320      	movs	r3, #32
 8007324:	632a      	str	r2, [r5, #48]	; 0x30
 8007326:	f885 303d 	strb.w	r3, [r5, #61]	; 0x3d
 800732a:	f885 203e 	strb.w	r2, [r5, #62]	; 0x3e
 800732e:	6c2b      	ldr	r3, [r5, #64]	; 0x40
 8007330:	6829      	ldr	r1, [r5, #0]
 8007332:	f043 0320 	orr.w	r3, r3, #32
 8007336:	f885 203c 	strb.w	r2, [r5, #60]	; 0x3c
 800733a:	642b      	str	r3, [r5, #64]	; 0x40
 800733c:	680b      	ldr	r3, [r1, #0]
 800733e:	05de      	lsls	r6, r3, #23
 8007340:	d508      	bpl.n	8007354 <HAL_I2C_IsDeviceReady+0x1bc>
 8007342:	f44f 7300 	mov.w	r3, #512	; 0x200
 8007346:	2003      	movs	r0, #3
 8007348:	642b      	str	r3, [r5, #64]	; 0x40
 800734a:	e733      	b.n	80071b4 <HAL_I2C_IsDeviceReady+0x1c>
 800734c:	2320      	movs	r3, #32
 800734e:	2002      	movs	r0, #2
 8007350:	632c      	str	r4, [r5, #48]	; 0x30
 8007352:	e7d3      	b.n	80072fc <HAL_I2C_IsDeviceReady+0x164>
 8007354:	2003      	movs	r0, #3
 8007356:	e72d      	b.n	80071b4 <HAL_I2C_IsDeviceReady+0x1c>
 8007358:	2100      	movs	r1, #0
 800735a:	681a      	ldr	r2, [r3, #0]
 800735c:	f442 7200 	orr.w	r2, r2, #512	; 0x200
 8007360:	601a      	str	r2, [r3, #0]
 8007362:	9101      	str	r1, [sp, #4]
 8007364:	695a      	ldr	r2, [r3, #20]
 8007366:	9201      	str	r2, [sp, #4]
 8007368:	699a      	ldr	r2, [r3, #24]
 800736a:	9201      	str	r2, [sp, #4]
 800736c:	9a01      	ldr	r2, [sp, #4]
 800736e:	e005      	b.n	800737c <HAL_I2C_IsDeviceReady+0x1e4>
 8007370:	f7fe f940 	bl	80055f4 <HAL_GetTick>
 8007374:	1b80      	subs	r0, r0, r6
 8007376:	2819      	cmp	r0, #25
 8007378:	d8bd      	bhi.n	80072f6 <HAL_I2C_IsDeviceReady+0x15e>
 800737a:	682b      	ldr	r3, [r5, #0]
 800737c:	699b      	ldr	r3, [r3, #24]
 800737e:	43db      	mvns	r3, r3
 8007380:	f013 0402 	ands.w	r4, r3, #2
 8007384:	d0f4      	beq.n	8007370 <HAL_I2C_IsDeviceReady+0x1d8>
 8007386:	2300      	movs	r3, #0
 8007388:	2220      	movs	r2, #32
 800738a:	4618      	mov	r0, r3
 800738c:	f885 203d 	strb.w	r2, [r5, #61]	; 0x3d
 8007390:	f885 303c 	strb.w	r3, [r5, #60]	; 0x3c
 8007394:	e70e      	b.n	80071b4 <HAL_I2C_IsDeviceReady+0x1c>
 8007396:	bf00      	nop
 8007398:	ffff0000 	.word	0xffff0000

0800739c <HAL_IWDG_MspInit>:
 800739c:	4770      	bx	lr
 800739e:	bf00      	nop

080073a0 <HAL_IWDG_Init>:
 80073a0:	b378      	cbz	r0, 8007402 <HAL_IWDG_Init+0x62>
 80073a2:	b538      	push	{r3, r4, r5, lr}
 80073a4:	6803      	ldr	r3, [r0, #0]
 80073a6:	4604      	mov	r4, r0
 80073a8:	68da      	ldr	r2, [r3, #12]
 80073aa:	07d1      	lsls	r1, r2, #31
 80073ac:	d502      	bpl.n	80073b4 <HAL_IWDG_Init+0x14>
 80073ae:	68da      	ldr	r2, [r3, #12]
 80073b0:	0792      	lsls	r2, r2, #30
 80073b2:	d424      	bmi.n	80073fe <HAL_IWDG_Init+0x5e>
 80073b4:	7b62      	ldrb	r2, [r4, #13]
 80073b6:	f002 01ff 	and.w	r1, r2, #255	; 0xff
 80073ba:	b1d2      	cbz	r2, 80073f2 <HAL_IWDG_Init+0x52>
 80073bc:	f04f 0e02 	mov.w	lr, #2
 80073c0:	f245 5155 	movw	r1, #21845	; 0x5555
 80073c4:	f04f 0c01 	mov.w	ip, #1
 80073c8:	f884 e00d 	strb.w	lr, [r4, #13]
 80073cc:	6862      	ldr	r2, [r4, #4]
 80073ce:	68a5      	ldr	r5, [r4, #8]
 80073d0:	6019      	str	r1, [r3, #0]
 80073d2:	6859      	ldr	r1, [r3, #4]
 80073d4:	2000      	movs	r0, #0
 80073d6:	f021 0107 	bic.w	r1, r1, #7
 80073da:	4311      	orrs	r1, r2
 80073dc:	6059      	str	r1, [r3, #4]
 80073de:	689a      	ldr	r2, [r3, #8]
 80073e0:	f422 627f 	bic.w	r2, r2, #4080	; 0xff0
 80073e4:	f022 020f 	bic.w	r2, r2, #15
 80073e8:	432a      	orrs	r2, r5
 80073ea:	609a      	str	r2, [r3, #8]
 80073ec:	f884 c00d 	strb.w	ip, [r4, #13]
 80073f0:	bd38      	pop	{r3, r4, r5, pc}
 80073f2:	4620      	mov	r0, r4
 80073f4:	7321      	strb	r1, [r4, #12]
 80073f6:	f7ff ffd1 	bl	800739c <HAL_IWDG_MspInit>
 80073fa:	6823      	ldr	r3, [r4, #0]
 80073fc:	e7de      	b.n	80073bc <HAL_IWDG_Init+0x1c>
 80073fe:	2001      	movs	r0, #1
 8007400:	bd38      	pop	{r3, r4, r5, pc}
 8007402:	2001      	movs	r0, #1
 8007404:	4770      	bx	lr
 8007406:	bf00      	nop

08007408 <HAL_RCC_OscConfig>:
 8007408:	2800      	cmp	r0, #0
 800740a:	f000 81b6 	beq.w	800777a <HAL_RCC_OscConfig+0x372>
 800740e:	e92d 41f0 	stmdb	sp!, {r4, r5, r6, r7, r8, lr}
 8007412:	6803      	ldr	r3, [r0, #0]
 8007414:	4604      	mov	r4, r0
 8007416:	07dd      	lsls	r5, r3, #31
 8007418:	b082      	sub	sp, #8
 800741a:	d535      	bpl.n	8007488 <HAL_RCC_OscConfig+0x80>
 800741c:	499a      	ldr	r1, [pc, #616]	; (8007688 <HAL_RCC_OscConfig+0x280>)
 800741e:	684a      	ldr	r2, [r1, #4]
 8007420:	f002 020c 	and.w	r2, r2, #12
 8007424:	2a04      	cmp	r2, #4
 8007426:	f000 80ef 	beq.w	8007608 <HAL_RCC_OscConfig+0x200>
 800742a:	684a      	ldr	r2, [r1, #4]
 800742c:	f002 020c 	and.w	r2, r2, #12
 8007430:	2a08      	cmp	r2, #8
 8007432:	f000 80e5 	beq.w	8007600 <HAL_RCC_OscConfig+0x1f8>
 8007436:	6863      	ldr	r3, [r4, #4]
 8007438:	f5b3 3f80 	cmp.w	r3, #65536	; 0x10000
 800743c:	d010      	beq.n	8007460 <HAL_RCC_OscConfig+0x58>
 800743e:	2b00      	cmp	r3, #0
 8007440:	f000 810c 	beq.w	800765c <HAL_RCC_OscConfig+0x254>
 8007444:	f5b3 2fa0 	cmp.w	r3, #327680	; 0x50000
 8007448:	f000 8182 	beq.w	8007750 <HAL_RCC_OscConfig+0x348>
 800744c:	4b8e      	ldr	r3, [pc, #568]	; (8007688 <HAL_RCC_OscConfig+0x280>)
 800744e:	681a      	ldr	r2, [r3, #0]
 8007450:	f422 3280 	bic.w	r2, r2, #65536	; 0x10000
 8007454:	601a      	str	r2, [r3, #0]
 8007456:	681a      	ldr	r2, [r3, #0]
 8007458:	f422 2280 	bic.w	r2, r2, #262144	; 0x40000
 800745c:	601a      	str	r2, [r3, #0]
 800745e:	e004      	b.n	800746a <HAL_RCC_OscConfig+0x62>
 8007460:	4a89      	ldr	r2, [pc, #548]	; (8007688 <HAL_RCC_OscConfig+0x280>)
 8007462:	6813      	ldr	r3, [r2, #0]
 8007464:	f443 3380 	orr.w	r3, r3, #65536	; 0x10000
 8007468:	6013      	str	r3, [r2, #0]
 800746a:	f7fe f8c3 	bl	80055f4 <HAL_GetTick>
 800746e:	4e86      	ldr	r6, [pc, #536]	; (8007688 <HAL_RCC_OscConfig+0x280>)
 8007470:	4605      	mov	r5, r0
 8007472:	e005      	b.n	8007480 <HAL_RCC_OscConfig+0x78>
 8007474:	f7fe f8be 	bl	80055f4 <HAL_GetTick>
 8007478:	1b40      	subs	r0, r0, r5
 800747a:	2864      	cmp	r0, #100	; 0x64
 800747c:	f200 80ea 	bhi.w	8007654 <HAL_RCC_OscConfig+0x24c>
 8007480:	6833      	ldr	r3, [r6, #0]
 8007482:	039a      	lsls	r2, r3, #14
 8007484:	d5f6      	bpl.n	8007474 <HAL_RCC_OscConfig+0x6c>
 8007486:	6823      	ldr	r3, [r4, #0]
 8007488:	079f      	lsls	r7, r3, #30
 800748a:	d528      	bpl.n	80074de <HAL_RCC_OscConfig+0xd6>
 800748c:	4a7e      	ldr	r2, [pc, #504]	; (8007688 <HAL_RCC_OscConfig+0x280>)
 800748e:	6851      	ldr	r1, [r2, #4]
 8007490:	f011 0f0c 	tst.w	r1, #12
 8007494:	f000 808d 	beq.w	80075b2 <HAL_RCC_OscConfig+0x1aa>
 8007498:	6851      	ldr	r1, [r2, #4]
 800749a:	f001 010c 	and.w	r1, r1, #12
 800749e:	2908      	cmp	r1, #8
 80074a0:	f000 8083 	beq.w	80075aa <HAL_RCC_OscConfig+0x1a2>
 80074a4:	6923      	ldr	r3, [r4, #16]
 80074a6:	2b00      	cmp	r3, #0
 80074a8:	f000 8118 	beq.w	80076dc <HAL_RCC_OscConfig+0x2d4>
 80074ac:	2201      	movs	r2, #1
 80074ae:	4b77      	ldr	r3, [pc, #476]	; (800768c <HAL_RCC_OscConfig+0x284>)
 80074b0:	4e75      	ldr	r6, [pc, #468]	; (8007688 <HAL_RCC_OscConfig+0x280>)
 80074b2:	601a      	str	r2, [r3, #0]
 80074b4:	f7fe f89e 	bl	80055f4 <HAL_GetTick>
 80074b8:	4605      	mov	r5, r0
 80074ba:	e005      	b.n	80074c8 <HAL_RCC_OscConfig+0xc0>
 80074bc:	f7fe f89a 	bl	80055f4 <HAL_GetTick>
 80074c0:	1b40      	subs	r0, r0, r5
 80074c2:	2802      	cmp	r0, #2
 80074c4:	f200 80c6 	bhi.w	8007654 <HAL_RCC_OscConfig+0x24c>
 80074c8:	6833      	ldr	r3, [r6, #0]
 80074ca:	0798      	lsls	r0, r3, #30
 80074cc:	d5f6      	bpl.n	80074bc <HAL_RCC_OscConfig+0xb4>
 80074ce:	6833      	ldr	r3, [r6, #0]
 80074d0:	6962      	ldr	r2, [r4, #20]
 80074d2:	f023 03f8 	bic.w	r3, r3, #248	; 0xf8
 80074d6:	ea43 03c2 	orr.w	r3, r3, r2, lsl #3
 80074da:	6033      	str	r3, [r6, #0]
 80074dc:	6823      	ldr	r3, [r4, #0]
 80074de:	071a      	lsls	r2, r3, #28
 80074e0:	d41f      	bmi.n	8007522 <HAL_RCC_OscConfig+0x11a>
 80074e2:	075d      	lsls	r5, r3, #29
 80074e4:	d542      	bpl.n	800756c <HAL_RCC_OscConfig+0x164>
 80074e6:	4b68      	ldr	r3, [pc, #416]	; (8007688 <HAL_RCC_OscConfig+0x280>)
 80074e8:	69da      	ldr	r2, [r3, #28]
 80074ea:	00d0      	lsls	r0, r2, #3
 80074ec:	d57d      	bpl.n	80075ea <HAL_RCC_OscConfig+0x1e2>
 80074ee:	2500      	movs	r5, #0
 80074f0:	4e67      	ldr	r6, [pc, #412]	; (8007690 <HAL_RCC_OscConfig+0x288>)
 80074f2:	6833      	ldr	r3, [r6, #0]
 80074f4:	05d9      	lsls	r1, r3, #23
 80074f6:	f140 809d 	bpl.w	8007634 <HAL_RCC_OscConfig+0x22c>
 80074fa:	68e3      	ldr	r3, [r4, #12]
 80074fc:	2b01      	cmp	r3, #1
 80074fe:	f000 80fe 	beq.w	80076fe <HAL_RCC_OscConfig+0x2f6>
 8007502:	2b00      	cmp	r3, #0
 8007504:	f000 80ca 	beq.w	800769c <HAL_RCC_OscConfig+0x294>
 8007508:	2b05      	cmp	r3, #5
 800750a:	4b5f      	ldr	r3, [pc, #380]	; (8007688 <HAL_RCC_OscConfig+0x280>)
 800750c:	6a1a      	ldr	r2, [r3, #32]
 800750e:	f000 812c 	beq.w	800776a <HAL_RCC_OscConfig+0x362>
 8007512:	f022 0201 	bic.w	r2, r2, #1
 8007516:	621a      	str	r2, [r3, #32]
 8007518:	6a1a      	ldr	r2, [r3, #32]
 800751a:	f022 0204 	bic.w	r2, r2, #4
 800751e:	621a      	str	r2, [r3, #32]
 8007520:	e0f2      	b.n	8007708 <HAL_RCC_OscConfig+0x300>
 8007522:	69a3      	ldr	r3, [r4, #24]
 8007524:	2b00      	cmp	r3, #0
 8007526:	d04f      	beq.n	80075c8 <HAL_RCC_OscConfig+0x1c0>
 8007528:	2201      	movs	r2, #1
 800752a:	4b58      	ldr	r3, [pc, #352]	; (800768c <HAL_RCC_OscConfig+0x284>)
 800752c:	4e56      	ldr	r6, [pc, #344]	; (8007688 <HAL_RCC_OscConfig+0x280>)
 800752e:	f8c3 2480 	str.w	r2, [r3, #1152]	; 0x480
 8007532:	f7fe f85f 	bl	80055f4 <HAL_GetTick>
 8007536:	4605      	mov	r5, r0
 8007538:	e005      	b.n	8007546 <HAL_RCC_OscConfig+0x13e>
 800753a:	f7fe f85b 	bl	80055f4 <HAL_GetTick>
 800753e:	1b40      	subs	r0, r0, r5
 8007540:	2802      	cmp	r0, #2
 8007542:	f200 8087 	bhi.w	8007654 <HAL_RCC_OscConfig+0x24c>
 8007546:	6a73      	ldr	r3, [r6, #36]	; 0x24
 8007548:	079b      	lsls	r3, r3, #30
 800754a:	d5f6      	bpl.n	800753a <HAL_RCC_OscConfig+0x132>
 800754c:	4b51      	ldr	r3, [pc, #324]	; (8007694 <HAL_RCC_OscConfig+0x28c>)
 800754e:	4a52      	ldr	r2, [pc, #328]	; (8007698 <HAL_RCC_OscConfig+0x290>)
 8007550:	681b      	ldr	r3, [r3, #0]
 8007552:	fba2 2303 	umull	r2, r3, r2, r3
 8007556:	0a5b      	lsrs	r3, r3, #9
 8007558:	9301      	str	r3, [sp, #4]
 800755a:	bf00      	nop
 800755c:	9b01      	ldr	r3, [sp, #4]
 800755e:	1e5a      	subs	r2, r3, #1
 8007560:	9201      	str	r2, [sp, #4]
 8007562:	2b00      	cmp	r3, #0
 8007564:	d1f9      	bne.n	800755a <HAL_RCC_OscConfig+0x152>
 8007566:	6823      	ldr	r3, [r4, #0]
 8007568:	075d      	lsls	r5, r3, #29
 800756a:	d4bc      	bmi.n	80074e6 <HAL_RCC_OscConfig+0xde>
 800756c:	69e0      	ldr	r0, [r4, #28]
 800756e:	b1c0      	cbz	r0, 80075a2 <HAL_RCC_OscConfig+0x19a>
 8007570:	4d45      	ldr	r5, [pc, #276]	; (8007688 <HAL_RCC_OscConfig+0x280>)
 8007572:	686b      	ldr	r3, [r5, #4]
 8007574:	f003 030c 	and.w	r3, r3, #12
 8007578:	2b08      	cmp	r3, #8
 800757a:	f000 80d8 	beq.w	800772e <HAL_RCC_OscConfig+0x326>
 800757e:	2200      	movs	r2, #0
 8007580:	4b42      	ldr	r3, [pc, #264]	; (800768c <HAL_RCC_OscConfig+0x284>)
 8007582:	2802      	cmp	r0, #2
 8007584:	661a      	str	r2, [r3, #96]	; 0x60
 8007586:	f000 80fa 	beq.w	800777e <HAL_RCC_OscConfig+0x376>
 800758a:	f7fe f833 	bl	80055f4 <HAL_GetTick>
 800758e:	4604      	mov	r4, r0
 8007590:	e004      	b.n	800759c <HAL_RCC_OscConfig+0x194>
 8007592:	f7fe f82f 	bl	80055f4 <HAL_GetTick>
 8007596:	1b00      	subs	r0, r0, r4
 8007598:	2802      	cmp	r0, #2
 800759a:	d85b      	bhi.n	8007654 <HAL_RCC_OscConfig+0x24c>
 800759c:	682b      	ldr	r3, [r5, #0]
 800759e:	019b      	lsls	r3, r3, #6
 80075a0:	d4f7      	bmi.n	8007592 <HAL_RCC_OscConfig+0x18a>
 80075a2:	2000      	movs	r0, #0
 80075a4:	b002      	add	sp, #8
 80075a6:	e8bd 81f0 	ldmia.w	sp!, {r4, r5, r6, r7, r8, pc}
 80075aa:	6852      	ldr	r2, [r2, #4]
 80075ac:	03d6      	lsls	r6, r2, #15
 80075ae:	f53f af79 	bmi.w	80074a4 <HAL_RCC_OscConfig+0x9c>
 80075b2:	4a35      	ldr	r2, [pc, #212]	; (8007688 <HAL_RCC_OscConfig+0x280>)
 80075b4:	6812      	ldr	r2, [r2, #0]
 80075b6:	0795      	lsls	r5, r2, #30
 80075b8:	d530      	bpl.n	800761c <HAL_RCC_OscConfig+0x214>
 80075ba:	6922      	ldr	r2, [r4, #16]
 80075bc:	2a01      	cmp	r2, #1
 80075be:	d02d      	beq.n	800761c <HAL_RCC_OscConfig+0x214>
 80075c0:	2001      	movs	r0, #1
 80075c2:	b002      	add	sp, #8
 80075c4:	e8bd 81f0 	ldmia.w	sp!, {r4, r5, r6, r7, r8, pc}
 80075c8:	4a30      	ldr	r2, [pc, #192]	; (800768c <HAL_RCC_OscConfig+0x284>)
 80075ca:	4e2f      	ldr	r6, [pc, #188]	; (8007688 <HAL_RCC_OscConfig+0x280>)
 80075cc:	f8c2 3480 	str.w	r3, [r2, #1152]	; 0x480
 80075d0:	f7fe f810 	bl	80055f4 <HAL_GetTick>
 80075d4:	4605      	mov	r5, r0
 80075d6:	e004      	b.n	80075e2 <HAL_RCC_OscConfig+0x1da>
 80075d8:	f7fe f80c 	bl	80055f4 <HAL_GetTick>
 80075dc:	1b40      	subs	r0, r0, r5
 80075de:	2802      	cmp	r0, #2
 80075e0:	d838      	bhi.n	8007654 <HAL_RCC_OscConfig+0x24c>
 80075e2:	6a73      	ldr	r3, [r6, #36]	; 0x24
 80075e4:	079f      	lsls	r7, r3, #30
 80075e6:	d4f7      	bmi.n	80075d8 <HAL_RCC_OscConfig+0x1d0>
 80075e8:	e7bd      	b.n	8007566 <HAL_RCC_OscConfig+0x15e>
 80075ea:	69da      	ldr	r2, [r3, #28]
 80075ec:	2501      	movs	r5, #1
 80075ee:	f042 5280 	orr.w	r2, r2, #268435456	; 0x10000000
 80075f2:	61da      	str	r2, [r3, #28]
 80075f4:	69db      	ldr	r3, [r3, #28]
 80075f6:	f003 5380 	and.w	r3, r3, #268435456	; 0x10000000
 80075fa:	9300      	str	r3, [sp, #0]
 80075fc:	9b00      	ldr	r3, [sp, #0]
 80075fe:	e777      	b.n	80074f0 <HAL_RCC_OscConfig+0xe8>
 8007600:	684a      	ldr	r2, [r1, #4]
 8007602:	03d0      	lsls	r0, r2, #15
 8007604:	f57f af17 	bpl.w	8007436 <HAL_RCC_OscConfig+0x2e>
 8007608:	4a1f      	ldr	r2, [pc, #124]	; (8007688 <HAL_RCC_OscConfig+0x280>)
 800760a:	6812      	ldr	r2, [r2, #0]
 800760c:	0391      	lsls	r1, r2, #14
 800760e:	f57f af3b 	bpl.w	8007488 <HAL_RCC_OscConfig+0x80>
 8007612:	6862      	ldr	r2, [r4, #4]
 8007614:	2a00      	cmp	r2, #0
 8007616:	f47f af37 	bne.w	8007488 <HAL_RCC_OscConfig+0x80>
 800761a:	e7d1      	b.n	80075c0 <HAL_RCC_OscConfig+0x1b8>
 800761c:	491a      	ldr	r1, [pc, #104]	; (8007688 <HAL_RCC_OscConfig+0x280>)
 800761e:	6960      	ldr	r0, [r4, #20]
 8007620:	680a      	ldr	r2, [r1, #0]
 8007622:	f022 02f8 	bic.w	r2, r2, #248	; 0xf8
 8007626:	ea42 02c0 	orr.w	r2, r2, r0, lsl #3
 800762a:	600a      	str	r2, [r1, #0]
 800762c:	071a      	lsls	r2, r3, #28
 800762e:	f57f af58 	bpl.w	80074e2 <HAL_RCC_OscConfig+0xda>
 8007632:	e776      	b.n	8007522 <HAL_RCC_OscConfig+0x11a>
 8007634:	6833      	ldr	r3, [r6, #0]
 8007636:	f443 7380 	orr.w	r3, r3, #256	; 0x100
 800763a:	6033      	str	r3, [r6, #0]
 800763c:	f7fd ffda 	bl	80055f4 <HAL_GetTick>
 8007640:	4607      	mov	r7, r0
 8007642:	6833      	ldr	r3, [r6, #0]
 8007644:	05da      	lsls	r2, r3, #23
 8007646:	f53f af58 	bmi.w	80074fa <HAL_RCC_OscConfig+0xf2>
 800764a:	f7fd ffd3 	bl	80055f4 <HAL_GetTick>
 800764e:	1bc0      	subs	r0, r0, r7
 8007650:	2864      	cmp	r0, #100	; 0x64
 8007652:	d9f6      	bls.n	8007642 <HAL_RCC_OscConfig+0x23a>
 8007654:	2003      	movs	r0, #3
 8007656:	b002      	add	sp, #8
 8007658:	e8bd 81f0 	ldmia.w	sp!, {r4, r5, r6, r7, r8, pc}
 800765c:	4d0a      	ldr	r5, [pc, #40]	; (8007688 <HAL_RCC_OscConfig+0x280>)
 800765e:	682b      	ldr	r3, [r5, #0]
 8007660:	f423 3380 	bic.w	r3, r3, #65536	; 0x10000
 8007664:	602b      	str	r3, [r5, #0]
 8007666:	682b      	ldr	r3, [r5, #0]
 8007668:	f423 2380 	bic.w	r3, r3, #262144	; 0x40000
 800766c:	602b      	str	r3, [r5, #0]
 800766e:	f7fd ffc1 	bl	80055f4 <HAL_GetTick>
 8007672:	4606      	mov	r6, r0
 8007674:	e004      	b.n	8007680 <HAL_RCC_OscConfig+0x278>
 8007676:	f7fd ffbd 	bl	80055f4 <HAL_GetTick>
 800767a:	1b80      	subs	r0, r0, r6
 800767c:	2864      	cmp	r0, #100	; 0x64
 800767e:	d8e9      	bhi.n	8007654 <HAL_RCC_OscConfig+0x24c>
 8007680:	682b      	ldr	r3, [r5, #0]
 8007682:	039b      	lsls	r3, r3, #14
 8007684:	d4f7      	bmi.n	8007676 <HAL_RCC_OscConfig+0x26e>
 8007686:	e6fe      	b.n	8007486 <HAL_RCC_OscConfig+0x7e>
 8007688:	40021000 	.word	0x40021000
 800768c:	42420000 	.word	0x42420000
 8007690:	40007000 	.word	0x40007000
 8007694:	20000008 	.word	0x20000008
 8007698:	10624dd3 	.word	0x10624dd3
 800769c:	4e50      	ldr	r6, [pc, #320]	; (80077e0 <HAL_RCC_OscConfig+0x3d8>)
 800769e:	f241 3888 	movw	r8, #5000	; 0x1388
 80076a2:	6a33      	ldr	r3, [r6, #32]
 80076a4:	f023 0301 	bic.w	r3, r3, #1
 80076a8:	6233      	str	r3, [r6, #32]
 80076aa:	6a33      	ldr	r3, [r6, #32]
 80076ac:	f023 0304 	bic.w	r3, r3, #4
 80076b0:	6233      	str	r3, [r6, #32]
 80076b2:	f7fd ff9f 	bl	80055f4 <HAL_GetTick>
 80076b6:	4607      	mov	r7, r0
 80076b8:	e004      	b.n	80076c4 <HAL_RCC_OscConfig+0x2bc>
 80076ba:	f7fd ff9b 	bl	80055f4 <HAL_GetTick>
 80076be:	1bc0      	subs	r0, r0, r7
 80076c0:	4540      	cmp	r0, r8
 80076c2:	d8c7      	bhi.n	8007654 <HAL_RCC_OscConfig+0x24c>
 80076c4:	6a33      	ldr	r3, [r6, #32]
 80076c6:	0798      	lsls	r0, r3, #30
 80076c8:	d4f7      	bmi.n	80076ba <HAL_RCC_OscConfig+0x2b2>
 80076ca:	2d00      	cmp	r5, #0
 80076cc:	f43f af4e 	beq.w	800756c <HAL_RCC_OscConfig+0x164>
 80076d0:	4a43      	ldr	r2, [pc, #268]	; (80077e0 <HAL_RCC_OscConfig+0x3d8>)
 80076d2:	69d3      	ldr	r3, [r2, #28]
 80076d4:	f023 5380 	bic.w	r3, r3, #268435456	; 0x10000000
 80076d8:	61d3      	str	r3, [r2, #28]
 80076da:	e747      	b.n	800756c <HAL_RCC_OscConfig+0x164>
 80076dc:	4a41      	ldr	r2, [pc, #260]	; (80077e4 <HAL_RCC_OscConfig+0x3dc>)
 80076de:	4e40      	ldr	r6, [pc, #256]	; (80077e0 <HAL_RCC_OscConfig+0x3d8>)
 80076e0:	6013      	str	r3, [r2, #0]
 80076e2:	f7fd ff87 	bl	80055f4 <HAL_GetTick>
 80076e6:	4605      	mov	r5, r0
 80076e8:	e004      	b.n	80076f4 <HAL_RCC_OscConfig+0x2ec>
 80076ea:	f7fd ff83 	bl	80055f4 <HAL_GetTick>
 80076ee:	1b40      	subs	r0, r0, r5
 80076f0:	2802      	cmp	r0, #2
 80076f2:	d8af      	bhi.n	8007654 <HAL_RCC_OscConfig+0x24c>
 80076f4:	6833      	ldr	r3, [r6, #0]
 80076f6:	0799      	lsls	r1, r3, #30
 80076f8:	d4f7      	bmi.n	80076ea <HAL_RCC_OscConfig+0x2e2>
 80076fa:	6823      	ldr	r3, [r4, #0]
 80076fc:	e6ef      	b.n	80074de <HAL_RCC_OscConfig+0xd6>
 80076fe:	4a38      	ldr	r2, [pc, #224]	; (80077e0 <HAL_RCC_OscConfig+0x3d8>)
 8007700:	6a13      	ldr	r3, [r2, #32]
 8007702:	f043 0301 	orr.w	r3, r3, #1
 8007706:	6213      	str	r3, [r2, #32]
 8007708:	f7fd ff74 	bl	80055f4 <HAL_GetTick>
 800770c:	f241 3888 	movw	r8, #5000	; 0x1388
 8007710:	4606      	mov	r6, r0
 8007712:	4f33      	ldr	r7, [pc, #204]	; (80077e0 <HAL_RCC_OscConfig+0x3d8>)
 8007714:	e004      	b.n	8007720 <HAL_RCC_OscConfig+0x318>
 8007716:	f7fd ff6d 	bl	80055f4 <HAL_GetTick>
 800771a:	1b80      	subs	r0, r0, r6
 800771c:	4540      	cmp	r0, r8
 800771e:	d899      	bhi.n	8007654 <HAL_RCC_OscConfig+0x24c>
 8007720:	6a3b      	ldr	r3, [r7, #32]
 8007722:	079b      	lsls	r3, r3, #30
 8007724:	d5f7      	bpl.n	8007716 <HAL_RCC_OscConfig+0x30e>
 8007726:	2d00      	cmp	r5, #0
 8007728:	f43f af20 	beq.w	800756c <HAL_RCC_OscConfig+0x164>
 800772c:	e7d0      	b.n	80076d0 <HAL_RCC_OscConfig+0x2c8>
 800772e:	2801      	cmp	r0, #1
 8007730:	f43f af38 	beq.w	80075a4 <HAL_RCC_OscConfig+0x19c>
 8007734:	686b      	ldr	r3, [r5, #4]
 8007736:	6a22      	ldr	r2, [r4, #32]
 8007738:	f403 3180 	and.w	r1, r3, #65536	; 0x10000
 800773c:	4291      	cmp	r1, r2
 800773e:	f47f af3f 	bne.w	80075c0 <HAL_RCC_OscConfig+0x1b8>
 8007742:	6a60      	ldr	r0, [r4, #36]	; 0x24
 8007744:	f403 1370 	and.w	r3, r3, #3932160	; 0x3c0000
 8007748:	1a18      	subs	r0, r3, r0
 800774a:	bf18      	it	ne
 800774c:	2001      	movne	r0, #1
 800774e:	e729      	b.n	80075a4 <HAL_RCC_OscConfig+0x19c>
 8007750:	f103 4380 	add.w	r3, r3, #1073741824	; 0x40000000
 8007754:	f5a3 333c 	sub.w	r3, r3, #192512	; 0x2f000
 8007758:	681a      	ldr	r2, [r3, #0]
 800775a:	f442 2280 	orr.w	r2, r2, #262144	; 0x40000
 800775e:	601a      	str	r2, [r3, #0]
 8007760:	681a      	ldr	r2, [r3, #0]
 8007762:	f442 3280 	orr.w	r2, r2, #65536	; 0x10000
 8007766:	601a      	str	r2, [r3, #0]
 8007768:	e67f      	b.n	800746a <HAL_RCC_OscConfig+0x62>
 800776a:	f042 0204 	orr.w	r2, r2, #4
 800776e:	621a      	str	r2, [r3, #32]
 8007770:	6a1a      	ldr	r2, [r3, #32]
 8007772:	f042 0201 	orr.w	r2, r2, #1
 8007776:	621a      	str	r2, [r3, #32]
 8007778:	e7c6      	b.n	8007708 <HAL_RCC_OscConfig+0x300>
 800777a:	2001      	movs	r0, #1
 800777c:	4770      	bx	lr
 800777e:	f7fd ff39 	bl	80055f4 <HAL_GetTick>
 8007782:	4606      	mov	r6, r0
 8007784:	e005      	b.n	8007792 <HAL_RCC_OscConfig+0x38a>
 8007786:	f7fd ff35 	bl	80055f4 <HAL_GetTick>
 800778a:	1b80      	subs	r0, r0, r6
 800778c:	2802      	cmp	r0, #2
 800778e:	f63f af61 	bhi.w	8007654 <HAL_RCC_OscConfig+0x24c>
 8007792:	682b      	ldr	r3, [r5, #0]
 8007794:	0199      	lsls	r1, r3, #6
 8007796:	d4f6      	bmi.n	8007786 <HAL_RCC_OscConfig+0x37e>
 8007798:	6a23      	ldr	r3, [r4, #32]
 800779a:	f5b3 3f80 	cmp.w	r3, #65536	; 0x10000
 800779e:	d105      	bne.n	80077ac <HAL_RCC_OscConfig+0x3a4>
 80077a0:	686a      	ldr	r2, [r5, #4]
 80077a2:	68a1      	ldr	r1, [r4, #8]
 80077a4:	f422 3200 	bic.w	r2, r2, #131072	; 0x20000
 80077a8:	430a      	orrs	r2, r1
 80077aa:	606a      	str	r2, [r5, #4]
 80077ac:	2001      	movs	r0, #1
 80077ae:	4d0c      	ldr	r5, [pc, #48]	; (80077e0 <HAL_RCC_OscConfig+0x3d8>)
 80077b0:	6a61      	ldr	r1, [r4, #36]	; 0x24
 80077b2:	686a      	ldr	r2, [r5, #4]
 80077b4:	430b      	orrs	r3, r1
 80077b6:	f422 1274 	bic.w	r2, r2, #3997696	; 0x3d0000
 80077ba:	490a      	ldr	r1, [pc, #40]	; (80077e4 <HAL_RCC_OscConfig+0x3dc>)
 80077bc:	4313      	orrs	r3, r2
 80077be:	606b      	str	r3, [r5, #4]
 80077c0:	6608      	str	r0, [r1, #96]	; 0x60
 80077c2:	f7fd ff17 	bl	80055f4 <HAL_GetTick>
 80077c6:	4604      	mov	r4, r0
 80077c8:	e005      	b.n	80077d6 <HAL_RCC_OscConfig+0x3ce>
 80077ca:	f7fd ff13 	bl	80055f4 <HAL_GetTick>
 80077ce:	1b00      	subs	r0, r0, r4
 80077d0:	2802      	cmp	r0, #2
 80077d2:	f63f af3f 	bhi.w	8007654 <HAL_RCC_OscConfig+0x24c>
 80077d6:	682b      	ldr	r3, [r5, #0]
 80077d8:	019a      	lsls	r2, r3, #6
 80077da:	d5f6      	bpl.n	80077ca <HAL_RCC_OscConfig+0x3c2>
 80077dc:	e6e1      	b.n	80075a2 <HAL_RCC_OscConfig+0x19a>
 80077de:	bf00      	nop
 80077e0:	40021000 	.word	0x40021000
 80077e4:	42420000 	.word	0x42420000

080077e8 <HAL_RCC_ClockConfig>:
 80077e8:	2800      	cmp	r0, #0
 80077ea:	f000 80b1 	beq.w	8007950 <HAL_RCC_ClockConfig+0x168>
 80077ee:	4a5e      	ldr	r2, [pc, #376]	; (8007968 <HAL_RCC_ClockConfig+0x180>)
 80077f0:	e92d 41f0 	stmdb	sp!, {r4, r5, r6, r7, r8, lr}
 80077f4:	6813      	ldr	r3, [r2, #0]
 80077f6:	4604      	mov	r4, r0
 80077f8:	f003 0307 	and.w	r3, r3, #7
 80077fc:	428b      	cmp	r3, r1
 80077fe:	460d      	mov	r5, r1
 8007800:	b086      	sub	sp, #24
 8007802:	d20d      	bcs.n	8007820 <HAL_RCC_ClockConfig+0x38>
 8007804:	6813      	ldr	r3, [r2, #0]
 8007806:	f023 0307 	bic.w	r3, r3, #7
 800780a:	430b      	orrs	r3, r1
 800780c:	6013      	str	r3, [r2, #0]
 800780e:	6813      	ldr	r3, [r2, #0]
 8007810:	f003 0307 	and.w	r3, r3, #7
 8007814:	428b      	cmp	r3, r1
 8007816:	d003      	beq.n	8007820 <HAL_RCC_ClockConfig+0x38>
 8007818:	2001      	movs	r0, #1
 800781a:	b006      	add	sp, #24
 800781c:	e8bd 81f0 	ldmia.w	sp!, {r4, r5, r6, r7, r8, pc}
 8007820:	6823      	ldr	r3, [r4, #0]
 8007822:	079e      	lsls	r6, r3, #30
 8007824:	d514      	bpl.n	8007850 <HAL_RCC_ClockConfig+0x68>
 8007826:	0758      	lsls	r0, r3, #29
 8007828:	d504      	bpl.n	8007834 <HAL_RCC_ClockConfig+0x4c>
 800782a:	4950      	ldr	r1, [pc, #320]	; (800796c <HAL_RCC_ClockConfig+0x184>)
 800782c:	684a      	ldr	r2, [r1, #4]
 800782e:	f442 62e0 	orr.w	r2, r2, #1792	; 0x700
 8007832:	604a      	str	r2, [r1, #4]
 8007834:	0719      	lsls	r1, r3, #28
 8007836:	d504      	bpl.n	8007842 <HAL_RCC_ClockConfig+0x5a>
 8007838:	494c      	ldr	r1, [pc, #304]	; (800796c <HAL_RCC_ClockConfig+0x184>)
 800783a:	684a      	ldr	r2, [r1, #4]
 800783c:	f442 5260 	orr.w	r2, r2, #14336	; 0x3800
 8007840:	604a      	str	r2, [r1, #4]
 8007842:	494a      	ldr	r1, [pc, #296]	; (800796c <HAL_RCC_ClockConfig+0x184>)
 8007844:	68a0      	ldr	r0, [r4, #8]
 8007846:	684a      	ldr	r2, [r1, #4]
 8007848:	f022 02f0 	bic.w	r2, r2, #240	; 0xf0
 800784c:	4302      	orrs	r2, r0
 800784e:	604a      	str	r2, [r1, #4]
 8007850:	07da      	lsls	r2, r3, #31
 8007852:	d520      	bpl.n	8007896 <HAL_RCC_ClockConfig+0xae>
 8007854:	6862      	ldr	r2, [r4, #4]
 8007856:	4b45      	ldr	r3, [pc, #276]	; (800796c <HAL_RCC_ClockConfig+0x184>)
 8007858:	2a01      	cmp	r2, #1
 800785a:	681b      	ldr	r3, [r3, #0]
 800785c:	d07a      	beq.n	8007954 <HAL_RCC_ClockConfig+0x16c>
 800785e:	2a02      	cmp	r2, #2
 8007860:	d073      	beq.n	800794a <HAL_RCC_ClockConfig+0x162>
 8007862:	079e      	lsls	r6, r3, #30
 8007864:	d5d8      	bpl.n	8007818 <HAL_RCC_ClockConfig+0x30>
 8007866:	4e41      	ldr	r6, [pc, #260]	; (800796c <HAL_RCC_ClockConfig+0x184>)
 8007868:	f241 3888 	movw	r8, #5000	; 0x1388
 800786c:	6873      	ldr	r3, [r6, #4]
 800786e:	f023 0303 	bic.w	r3, r3, #3
 8007872:	4313      	orrs	r3, r2
 8007874:	6073      	str	r3, [r6, #4]
 8007876:	f7fd febd 	bl	80055f4 <HAL_GetTick>
 800787a:	4607      	mov	r7, r0
 800787c:	e004      	b.n	8007888 <HAL_RCC_ClockConfig+0xa0>
 800787e:	f7fd feb9 	bl	80055f4 <HAL_GetTick>
 8007882:	1bc0      	subs	r0, r0, r7
 8007884:	4540      	cmp	r0, r8
 8007886:	d868      	bhi.n	800795a <HAL_RCC_ClockConfig+0x172>
 8007888:	6873      	ldr	r3, [r6, #4]
 800788a:	6862      	ldr	r2, [r4, #4]
 800788c:	f003 030c 	and.w	r3, r3, #12
 8007890:	ebb3 0f82 	cmp.w	r3, r2, lsl #2
 8007894:	d1f3      	bne.n	800787e <HAL_RCC_ClockConfig+0x96>
 8007896:	4a34      	ldr	r2, [pc, #208]	; (8007968 <HAL_RCC_ClockConfig+0x180>)
 8007898:	6813      	ldr	r3, [r2, #0]
 800789a:	f003 0307 	and.w	r3, r3, #7
 800789e:	42ab      	cmp	r3, r5
 80078a0:	d909      	bls.n	80078b6 <HAL_RCC_ClockConfig+0xce>
 80078a2:	6813      	ldr	r3, [r2, #0]
 80078a4:	f023 0307 	bic.w	r3, r3, #7
 80078a8:	432b      	orrs	r3, r5
 80078aa:	6013      	str	r3, [r2, #0]
 80078ac:	6813      	ldr	r3, [r2, #0]
 80078ae:	f003 0307 	and.w	r3, r3, #7
 80078b2:	42ab      	cmp	r3, r5
 80078b4:	d1b0      	bne.n	8007818 <HAL_RCC_ClockConfig+0x30>
 80078b6:	6823      	ldr	r3, [r4, #0]
 80078b8:	0758      	lsls	r0, r3, #29
 80078ba:	d506      	bpl.n	80078ca <HAL_RCC_ClockConfig+0xe2>
 80078bc:	492b      	ldr	r1, [pc, #172]	; (800796c <HAL_RCC_ClockConfig+0x184>)
 80078be:	68e0      	ldr	r0, [r4, #12]
 80078c0:	684a      	ldr	r2, [r1, #4]
 80078c2:	f422 62e0 	bic.w	r2, r2, #1792	; 0x700
 80078c6:	4302      	orrs	r2, r0
 80078c8:	604a      	str	r2, [r1, #4]
 80078ca:	0719      	lsls	r1, r3, #28
 80078cc:	d507      	bpl.n	80078de <HAL_RCC_ClockConfig+0xf6>
 80078ce:	4a27      	ldr	r2, [pc, #156]	; (800796c <HAL_RCC_ClockConfig+0x184>)
 80078d0:	6921      	ldr	r1, [r4, #16]
 80078d2:	6853      	ldr	r3, [r2, #4]
 80078d4:	f423 5360 	bic.w	r3, r3, #14336	; 0x3800
 80078d8:	ea43 03c1 	orr.w	r3, r3, r1, lsl #3
 80078dc:	6053      	str	r3, [r2, #4]
 80078de:	f240 2401 	movw	r4, #513	; 0x201
 80078e2:	4b23      	ldr	r3, [pc, #140]	; (8007970 <HAL_RCC_ClockConfig+0x188>)
 80078e4:	ad06      	add	r5, sp, #24
 80078e6:	cb0f      	ldmia	r3, {r0, r1, r2, r3}
 80078e8:	e905 000f 	stmdb	r5, {r0, r1, r2, r3}
 80078ec:	491f      	ldr	r1, [pc, #124]	; (800796c <HAL_RCC_ClockConfig+0x184>)
 80078ee:	f8ad 4004 	strh.w	r4, [sp, #4]
 80078f2:	684a      	ldr	r2, [r1, #4]
 80078f4:	f002 030c 	and.w	r3, r2, #12
 80078f8:	2b08      	cmp	r3, #8
 80078fa:	d011      	beq.n	8007920 <HAL_RCC_ClockConfig+0x138>
 80078fc:	4b1d      	ldr	r3, [pc, #116]	; (8007974 <HAL_RCC_ClockConfig+0x18c>)
 80078fe:	4a1b      	ldr	r2, [pc, #108]	; (800796c <HAL_RCC_ClockConfig+0x184>)
 8007900:	481d      	ldr	r0, [pc, #116]	; (8007978 <HAL_RCC_ClockConfig+0x190>)
 8007902:	6852      	ldr	r2, [r2, #4]
 8007904:	491d      	ldr	r1, [pc, #116]	; (800797c <HAL_RCC_ClockConfig+0x194>)
 8007906:	f3c2 1203 	ubfx	r2, r2, #4, #4
 800790a:	5c80      	ldrb	r0, [r0, r2]
 800790c:	4a1c      	ldr	r2, [pc, #112]	; (8007980 <HAL_RCC_ClockConfig+0x198>)
 800790e:	40c3      	lsrs	r3, r0
 8007910:	6808      	ldr	r0, [r1, #0]
 8007912:	6013      	str	r3, [r2, #0]
 8007914:	f7fd fe2c 	bl	8005570 <HAL_InitTick>
 8007918:	2000      	movs	r0, #0
 800791a:	b006      	add	sp, #24
 800791c:	e8bd 81f0 	ldmia.w	sp!, {r4, r5, r6, r7, r8, pc}
 8007920:	f3c2 4383 	ubfx	r3, r2, #18, #4
 8007924:	3318      	adds	r3, #24
 8007926:	446b      	add	r3, sp
 8007928:	03d2      	lsls	r2, r2, #15
 800792a:	f813 3c10 	ldrb.w	r3, [r3, #-16]
 800792e:	d516      	bpl.n	800795e <HAL_RCC_ClockConfig+0x176>
 8007930:	684a      	ldr	r2, [r1, #4]
 8007932:	4910      	ldr	r1, [pc, #64]	; (8007974 <HAL_RCC_ClockConfig+0x18c>)
 8007934:	f3c2 4240 	ubfx	r2, r2, #17, #1
 8007938:	fb01 f303 	mul.w	r3, r1, r3
 800793c:	3218      	adds	r2, #24
 800793e:	446a      	add	r2, sp
 8007940:	f812 2c14 	ldrb.w	r2, [r2, #-20]
 8007944:	fbb3 f3f2 	udiv	r3, r3, r2
 8007948:	e7d9      	b.n	80078fe <HAL_RCC_ClockConfig+0x116>
 800794a:	019f      	lsls	r7, r3, #6
 800794c:	d48b      	bmi.n	8007866 <HAL_RCC_ClockConfig+0x7e>
 800794e:	e763      	b.n	8007818 <HAL_RCC_ClockConfig+0x30>
 8007950:	2001      	movs	r0, #1
 8007952:	4770      	bx	lr
 8007954:	039b      	lsls	r3, r3, #14
 8007956:	d486      	bmi.n	8007866 <HAL_RCC_ClockConfig+0x7e>
 8007958:	e75e      	b.n	8007818 <HAL_RCC_ClockConfig+0x30>
 800795a:	2003      	movs	r0, #3
 800795c:	e75d      	b.n	800781a <HAL_RCC_ClockConfig+0x32>
 800795e:	4a09      	ldr	r2, [pc, #36]	; (8007984 <HAL_RCC_ClockConfig+0x19c>)
 8007960:	fb02 f303 	mul.w	r3, r2, r3
 8007964:	e7cb      	b.n	80078fe <HAL_RCC_ClockConfig+0x116>
 8007966:	bf00      	nop
 8007968:	40022000 	.word	0x40022000
 800796c:	40021000 	.word	0x40021000
 8007970:	0800d76c 	.word	0x0800d76c
 8007974:	007a1200 	.word	0x007a1200
 8007978:	0800d754 	.word	0x0800d754
 800797c:	20000010 	.word	0x20000010
 8007980:	20000008 	.word	0x20000008
 8007984:	003d0900 	.word	0x003d0900

08007988 <HAL_RCC_GetSysClockFreq>:
 8007988:	f240 2c01 	movw	ip, #513	; 0x201
 800798c:	b500      	push	{lr}
 800798e:	4b18      	ldr	r3, [pc, #96]	; (80079f0 <HAL_RCC_GetSysClockFreq+0x68>)
 8007990:	b087      	sub	sp, #28
 8007992:	f10d 0e18 	add.w	lr, sp, #24
 8007996:	cb0f      	ldmia	r3, {r0, r1, r2, r3}
 8007998:	e90e 000f 	stmdb	lr, {r0, r1, r2, r3}
 800799c:	4a15      	ldr	r2, [pc, #84]	; (80079f4 <HAL_RCC_GetSysClockFreq+0x6c>)
 800799e:	f8ad c004 	strh.w	ip, [sp, #4]
 80079a2:	6853      	ldr	r3, [r2, #4]
 80079a4:	f003 010c 	and.w	r1, r3, #12
 80079a8:	2908      	cmp	r1, #8
 80079aa:	d003      	beq.n	80079b4 <HAL_RCC_GetSysClockFreq+0x2c>
 80079ac:	4812      	ldr	r0, [pc, #72]	; (80079f8 <HAL_RCC_GetSysClockFreq+0x70>)
 80079ae:	b007      	add	sp, #28
 80079b0:	f85d fb04 	ldr.w	pc, [sp], #4
 80079b4:	f3c3 4183 	ubfx	r1, r3, #18, #4
 80079b8:	3118      	adds	r1, #24
 80079ba:	4469      	add	r1, sp
 80079bc:	03db      	lsls	r3, r3, #15
 80079be:	f811 0c10 	ldrb.w	r0, [r1, #-16]
 80079c2:	d50e      	bpl.n	80079e2 <HAL_RCC_GetSysClockFreq+0x5a>
 80079c4:	6853      	ldr	r3, [r2, #4]
 80079c6:	4a0c      	ldr	r2, [pc, #48]	; (80079f8 <HAL_RCC_GetSysClockFreq+0x70>)
 80079c8:	f3c3 4340 	ubfx	r3, r3, #17, #1
 80079cc:	fb02 f000 	mul.w	r0, r2, r0
 80079d0:	3318      	adds	r3, #24
 80079d2:	446b      	add	r3, sp
 80079d4:	f813 3c14 	ldrb.w	r3, [r3, #-20]
 80079d8:	fbb0 f0f3 	udiv	r0, r0, r3
 80079dc:	b007      	add	sp, #28
 80079de:	f85d fb04 	ldr.w	pc, [sp], #4
 80079e2:	4b06      	ldr	r3, [pc, #24]	; (80079fc <HAL_RCC_GetSysClockFreq+0x74>)
 80079e4:	fb03 f000 	mul.w	r0, r3, r0
 80079e8:	b007      	add	sp, #28
 80079ea:	f85d fb04 	ldr.w	pc, [sp], #4
 80079ee:	bf00      	nop
 80079f0:	0800d76c 	.word	0x0800d76c
 80079f4:	40021000 	.word	0x40021000
 80079f8:	007a1200 	.word	0x007a1200
 80079fc:	003d0900 	.word	0x003d0900

08007a00 <HAL_RCC_GetHCLKFreq>:
 8007a00:	4b01      	ldr	r3, [pc, #4]	; (8007a08 <HAL_RCC_GetHCLKFreq+0x8>)
 8007a02:	6818      	ldr	r0, [r3, #0]
 8007a04:	4770      	bx	lr
 8007a06:	bf00      	nop
 8007a08:	20000008 	.word	0x20000008

08007a0c <HAL_RCC_GetPCLK1Freq>:
 8007a0c:	4b04      	ldr	r3, [pc, #16]	; (8007a20 <HAL_RCC_GetPCLK1Freq+0x14>)
 8007a0e:	4a05      	ldr	r2, [pc, #20]	; (8007a24 <HAL_RCC_GetPCLK1Freq+0x18>)
 8007a10:	685b      	ldr	r3, [r3, #4]
 8007a12:	4905      	ldr	r1, [pc, #20]	; (8007a28 <HAL_RCC_GetPCLK1Freq+0x1c>)
 8007a14:	f3c3 2302 	ubfx	r3, r3, #8, #3
 8007a18:	5ccb      	ldrb	r3, [r1, r3]
 8007a1a:	6810      	ldr	r0, [r2, #0]
 8007a1c:	40d8      	lsrs	r0, r3
 8007a1e:	4770      	bx	lr
 8007a20:	40021000 	.word	0x40021000
 8007a24:	20000008 	.word	0x20000008
 8007a28:	0800d764 	.word	0x0800d764

08007a2c <HAL_RCC_GetPCLK2Freq>:
 8007a2c:	4b04      	ldr	r3, [pc, #16]	; (8007a40 <HAL_RCC_GetPCLK2Freq+0x14>)
 8007a2e:	4a05      	ldr	r2, [pc, #20]	; (8007a44 <HAL_RCC_GetPCLK2Freq+0x18>)
 8007a30:	685b      	ldr	r3, [r3, #4]
 8007a32:	4905      	ldr	r1, [pc, #20]	; (8007a48 <HAL_RCC_GetPCLK2Freq+0x1c>)
 8007a34:	f3c3 23c2 	ubfx	r3, r3, #11, #3
 8007a38:	5ccb      	ldrb	r3, [r1, r3]
 8007a3a:	6810      	ldr	r0, [r2, #0]
 8007a3c:	40d8      	lsrs	r0, r3
 8007a3e:	4770      	bx	lr
 8007a40:	40021000 	.word	0x40021000
 8007a44:	20000008 	.word	0x20000008
 8007a48:	0800d764 	.word	0x0800d764

08007a4c <HAL_RCCEx_PeriphCLKConfig>:
 8007a4c:	e92d 41f0 	stmdb	sp!, {r4, r5, r6, r7, r8, lr}
 8007a50:	4604      	mov	r4, r0
 8007a52:	6800      	ldr	r0, [r0, #0]
 8007a54:	b082      	sub	sp, #8
 8007a56:	07c1      	lsls	r1, r0, #31
 8007a58:	d52c      	bpl.n	8007ab4 <HAL_RCCEx_PeriphCLKConfig+0x68>
 8007a5a:	4b3a      	ldr	r3, [pc, #232]	; (8007b44 <HAL_RCCEx_PeriphCLKConfig+0xf8>)
 8007a5c:	69da      	ldr	r2, [r3, #28]
 8007a5e:	00d2      	lsls	r2, r2, #3
 8007a60:	d53f      	bpl.n	8007ae2 <HAL_RCCEx_PeriphCLKConfig+0x96>
 8007a62:	4d39      	ldr	r5, [pc, #228]	; (8007b48 <HAL_RCCEx_PeriphCLKConfig+0xfc>)
 8007a64:	2600      	movs	r6, #0
 8007a66:	682b      	ldr	r3, [r5, #0]
 8007a68:	05df      	lsls	r7, r3, #23
 8007a6a:	d548      	bpl.n	8007afe <HAL_RCCEx_PeriphCLKConfig+0xb2>
 8007a6c:	4d35      	ldr	r5, [pc, #212]	; (8007b44 <HAL_RCCEx_PeriphCLKConfig+0xf8>)
 8007a6e:	6a2b      	ldr	r3, [r5, #32]
 8007a70:	f413 7340 	ands.w	r3, r3, #768	; 0x300
 8007a74:	d011      	beq.n	8007a9a <HAL_RCCEx_PeriphCLKConfig+0x4e>
 8007a76:	6861      	ldr	r1, [r4, #4]
 8007a78:	f401 7240 	and.w	r2, r1, #768	; 0x300
 8007a7c:	429a      	cmp	r2, r3
 8007a7e:	d00d      	beq.n	8007a9c <HAL_RCCEx_PeriphCLKConfig+0x50>
 8007a80:	2701      	movs	r7, #1
 8007a82:	2000      	movs	r0, #0
 8007a84:	6a2b      	ldr	r3, [r5, #32]
 8007a86:	4a31      	ldr	r2, [pc, #196]	; (8007b4c <HAL_RCCEx_PeriphCLKConfig+0x100>)
 8007a88:	f423 7140 	bic.w	r1, r3, #768	; 0x300
 8007a8c:	f8c2 7440 	str.w	r7, [r2, #1088]	; 0x440
 8007a90:	f8c2 0440 	str.w	r0, [r2, #1088]	; 0x440
 8007a94:	6229      	str	r1, [r5, #32]
 8007a96:	07d9      	lsls	r1, r3, #31
 8007a98:	d444      	bmi.n	8007b24 <HAL_RCCEx_PeriphCLKConfig+0xd8>
 8007a9a:	6861      	ldr	r1, [r4, #4]
 8007a9c:	4a29      	ldr	r2, [pc, #164]	; (8007b44 <HAL_RCCEx_PeriphCLKConfig+0xf8>)
 8007a9e:	6a13      	ldr	r3, [r2, #32]
 8007aa0:	f423 7340 	bic.w	r3, r3, #768	; 0x300
 8007aa4:	430b      	orrs	r3, r1
 8007aa6:	6213      	str	r3, [r2, #32]
 8007aa8:	b11e      	cbz	r6, 8007ab2 <HAL_RCCEx_PeriphCLKConfig+0x66>
 8007aaa:	69d3      	ldr	r3, [r2, #28]
 8007aac:	f023 5380 	bic.w	r3, r3, #268435456	; 0x10000000
 8007ab0:	61d3      	str	r3, [r2, #28]
 8007ab2:	6820      	ldr	r0, [r4, #0]
 8007ab4:	0783      	lsls	r3, r0, #30
 8007ab6:	d506      	bpl.n	8007ac6 <HAL_RCCEx_PeriphCLKConfig+0x7a>
 8007ab8:	4922      	ldr	r1, [pc, #136]	; (8007b44 <HAL_RCCEx_PeriphCLKConfig+0xf8>)
 8007aba:	68a3      	ldr	r3, [r4, #8]
 8007abc:	684a      	ldr	r2, [r1, #4]
 8007abe:	f422 4240 	bic.w	r2, r2, #49152	; 0xc000
 8007ac2:	431a      	orrs	r2, r3
 8007ac4:	604a      	str	r2, [r1, #4]
 8007ac6:	f010 0010 	ands.w	r0, r0, #16
 8007aca:	d007      	beq.n	8007adc <HAL_RCCEx_PeriphCLKConfig+0x90>
 8007acc:	2000      	movs	r0, #0
 8007ace:	4a1d      	ldr	r2, [pc, #116]	; (8007b44 <HAL_RCCEx_PeriphCLKConfig+0xf8>)
 8007ad0:	6961      	ldr	r1, [r4, #20]
 8007ad2:	6853      	ldr	r3, [r2, #4]
 8007ad4:	f423 0380 	bic.w	r3, r3, #4194304	; 0x400000
 8007ad8:	430b      	orrs	r3, r1
 8007ada:	6053      	str	r3, [r2, #4]
 8007adc:	b002      	add	sp, #8
 8007ade:	e8bd 81f0 	ldmia.w	sp!, {r4, r5, r6, r7, r8, pc}
 8007ae2:	69da      	ldr	r2, [r3, #28]
 8007ae4:	4d18      	ldr	r5, [pc, #96]	; (8007b48 <HAL_RCCEx_PeriphCLKConfig+0xfc>)
 8007ae6:	f042 5280 	orr.w	r2, r2, #268435456	; 0x10000000
 8007aea:	61da      	str	r2, [r3, #28]
 8007aec:	69db      	ldr	r3, [r3, #28]
 8007aee:	2601      	movs	r6, #1
 8007af0:	f003 5380 	and.w	r3, r3, #268435456	; 0x10000000
 8007af4:	9301      	str	r3, [sp, #4]
 8007af6:	9b01      	ldr	r3, [sp, #4]
 8007af8:	682b      	ldr	r3, [r5, #0]
 8007afa:	05df      	lsls	r7, r3, #23
 8007afc:	d4b6      	bmi.n	8007a6c <HAL_RCCEx_PeriphCLKConfig+0x20>
 8007afe:	682b      	ldr	r3, [r5, #0]
 8007b00:	f443 7380 	orr.w	r3, r3, #256	; 0x100
 8007b04:	602b      	str	r3, [r5, #0]
 8007b06:	f7fd fd75 	bl	80055f4 <HAL_GetTick>
 8007b0a:	4607      	mov	r7, r0
 8007b0c:	682b      	ldr	r3, [r5, #0]
 8007b0e:	05d8      	lsls	r0, r3, #23
 8007b10:	d4ac      	bmi.n	8007a6c <HAL_RCCEx_PeriphCLKConfig+0x20>
 8007b12:	f7fd fd6f 	bl	80055f4 <HAL_GetTick>
 8007b16:	1bc3      	subs	r3, r0, r7
 8007b18:	2b64      	cmp	r3, #100	; 0x64
 8007b1a:	d9f7      	bls.n	8007b0c <HAL_RCCEx_PeriphCLKConfig+0xc0>
 8007b1c:	2003      	movs	r0, #3
 8007b1e:	b002      	add	sp, #8
 8007b20:	e8bd 81f0 	ldmia.w	sp!, {r4, r5, r6, r7, r8, pc}
 8007b24:	f7fd fd66 	bl	80055f4 <HAL_GetTick>
 8007b28:	f241 3888 	movw	r8, #5000	; 0x1388
 8007b2c:	4607      	mov	r7, r0
 8007b2e:	e004      	b.n	8007b3a <HAL_RCCEx_PeriphCLKConfig+0xee>
 8007b30:	f7fd fd60 	bl	80055f4 <HAL_GetTick>
 8007b34:	1bc0      	subs	r0, r0, r7
 8007b36:	4540      	cmp	r0, r8
 8007b38:	d8f0      	bhi.n	8007b1c <HAL_RCCEx_PeriphCLKConfig+0xd0>
 8007b3a:	6a2b      	ldr	r3, [r5, #32]
 8007b3c:	079a      	lsls	r2, r3, #30
 8007b3e:	d5f7      	bpl.n	8007b30 <HAL_RCCEx_PeriphCLKConfig+0xe4>
 8007b40:	e7ab      	b.n	8007a9a <HAL_RCCEx_PeriphCLKConfig+0x4e>
 8007b42:	bf00      	nop
 8007b44:	40021000 	.word	0x40021000
 8007b48:	40007000 	.word	0x40007000
 8007b4c:	42420000 	.word	0x42420000

08007b50 <HAL_RCCEx_GetPeriphCLKFreq>:
 8007b50:	b500      	push	{lr}
 8007b52:	4b3d      	ldr	r3, [pc, #244]	; (8007c48 <HAL_RCCEx_GetPeriphCLKFreq+0xf8>)
 8007b54:	b087      	sub	sp, #28
 8007b56:	4684      	mov	ip, r0
 8007b58:	cb0f      	ldmia	r3, {r0, r1, r2, r3}
 8007b5a:	f10d 0e18 	add.w	lr, sp, #24
 8007b5e:	e90e 000f 	stmdb	lr, {r0, r1, r2, r3}
 8007b62:	f240 2301 	movw	r3, #513	; 0x201
 8007b66:	f10c 30ff 	add.w	r0, ip, #4294967295
 8007b6a:	f8ad 3004 	strh.w	r3, [sp, #4]
 8007b6e:	280f      	cmp	r0, #15
 8007b70:	d819      	bhi.n	8007ba6 <HAL_RCCEx_GetPeriphCLKFreq+0x56>
 8007b72:	e8df f000 	tbb	[pc, r0]
 8007b76:	2108      	.short	0x2108
 8007b78:	18181c18 	.word	0x18181c18
 8007b7c:	18181c18 	.word	0x18181c18
 8007b80:	18181818 	.word	0x18181818
 8007b84:	2e18      	.short	0x2e18
 8007b86:	f240 3202 	movw	r2, #770	; 0x302
 8007b8a:	4930      	ldr	r1, [pc, #192]	; (8007c4c <HAL_RCCEx_GetPeriphCLKFreq+0xfc>)
 8007b8c:	6a0b      	ldr	r3, [r1, #32]
 8007b8e:	401a      	ands	r2, r3
 8007b90:	f5b2 7f81 	cmp.w	r2, #258	; 0x102
 8007b94:	d055      	beq.n	8007c42 <HAL_RCCEx_GetPeriphCLKFreq+0xf2>
 8007b96:	f403 7340 	and.w	r3, r3, #768	; 0x300
 8007b9a:	f5b3 7f00 	cmp.w	r3, #512	; 0x200
 8007b9e:	d048      	beq.n	8007c32 <HAL_RCCEx_GetPeriphCLKFreq+0xe2>
 8007ba0:	f5b3 7f40 	cmp.w	r3, #768	; 0x300
 8007ba4:	d03d      	beq.n	8007c22 <HAL_RCCEx_GetPeriphCLKFreq+0xd2>
 8007ba6:	2000      	movs	r0, #0
 8007ba8:	b007      	add	sp, #28
 8007baa:	f85d fb04 	ldr.w	pc, [sp], #4
 8007bae:	b007      	add	sp, #28
 8007bb0:	f85d eb04 	ldr.w	lr, [sp], #4
 8007bb4:	f7ff bee8 	b.w	8007988 <HAL_RCC_GetSysClockFreq>
 8007bb8:	f7ff ff38 	bl	8007a2c <HAL_RCC_GetPCLK2Freq>
 8007bbc:	4b23      	ldr	r3, [pc, #140]	; (8007c4c <HAL_RCCEx_GetPeriphCLKFreq+0xfc>)
 8007bbe:	685b      	ldr	r3, [r3, #4]
 8007bc0:	f3c3 3381 	ubfx	r3, r3, #14, #2
 8007bc4:	3301      	adds	r3, #1
 8007bc6:	005b      	lsls	r3, r3, #1
 8007bc8:	fbb0 f0f3 	udiv	r0, r0, r3
 8007bcc:	b007      	add	sp, #28
 8007bce:	f85d fb04 	ldr.w	pc, [sp], #4
 8007bd2:	4b1e      	ldr	r3, [pc, #120]	; (8007c4c <HAL_RCCEx_GetPeriphCLKFreq+0xfc>)
 8007bd4:	685a      	ldr	r2, [r3, #4]
 8007bd6:	6818      	ldr	r0, [r3, #0]
 8007bd8:	f010 7080 	ands.w	r0, r0, #16777216	; 0x1000000
 8007bdc:	d0e4      	beq.n	8007ba8 <HAL_RCCEx_GetPeriphCLKFreq+0x58>
 8007bde:	f3c2 4183 	ubfx	r1, r2, #18, #4
 8007be2:	3118      	adds	r1, #24
 8007be4:	4469      	add	r1, sp
 8007be6:	03d2      	lsls	r2, r2, #15
 8007be8:	f811 0c10 	ldrb.w	r0, [r1, #-16]
 8007bec:	d40c      	bmi.n	8007c08 <HAL_RCCEx_GetPeriphCLKFreq+0xb8>
 8007bee:	4b18      	ldr	r3, [pc, #96]	; (8007c50 <HAL_RCCEx_GetPeriphCLKFreq+0x100>)
 8007bf0:	fb03 f000 	mul.w	r0, r3, r0
 8007bf4:	4b15      	ldr	r3, [pc, #84]	; (8007c4c <HAL_RCCEx_GetPeriphCLKFreq+0xfc>)
 8007bf6:	685b      	ldr	r3, [r3, #4]
 8007bf8:	025b      	lsls	r3, r3, #9
 8007bfa:	d4d5      	bmi.n	8007ba8 <HAL_RCCEx_GetPeriphCLKFreq+0x58>
 8007bfc:	4b15      	ldr	r3, [pc, #84]	; (8007c54 <HAL_RCCEx_GetPeriphCLKFreq+0x104>)
 8007bfe:	0040      	lsls	r0, r0, #1
 8007c00:	fba3 3000 	umull	r3, r0, r3, r0
 8007c04:	0840      	lsrs	r0, r0, #1
 8007c06:	e7cf      	b.n	8007ba8 <HAL_RCCEx_GetPeriphCLKFreq+0x58>
 8007c08:	685b      	ldr	r3, [r3, #4]
 8007c0a:	4a13      	ldr	r2, [pc, #76]	; (8007c58 <HAL_RCCEx_GetPeriphCLKFreq+0x108>)
 8007c0c:	f3c3 4340 	ubfx	r3, r3, #17, #1
 8007c10:	3318      	adds	r3, #24
 8007c12:	446b      	add	r3, sp
 8007c14:	f813 3c14 	ldrb.w	r3, [r3, #-20]
 8007c18:	fbb2 f3f3 	udiv	r3, r2, r3
 8007c1c:	fb03 f000 	mul.w	r0, r3, r0
 8007c20:	e7e8      	b.n	8007bf4 <HAL_RCCEx_GetPeriphCLKFreq+0xa4>
 8007c22:	f24f 4324 	movw	r3, #62500	; 0xf424
 8007c26:	6808      	ldr	r0, [r1, #0]
 8007c28:	f410 3000 	ands.w	r0, r0, #131072	; 0x20000
 8007c2c:	bf18      	it	ne
 8007c2e:	4618      	movne	r0, r3
 8007c30:	e7ba      	b.n	8007ba8 <HAL_RCCEx_GetPeriphCLKFreq+0x58>
 8007c32:	f649 4340 	movw	r3, #40000	; 0x9c40
 8007c36:	6a48      	ldr	r0, [r1, #36]	; 0x24
 8007c38:	f010 0002 	ands.w	r0, r0, #2
 8007c3c:	bf18      	it	ne
 8007c3e:	4618      	movne	r0, r3
 8007c40:	e7b2      	b.n	8007ba8 <HAL_RCCEx_GetPeriphCLKFreq+0x58>
 8007c42:	f44f 4000 	mov.w	r0, #32768	; 0x8000
 8007c46:	e7af      	b.n	8007ba8 <HAL_RCCEx_GetPeriphCLKFreq+0x58>
 8007c48:	0800d76c 	.word	0x0800d76c
 8007c4c:	40021000 	.word	0x40021000
 8007c50:	003d0900 	.word	0x003d0900
 8007c54:	aaaaaaab 	.word	0xaaaaaaab
 8007c58:	007a1200 	.word	0x007a1200

08007c5c <HAL_TIM_Base_Init>:
 8007c5c:	2800      	cmp	r0, #0
 8007c5e:	d06e      	beq.n	8007d3e <HAL_TIM_Base_Init+0xe2>
 8007c60:	b510      	push	{r4, lr}
 8007c62:	f890 303d 	ldrb.w	r3, [r0, #61]	; 0x3d
 8007c66:	4604      	mov	r4, r0
 8007c68:	f003 02ff 	and.w	r2, r3, #255	; 0xff
 8007c6c:	2b00      	cmp	r3, #0
 8007c6e:	d061      	beq.n	8007d34 <HAL_TIM_Base_Init+0xd8>
 8007c70:	2302      	movs	r3, #2
 8007c72:	6822      	ldr	r2, [r4, #0]
 8007c74:	4933      	ldr	r1, [pc, #204]	; (8007d44 <HAL_TIM_Base_Init+0xe8>)
 8007c76:	f884 303d 	strb.w	r3, [r4, #61]	; 0x3d
 8007c7a:	428a      	cmp	r2, r1
 8007c7c:	6813      	ldr	r3, [r2, #0]
 8007c7e:	d01c      	beq.n	8007cba <HAL_TIM_Base_Init+0x5e>
 8007c80:	f501 6100 	add.w	r1, r1, #2048	; 0x800
 8007c84:	428a      	cmp	r2, r1
 8007c86:	d018      	beq.n	8007cba <HAL_TIM_Base_Init+0x5e>
 8007c88:	f1b2 4f80 	cmp.w	r2, #1073741824	; 0x40000000
 8007c8c:	d040      	beq.n	8007d10 <HAL_TIM_Base_Init+0xb4>
 8007c8e:	f5a1 3198 	sub.w	r1, r1, #77824	; 0x13000
 8007c92:	428a      	cmp	r2, r1
 8007c94:	d03c      	beq.n	8007d10 <HAL_TIM_Base_Init+0xb4>
 8007c96:	f501 6180 	add.w	r1, r1, #1024	; 0x400
 8007c9a:	428a      	cmp	r2, r1
 8007c9c:	d038      	beq.n	8007d10 <HAL_TIM_Base_Init+0xb4>
 8007c9e:	f501 6180 	add.w	r1, r1, #1024	; 0x400
 8007ca2:	428a      	cmp	r2, r1
 8007ca4:	d034      	beq.n	8007d10 <HAL_TIM_Base_Init+0xb4>
 8007ca6:	69a0      	ldr	r0, [r4, #24]
 8007ca8:	f023 0380 	bic.w	r3, r3, #128	; 0x80
 8007cac:	4303      	orrs	r3, r0
 8007cae:	68e1      	ldr	r1, [r4, #12]
 8007cb0:	6013      	str	r3, [r2, #0]
 8007cb2:	6863      	ldr	r3, [r4, #4]
 8007cb4:	62d1      	str	r1, [r2, #44]	; 0x2c
 8007cb6:	6293      	str	r3, [r2, #40]	; 0x28
 8007cb8:	e012      	b.n	8007ce0 <HAL_TIM_Base_Init+0x84>
 8007cba:	68a0      	ldr	r0, [r4, #8]
 8007cbc:	f023 0370 	bic.w	r3, r3, #112	; 0x70
 8007cc0:	6921      	ldr	r1, [r4, #16]
 8007cc2:	4303      	orrs	r3, r0
 8007cc4:	f423 7340 	bic.w	r3, r3, #768	; 0x300
 8007cc8:	430b      	orrs	r3, r1
 8007cca:	69a1      	ldr	r1, [r4, #24]
 8007ccc:	f023 0380 	bic.w	r3, r3, #128	; 0x80
 8007cd0:	430b      	orrs	r3, r1
 8007cd2:	6013      	str	r3, [r2, #0]
 8007cd4:	68e3      	ldr	r3, [r4, #12]
 8007cd6:	62d3      	str	r3, [r2, #44]	; 0x2c
 8007cd8:	6863      	ldr	r3, [r4, #4]
 8007cda:	6293      	str	r3, [r2, #40]	; 0x28
 8007cdc:	6963      	ldr	r3, [r4, #20]
 8007cde:	6313      	str	r3, [r2, #48]	; 0x30
 8007ce0:	2301      	movs	r3, #1
 8007ce2:	6153      	str	r3, [r2, #20]
 8007ce4:	f884 3046 	strb.w	r3, [r4, #70]	; 0x46
 8007ce8:	f884 303e 	strb.w	r3, [r4, #62]	; 0x3e
 8007cec:	f884 303f 	strb.w	r3, [r4, #63]	; 0x3f
 8007cf0:	f884 3040 	strb.w	r3, [r4, #64]	; 0x40
 8007cf4:	f884 3041 	strb.w	r3, [r4, #65]	; 0x41
 8007cf8:	f884 3042 	strb.w	r3, [r4, #66]	; 0x42
 8007cfc:	f884 3043 	strb.w	r3, [r4, #67]	; 0x43
 8007d00:	f884 3044 	strb.w	r3, [r4, #68]	; 0x44
 8007d04:	f884 3045 	strb.w	r3, [r4, #69]	; 0x45
 8007d08:	f884 303d 	strb.w	r3, [r4, #61]	; 0x3d
 8007d0c:	2000      	movs	r0, #0
 8007d0e:	bd10      	pop	{r4, pc}
 8007d10:	68a1      	ldr	r1, [r4, #8]
 8007d12:	f023 0370 	bic.w	r3, r3, #112	; 0x70
 8007d16:	6920      	ldr	r0, [r4, #16]
 8007d18:	430b      	orrs	r3, r1
 8007d1a:	f423 7340 	bic.w	r3, r3, #768	; 0x300
 8007d1e:	69a1      	ldr	r1, [r4, #24]
 8007d20:	4303      	orrs	r3, r0
 8007d22:	f023 0380 	bic.w	r3, r3, #128	; 0x80
 8007d26:	68e0      	ldr	r0, [r4, #12]
 8007d28:	430b      	orrs	r3, r1
 8007d2a:	6861      	ldr	r1, [r4, #4]
 8007d2c:	6013      	str	r3, [r2, #0]
 8007d2e:	62d0      	str	r0, [r2, #44]	; 0x2c
 8007d30:	6291      	str	r1, [r2, #40]	; 0x28
 8007d32:	e7d5      	b.n	8007ce0 <HAL_TIM_Base_Init+0x84>
 8007d34:	f880 203c 	strb.w	r2, [r0, #60]	; 0x3c
 8007d38:	f7fd fa24 	bl	8005184 <HAL_TIM_Base_MspInit>
 8007d3c:	e798      	b.n	8007c70 <HAL_TIM_Base_Init+0x14>
 8007d3e:	2001      	movs	r0, #1
 8007d40:	4770      	bx	lr
 8007d42:	bf00      	nop
 8007d44:	40012c00 	.word	0x40012c00

08007d48 <HAL_TIM_Base_Start_IT>:
 8007d48:	f890 303d 	ldrb.w	r3, [r0, #61]	; 0x3d
 8007d4c:	2b01      	cmp	r3, #1
 8007d4e:	d127      	bne.n	8007da0 <HAL_TIM_Base_Start_IT+0x58>
 8007d50:	2202      	movs	r2, #2
 8007d52:	6803      	ldr	r3, [r0, #0]
 8007d54:	f880 203d 	strb.w	r2, [r0, #61]	; 0x3d
 8007d58:	68da      	ldr	r2, [r3, #12]
 8007d5a:	4913      	ldr	r1, [pc, #76]	; (8007da8 <HAL_TIM_Base_Start_IT+0x60>)
 8007d5c:	f042 0201 	orr.w	r2, r2, #1
 8007d60:	428b      	cmp	r3, r1
 8007d62:	60da      	str	r2, [r3, #12]
 8007d64:	d011      	beq.n	8007d8a <HAL_TIM_Base_Start_IT+0x42>
 8007d66:	4a11      	ldr	r2, [pc, #68]	; (8007dac <HAL_TIM_Base_Start_IT+0x64>)
 8007d68:	4293      	cmp	r3, r2
 8007d6a:	d00e      	beq.n	8007d8a <HAL_TIM_Base_Start_IT+0x42>
 8007d6c:	f1b3 4f80 	cmp.w	r3, #1073741824	; 0x40000000
 8007d70:	d00b      	beq.n	8007d8a <HAL_TIM_Base_Start_IT+0x42>
 8007d72:	f5a2 3298 	sub.w	r2, r2, #77824	; 0x13000
 8007d76:	4293      	cmp	r3, r2
 8007d78:	d007      	beq.n	8007d8a <HAL_TIM_Base_Start_IT+0x42>
 8007d7a:	f502 6280 	add.w	r2, r2, #1024	; 0x400
 8007d7e:	4293      	cmp	r3, r2
 8007d80:	d003      	beq.n	8007d8a <HAL_TIM_Base_Start_IT+0x42>
 8007d82:	f502 6280 	add.w	r2, r2, #1024	; 0x400
 8007d86:	4293      	cmp	r3, r2
 8007d88:	d104      	bne.n	8007d94 <HAL_TIM_Base_Start_IT+0x4c>
 8007d8a:	689a      	ldr	r2, [r3, #8]
 8007d8c:	f002 0207 	and.w	r2, r2, #7
 8007d90:	2a06      	cmp	r2, #6
 8007d92:	d007      	beq.n	8007da4 <HAL_TIM_Base_Start_IT+0x5c>
 8007d94:	681a      	ldr	r2, [r3, #0]
 8007d96:	2000      	movs	r0, #0
 8007d98:	f042 0201 	orr.w	r2, r2, #1
 8007d9c:	601a      	str	r2, [r3, #0]
 8007d9e:	4770      	bx	lr
 8007da0:	2001      	movs	r0, #1
 8007da2:	4770      	bx	lr
 8007da4:	2000      	movs	r0, #0
 8007da6:	4770      	bx	lr
 8007da8:	40012c00 	.word	0x40012c00
 8007dac:	40013400 	.word	0x40013400

08007db0 <HAL_TIM_ConfigClockSource>:
 8007db0:	f890 203c 	ldrb.w	r2, [r0, #60]	; 0x3c
 8007db4:	2a01      	cmp	r2, #1
 8007db6:	d075      	beq.n	8007ea4 <HAL_TIM_ConfigClockSource+0xf4>
 8007db8:	b430      	push	{r4, r5}
 8007dba:	4603      	mov	r3, r0
 8007dbc:	2401      	movs	r4, #1
 8007dbe:	2202      	movs	r2, #2
 8007dc0:	6800      	ldr	r0, [r0, #0]
 8007dc2:	f883 403c 	strb.w	r4, [r3, #60]	; 0x3c
 8007dc6:	f883 203d 	strb.w	r2, [r3, #61]	; 0x3d
 8007dca:	6884      	ldr	r4, [r0, #8]
 8007dcc:	680a      	ldr	r2, [r1, #0]
 8007dce:	f424 447f 	bic.w	r4, r4, #65280	; 0xff00
 8007dd2:	f024 0477 	bic.w	r4, r4, #119	; 0x77
 8007dd6:	2a60      	cmp	r2, #96	; 0x60
 8007dd8:	6084      	str	r4, [r0, #8]
 8007dda:	d065      	beq.n	8007ea8 <HAL_TIM_ConfigClockSource+0xf8>
 8007ddc:	d831      	bhi.n	8007e42 <HAL_TIM_ConfigClockSource+0x92>
 8007dde:	2a40      	cmp	r2, #64	; 0x40
 8007de0:	d048      	beq.n	8007e74 <HAL_TIM_ConfigClockSource+0xc4>
 8007de2:	d921      	bls.n	8007e28 <HAL_TIM_ConfigClockSource+0x78>
 8007de4:	2a50      	cmp	r2, #80	; 0x50
 8007de6:	d116      	bne.n	8007e16 <HAL_TIM_ConfigClockSource+0x66>
 8007de8:	684c      	ldr	r4, [r1, #4]
 8007dea:	68cd      	ldr	r5, [r1, #12]
 8007dec:	6a01      	ldr	r1, [r0, #32]
 8007dee:	f021 010a 	bic.w	r1, r1, #10
 8007df2:	4321      	orrs	r1, r4
 8007df4:	6a04      	ldr	r4, [r0, #32]
 8007df6:	f024 0401 	bic.w	r4, r4, #1
 8007dfa:	6204      	str	r4, [r0, #32]
 8007dfc:	6982      	ldr	r2, [r0, #24]
 8007dfe:	f022 02f0 	bic.w	r2, r2, #240	; 0xf0
 8007e02:	ea42 1205 	orr.w	r2, r2, r5, lsl #4
 8007e06:	6182      	str	r2, [r0, #24]
 8007e08:	6201      	str	r1, [r0, #32]
 8007e0a:	6882      	ldr	r2, [r0, #8]
 8007e0c:	f022 0270 	bic.w	r2, r2, #112	; 0x70
 8007e10:	f042 0257 	orr.w	r2, r2, #87	; 0x57
 8007e14:	6082      	str	r2, [r0, #8]
 8007e16:	2200      	movs	r2, #0
 8007e18:	2101      	movs	r1, #1
 8007e1a:	f883 203c 	strb.w	r2, [r3, #60]	; 0x3c
 8007e1e:	f883 103d 	strb.w	r1, [r3, #61]	; 0x3d
 8007e22:	4610      	mov	r0, r2
 8007e24:	bc30      	pop	{r4, r5}
 8007e26:	4770      	bx	lr
 8007e28:	2a20      	cmp	r2, #32
 8007e2a:	d002      	beq.n	8007e32 <HAL_TIM_ConfigClockSource+0x82>
 8007e2c:	d91e      	bls.n	8007e6c <HAL_TIM_ConfigClockSource+0xbc>
 8007e2e:	2a30      	cmp	r2, #48	; 0x30
 8007e30:	d1f1      	bne.n	8007e16 <HAL_TIM_ConfigClockSource+0x66>
 8007e32:	6881      	ldr	r1, [r0, #8]
 8007e34:	f021 0170 	bic.w	r1, r1, #112	; 0x70
 8007e38:	430a      	orrs	r2, r1
 8007e3a:	f042 0207 	orr.w	r2, r2, #7
 8007e3e:	6082      	str	r2, [r0, #8]
 8007e40:	e7e9      	b.n	8007e16 <HAL_TIM_ConfigClockSource+0x66>
 8007e42:	2a70      	cmp	r2, #112	; 0x70
 8007e44:	d049      	beq.n	8007eda <HAL_TIM_ConfigClockSource+0x12a>
 8007e46:	f5b2 5f00 	cmp.w	r2, #8192	; 0x2000
 8007e4a:	d1e4      	bne.n	8007e16 <HAL_TIM_ConfigClockSource+0x66>
 8007e4c:	e9d1 5201 	ldrd	r5, r2, [r1, #4]
 8007e50:	6884      	ldr	r4, [r0, #8]
 8007e52:	432a      	orrs	r2, r5
 8007e54:	68cd      	ldr	r5, [r1, #12]
 8007e56:	f424 417f 	bic.w	r1, r4, #65280	; 0xff00
 8007e5a:	ea42 2205 	orr.w	r2, r2, r5, lsl #8
 8007e5e:	430a      	orrs	r2, r1
 8007e60:	6082      	str	r2, [r0, #8]
 8007e62:	6882      	ldr	r2, [r0, #8]
 8007e64:	f442 4280 	orr.w	r2, r2, #16384	; 0x4000
 8007e68:	6082      	str	r2, [r0, #8]
 8007e6a:	e7d4      	b.n	8007e16 <HAL_TIM_ConfigClockSource+0x66>
 8007e6c:	f032 0110 	bics.w	r1, r2, #16
 8007e70:	d1d1      	bne.n	8007e16 <HAL_TIM_ConfigClockSource+0x66>
 8007e72:	e7de      	b.n	8007e32 <HAL_TIM_ConfigClockSource+0x82>
 8007e74:	684c      	ldr	r4, [r1, #4]
 8007e76:	68cd      	ldr	r5, [r1, #12]
 8007e78:	6a01      	ldr	r1, [r0, #32]
 8007e7a:	f021 010a 	bic.w	r1, r1, #10
 8007e7e:	4321      	orrs	r1, r4
 8007e80:	6a04      	ldr	r4, [r0, #32]
 8007e82:	f024 0401 	bic.w	r4, r4, #1
 8007e86:	6204      	str	r4, [r0, #32]
 8007e88:	6982      	ldr	r2, [r0, #24]
 8007e8a:	f022 02f0 	bic.w	r2, r2, #240	; 0xf0
 8007e8e:	ea42 1205 	orr.w	r2, r2, r5, lsl #4
 8007e92:	6182      	str	r2, [r0, #24]
 8007e94:	6201      	str	r1, [r0, #32]
 8007e96:	6882      	ldr	r2, [r0, #8]
 8007e98:	f022 0270 	bic.w	r2, r2, #112	; 0x70
 8007e9c:	f042 0247 	orr.w	r2, r2, #71	; 0x47
 8007ea0:	6082      	str	r2, [r0, #8]
 8007ea2:	e7b8      	b.n	8007e16 <HAL_TIM_ConfigClockSource+0x66>
 8007ea4:	2002      	movs	r0, #2
 8007ea6:	4770      	bx	lr
 8007ea8:	6a04      	ldr	r4, [r0, #32]
 8007eaa:	68ca      	ldr	r2, [r1, #12]
 8007eac:	f024 0410 	bic.w	r4, r4, #16
 8007eb0:	684d      	ldr	r5, [r1, #4]
 8007eb2:	6204      	str	r4, [r0, #32]
 8007eb4:	6981      	ldr	r1, [r0, #24]
 8007eb6:	f421 4170 	bic.w	r1, r1, #61440	; 0xf000
 8007eba:	ea41 3102 	orr.w	r1, r1, r2, lsl #12
 8007ebe:	6a02      	ldr	r2, [r0, #32]
 8007ec0:	6181      	str	r1, [r0, #24]
 8007ec2:	f022 02a0 	bic.w	r2, r2, #160	; 0xa0
 8007ec6:	ea42 1205 	orr.w	r2, r2, r5, lsl #4
 8007eca:	6202      	str	r2, [r0, #32]
 8007ecc:	6882      	ldr	r2, [r0, #8]
 8007ece:	f022 0270 	bic.w	r2, r2, #112	; 0x70
 8007ed2:	f042 0267 	orr.w	r2, r2, #103	; 0x67
 8007ed6:	6082      	str	r2, [r0, #8]
 8007ed8:	e79d      	b.n	8007e16 <HAL_TIM_ConfigClockSource+0x66>
 8007eda:	e9d1 5201 	ldrd	r5, r2, [r1, #4]
 8007ede:	6884      	ldr	r4, [r0, #8]
 8007ee0:	432a      	orrs	r2, r5
 8007ee2:	68cd      	ldr	r5, [r1, #12]
 8007ee4:	f424 417f 	bic.w	r1, r4, #65280	; 0xff00
 8007ee8:	ea42 2205 	orr.w	r2, r2, r5, lsl #8
 8007eec:	430a      	orrs	r2, r1
 8007eee:	6082      	str	r2, [r0, #8]
 8007ef0:	6882      	ldr	r2, [r0, #8]
 8007ef2:	f042 0277 	orr.w	r2, r2, #119	; 0x77
 8007ef6:	6082      	str	r2, [r0, #8]
 8007ef8:	e78d      	b.n	8007e16 <HAL_TIM_ConfigClockSource+0x66>
 8007efa:	bf00      	nop

08007efc <HAL_TIM_PeriodElapsedCallback>:
 8007efc:	4770      	bx	lr
 8007efe:	bf00      	nop

08007f00 <HAL_TIM_OC_DelayElapsedCallback>:
 8007f00:	4770      	bx	lr
 8007f02:	bf00      	nop

08007f04 <HAL_TIM_IC_CaptureCallback>:
 8007f04:	4770      	bx	lr
 8007f06:	bf00      	nop

08007f08 <HAL_TIM_PWM_PulseFinishedCallback>:
 8007f08:	4770      	bx	lr
 8007f0a:	bf00      	nop

08007f0c <HAL_TIM_TriggerCallback>:
 8007f0c:	4770      	bx	lr
 8007f0e:	bf00      	nop

08007f10 <HAL_TIM_IRQHandler>:
 8007f10:	6803      	ldr	r3, [r0, #0]
 8007f12:	b510      	push	{r4, lr}
 8007f14:	691a      	ldr	r2, [r3, #16]
 8007f16:	4604      	mov	r4, r0
 8007f18:	0791      	lsls	r1, r2, #30
 8007f1a:	d502      	bpl.n	8007f22 <HAL_TIM_IRQHandler+0x12>
 8007f1c:	68da      	ldr	r2, [r3, #12]
 8007f1e:	0792      	lsls	r2, r2, #30
 8007f20:	d45f      	bmi.n	8007fe2 <HAL_TIM_IRQHandler+0xd2>
 8007f22:	691a      	ldr	r2, [r3, #16]
 8007f24:	0750      	lsls	r0, r2, #29
 8007f26:	d502      	bpl.n	8007f2e <HAL_TIM_IRQHandler+0x1e>
 8007f28:	68da      	ldr	r2, [r3, #12]
 8007f2a:	0751      	lsls	r1, r2, #29
 8007f2c:	d446      	bmi.n	8007fbc <HAL_TIM_IRQHandler+0xac>
 8007f2e:	691a      	ldr	r2, [r3, #16]
 8007f30:	0712      	lsls	r2, r2, #28
 8007f32:	d502      	bpl.n	8007f3a <HAL_TIM_IRQHandler+0x2a>
 8007f34:	68da      	ldr	r2, [r3, #12]
 8007f36:	0710      	lsls	r0, r2, #28
 8007f38:	d42e      	bmi.n	8007f98 <HAL_TIM_IRQHandler+0x88>
 8007f3a:	691a      	ldr	r2, [r3, #16]
 8007f3c:	06d2      	lsls	r2, r2, #27
 8007f3e:	d502      	bpl.n	8007f46 <HAL_TIM_IRQHandler+0x36>
 8007f40:	68da      	ldr	r2, [r3, #12]
 8007f42:	06d0      	lsls	r0, r2, #27
 8007f44:	d418      	bmi.n	8007f78 <HAL_TIM_IRQHandler+0x68>
 8007f46:	691a      	ldr	r2, [r3, #16]
 8007f48:	07d1      	lsls	r1, r2, #31
 8007f4a:	d502      	bpl.n	8007f52 <HAL_TIM_IRQHandler+0x42>
 8007f4c:	68da      	ldr	r2, [r3, #12]
 8007f4e:	07d2      	lsls	r2, r2, #31
 8007f50:	d45d      	bmi.n	800800e <HAL_TIM_IRQHandler+0xfe>
 8007f52:	691a      	ldr	r2, [r3, #16]
 8007f54:	0610      	lsls	r0, r2, #24
 8007f56:	d502      	bpl.n	8007f5e <HAL_TIM_IRQHandler+0x4e>
 8007f58:	68da      	ldr	r2, [r3, #12]
 8007f5a:	0611      	lsls	r1, r2, #24
 8007f5c:	d45f      	bmi.n	800801e <HAL_TIM_IRQHandler+0x10e>
 8007f5e:	691a      	ldr	r2, [r3, #16]
 8007f60:	0652      	lsls	r2, r2, #25
 8007f62:	d502      	bpl.n	8007f6a <HAL_TIM_IRQHandler+0x5a>
 8007f64:	68da      	ldr	r2, [r3, #12]
 8007f66:	0650      	lsls	r0, r2, #25
 8007f68:	d461      	bmi.n	800802e <HAL_TIM_IRQHandler+0x11e>
 8007f6a:	691a      	ldr	r2, [r3, #16]
 8007f6c:	0691      	lsls	r1, r2, #26
 8007f6e:	d502      	bpl.n	8007f76 <HAL_TIM_IRQHandler+0x66>
 8007f70:	68da      	ldr	r2, [r3, #12]
 8007f72:	0692      	lsls	r2, r2, #26
 8007f74:	d443      	bmi.n	8007ffe <HAL_TIM_IRQHandler+0xee>
 8007f76:	bd10      	pop	{r4, pc}
 8007f78:	f06f 0110 	mvn.w	r1, #16
 8007f7c:	2208      	movs	r2, #8
 8007f7e:	6119      	str	r1, [r3, #16]
 8007f80:	7722      	strb	r2, [r4, #28]
 8007f82:	69db      	ldr	r3, [r3, #28]
 8007f84:	4620      	mov	r0, r4
 8007f86:	f413 7f40 	tst.w	r3, #768	; 0x300
 8007f8a:	d064      	beq.n	8008056 <HAL_TIM_IRQHandler+0x146>
 8007f8c:	f7ff ffba 	bl	8007f04 <HAL_TIM_IC_CaptureCallback>
 8007f90:	2200      	movs	r2, #0
 8007f92:	6823      	ldr	r3, [r4, #0]
 8007f94:	7722      	strb	r2, [r4, #28]
 8007f96:	e7d6      	b.n	8007f46 <HAL_TIM_IRQHandler+0x36>
 8007f98:	f06f 0108 	mvn.w	r1, #8
 8007f9c:	2204      	movs	r2, #4
 8007f9e:	6119      	str	r1, [r3, #16]
 8007fa0:	7722      	strb	r2, [r4, #28]
 8007fa2:	69db      	ldr	r3, [r3, #28]
 8007fa4:	4620      	mov	r0, r4
 8007fa6:	0799      	lsls	r1, r3, #30
 8007fa8:	d152      	bne.n	8008050 <HAL_TIM_IRQHandler+0x140>
 8007faa:	f7ff ffa9 	bl	8007f00 <HAL_TIM_OC_DelayElapsedCallback>
 8007fae:	4620      	mov	r0, r4
 8007fb0:	f7ff ffaa 	bl	8007f08 <HAL_TIM_PWM_PulseFinishedCallback>
 8007fb4:	2200      	movs	r2, #0
 8007fb6:	6823      	ldr	r3, [r4, #0]
 8007fb8:	7722      	strb	r2, [r4, #28]
 8007fba:	e7be      	b.n	8007f3a <HAL_TIM_IRQHandler+0x2a>
 8007fbc:	f06f 0104 	mvn.w	r1, #4
 8007fc0:	2202      	movs	r2, #2
 8007fc2:	6119      	str	r1, [r3, #16]
 8007fc4:	7722      	strb	r2, [r4, #28]
 8007fc6:	699b      	ldr	r3, [r3, #24]
 8007fc8:	4620      	mov	r0, r4
 8007fca:	f413 7f40 	tst.w	r3, #768	; 0x300
 8007fce:	d13c      	bne.n	800804a <HAL_TIM_IRQHandler+0x13a>
 8007fd0:	f7ff ff96 	bl	8007f00 <HAL_TIM_OC_DelayElapsedCallback>
 8007fd4:	4620      	mov	r0, r4
 8007fd6:	f7ff ff97 	bl	8007f08 <HAL_TIM_PWM_PulseFinishedCallback>
 8007fda:	2200      	movs	r2, #0
 8007fdc:	6823      	ldr	r3, [r4, #0]
 8007fde:	7722      	strb	r2, [r4, #28]
 8007fe0:	e7a5      	b.n	8007f2e <HAL_TIM_IRQHandler+0x1e>
 8007fe2:	f06f 0102 	mvn.w	r1, #2
 8007fe6:	2201      	movs	r2, #1
 8007fe8:	6119      	str	r1, [r3, #16]
 8007fea:	7702      	strb	r2, [r0, #28]
 8007fec:	699b      	ldr	r3, [r3, #24]
 8007fee:	079b      	lsls	r3, r3, #30
 8007ff0:	d025      	beq.n	800803e <HAL_TIM_IRQHandler+0x12e>
 8007ff2:	f7ff ff87 	bl	8007f04 <HAL_TIM_IC_CaptureCallback>
 8007ff6:	2200      	movs	r2, #0
 8007ff8:	6823      	ldr	r3, [r4, #0]
 8007ffa:	7722      	strb	r2, [r4, #28]
 8007ffc:	e791      	b.n	8007f22 <HAL_TIM_IRQHandler+0x12>
 8007ffe:	f06f 0220 	mvn.w	r2, #32
 8008002:	4620      	mov	r0, r4
 8008004:	e8bd 4010 	ldmia.w	sp!, {r4, lr}
 8008008:	611a      	str	r2, [r3, #16]
 800800a:	f000 b865 	b.w	80080d8 <HAL_TIMEx_CommutCallback>
 800800e:	f06f 0201 	mvn.w	r2, #1
 8008012:	4620      	mov	r0, r4
 8008014:	611a      	str	r2, [r3, #16]
 8008016:	f7ff ff71 	bl	8007efc <HAL_TIM_PeriodElapsedCallback>
 800801a:	6823      	ldr	r3, [r4, #0]
 800801c:	e799      	b.n	8007f52 <HAL_TIM_IRQHandler+0x42>
 800801e:	f06f 0280 	mvn.w	r2, #128	; 0x80
 8008022:	4620      	mov	r0, r4
 8008024:	611a      	str	r2, [r3, #16]
 8008026:	f000 f859 	bl	80080dc <HAL_TIMEx_BreakCallback>
 800802a:	6823      	ldr	r3, [r4, #0]
 800802c:	e797      	b.n	8007f5e <HAL_TIM_IRQHandler+0x4e>
 800802e:	f06f 0240 	mvn.w	r2, #64	; 0x40
 8008032:	4620      	mov	r0, r4
 8008034:	611a      	str	r2, [r3, #16]
 8008036:	f7ff ff69 	bl	8007f0c <HAL_TIM_TriggerCallback>
 800803a:	6823      	ldr	r3, [r4, #0]
 800803c:	e795      	b.n	8007f6a <HAL_TIM_IRQHandler+0x5a>
 800803e:	f7ff ff5f 	bl	8007f00 <HAL_TIM_OC_DelayElapsedCallback>
 8008042:	4620      	mov	r0, r4
 8008044:	f7ff ff60 	bl	8007f08 <HAL_TIM_PWM_PulseFinishedCallback>
 8008048:	e7d5      	b.n	8007ff6 <HAL_TIM_IRQHandler+0xe6>
 800804a:	f7ff ff5b 	bl	8007f04 <HAL_TIM_IC_CaptureCallback>
 800804e:	e7c4      	b.n	8007fda <HAL_TIM_IRQHandler+0xca>
 8008050:	f7ff ff58 	bl	8007f04 <HAL_TIM_IC_CaptureCallback>
 8008054:	e7ae      	b.n	8007fb4 <HAL_TIM_IRQHandler+0xa4>
 8008056:	f7ff ff53 	bl	8007f00 <HAL_TIM_OC_DelayElapsedCallback>
 800805a:	4620      	mov	r0, r4
 800805c:	f7ff ff54 	bl	8007f08 <HAL_TIM_PWM_PulseFinishedCallback>
 8008060:	e796      	b.n	8007f90 <HAL_TIM_IRQHandler+0x80>
 8008062:	bf00      	nop

08008064 <HAL_TIMEx_MasterConfigSynchronization>:
 8008064:	f890 203c 	ldrb.w	r2, [r0, #60]	; 0x3c
 8008068:	2a01      	cmp	r2, #1
 800806a:	d02f      	beq.n	80080cc <HAL_TIMEx_MasterConfigSynchronization+0x68>
 800806c:	4603      	mov	r3, r0
 800806e:	2002      	movs	r0, #2
 8008070:	681a      	ldr	r2, [r3, #0]
 8008072:	b430      	push	{r4, r5}
 8008074:	f883 003d 	strb.w	r0, [r3, #61]	; 0x3d
 8008078:	6850      	ldr	r0, [r2, #4]
 800807a:	680c      	ldr	r4, [r1, #0]
 800807c:	4d14      	ldr	r5, [pc, #80]	; (80080d0 <HAL_TIMEx_MasterConfigSynchronization+0x6c>)
 800807e:	f020 0070 	bic.w	r0, r0, #112	; 0x70
 8008082:	4320      	orrs	r0, r4
 8008084:	42aa      	cmp	r2, r5
 8008086:	6894      	ldr	r4, [r2, #8]
 8008088:	6050      	str	r0, [r2, #4]
 800808a:	d011      	beq.n	80080b0 <HAL_TIMEx_MasterConfigSynchronization+0x4c>
 800808c:	4811      	ldr	r0, [pc, #68]	; (80080d4 <HAL_TIMEx_MasterConfigSynchronization+0x70>)
 800808e:	4282      	cmp	r2, r0
 8008090:	d00e      	beq.n	80080b0 <HAL_TIMEx_MasterConfigSynchronization+0x4c>
 8008092:	f1b2 4f80 	cmp.w	r2, #1073741824	; 0x40000000
 8008096:	d00b      	beq.n	80080b0 <HAL_TIMEx_MasterConfigSynchronization+0x4c>
 8008098:	f5a0 3098 	sub.w	r0, r0, #77824	; 0x13000
 800809c:	4282      	cmp	r2, r0
 800809e:	d007      	beq.n	80080b0 <HAL_TIMEx_MasterConfigSynchronization+0x4c>
 80080a0:	f500 6080 	add.w	r0, r0, #1024	; 0x400
 80080a4:	4282      	cmp	r2, r0
 80080a6:	d003      	beq.n	80080b0 <HAL_TIMEx_MasterConfigSynchronization+0x4c>
 80080a8:	f500 6080 	add.w	r0, r0, #1024	; 0x400
 80080ac:	4282      	cmp	r2, r0
 80080ae:	d104      	bne.n	80080ba <HAL_TIMEx_MasterConfigSynchronization+0x56>
 80080b0:	6849      	ldr	r1, [r1, #4]
 80080b2:	f024 0480 	bic.w	r4, r4, #128	; 0x80
 80080b6:	430c      	orrs	r4, r1
 80080b8:	6094      	str	r4, [r2, #8]
 80080ba:	2200      	movs	r2, #0
 80080bc:	2101      	movs	r1, #1
 80080be:	f883 203c 	strb.w	r2, [r3, #60]	; 0x3c
 80080c2:	f883 103d 	strb.w	r1, [r3, #61]	; 0x3d
 80080c6:	4610      	mov	r0, r2
 80080c8:	bc30      	pop	{r4, r5}
 80080ca:	4770      	bx	lr
 80080cc:	2002      	movs	r0, #2
 80080ce:	4770      	bx	lr
 80080d0:	40012c00 	.word	0x40012c00
 80080d4:	40013400 	.word	0x40013400

080080d8 <HAL_TIMEx_CommutCallback>:
 80080d8:	4770      	bx	lr
 80080da:	bf00      	nop

080080dc <HAL_TIMEx_BreakCallback>:
 80080dc:	4770      	bx	lr
 80080de:	bf00      	nop

080080e0 <HAL_UART_Init>:
 80080e0:	2800      	cmp	r0, #0
 80080e2:	d064      	beq.n	80081ae <HAL_UART_Init+0xce>
 80080e4:	b5f8      	push	{r3, r4, r5, r6, r7, lr}
 80080e6:	f890 3039 	ldrb.w	r3, [r0, #57]	; 0x39
 80080ea:	4604      	mov	r4, r0
 80080ec:	f003 02ff 	and.w	r2, r3, #255	; 0xff
 80080f0:	2b00      	cmp	r3, #0
 80080f2:	d054      	beq.n	800819e <HAL_UART_Init+0xbe>
 80080f4:	e9d4 2702 	ldrd	r2, r7, [r4, #8]
 80080f8:	2124      	movs	r1, #36	; 0x24
 80080fa:	6920      	ldr	r0, [r4, #16]
 80080fc:	6823      	ldr	r3, [r4, #0]
 80080fe:	4302      	orrs	r2, r0
 8008100:	6960      	ldr	r0, [r4, #20]
 8008102:	f884 1039 	strb.w	r1, [r4, #57]	; 0x39
 8008106:	4302      	orrs	r2, r0
 8008108:	68d8      	ldr	r0, [r3, #12]
 800810a:	69a6      	ldr	r6, [r4, #24]
 800810c:	f420 5000 	bic.w	r0, r0, #8192	; 0x2000
 8008110:	60d8      	str	r0, [r3, #12]
 8008112:	6919      	ldr	r1, [r3, #16]
 8008114:	4d27      	ldr	r5, [pc, #156]	; (80081b4 <HAL_UART_Init+0xd4>)
 8008116:	f421 5140 	bic.w	r1, r1, #12288	; 0x3000
 800811a:	4339      	orrs	r1, r7
 800811c:	6119      	str	r1, [r3, #16]
 800811e:	68d9      	ldr	r1, [r3, #12]
 8008120:	42ab      	cmp	r3, r5
 8008122:	f421 51b0 	bic.w	r1, r1, #5632	; 0x1600
 8008126:	f021 010c 	bic.w	r1, r1, #12
 800812a:	ea42 0201 	orr.w	r2, r2, r1
 800812e:	60da      	str	r2, [r3, #12]
 8008130:	695a      	ldr	r2, [r3, #20]
 8008132:	f422 7240 	bic.w	r2, r2, #768	; 0x300
 8008136:	ea42 0206 	orr.w	r2, r2, r6
 800813a:	615a      	str	r2, [r3, #20]
 800813c:	d034      	beq.n	80081a8 <HAL_UART_Init+0xc8>
 800813e:	f7ff fc65 	bl	8007a0c <HAL_RCC_GetPCLK1Freq>
 8008142:	6862      	ldr	r2, [r4, #4]
 8008144:	eb00 0380 	add.w	r3, r0, r0, lsl #2
 8008148:	0092      	lsls	r2, r2, #2
 800814a:	eb03 0383 	add.w	r3, r3, r3, lsl #2
 800814e:	fbb3 f3f2 	udiv	r3, r3, r2
 8008152:	2664      	movs	r6, #100	; 0x64
 8008154:	2500      	movs	r5, #0
 8008156:	f04f 0c20 	mov.w	ip, #32
 800815a:	4817      	ldr	r0, [pc, #92]	; (80081b8 <HAL_UART_Init+0xd8>)
 800815c:	6821      	ldr	r1, [r4, #0]
 800815e:	fba0 7203 	umull	r7, r2, r0, r3
 8008162:	0952      	lsrs	r2, r2, #5
 8008164:	fb06 3312 	mls	r3, r6, r2, r3
 8008168:	011b      	lsls	r3, r3, #4
 800816a:	3332      	adds	r3, #50	; 0x32
 800816c:	fba0 0303 	umull	r0, r3, r0, r3
 8008170:	0112      	lsls	r2, r2, #4
 8008172:	eb02 1353 	add.w	r3, r2, r3, lsr #5
 8008176:	608b      	str	r3, [r1, #8]
 8008178:	690b      	ldr	r3, [r1, #16]
 800817a:	4628      	mov	r0, r5
 800817c:	f423 4390 	bic.w	r3, r3, #18432	; 0x4800
 8008180:	610b      	str	r3, [r1, #16]
 8008182:	694b      	ldr	r3, [r1, #20]
 8008184:	f023 032a 	bic.w	r3, r3, #42	; 0x2a
 8008188:	614b      	str	r3, [r1, #20]
 800818a:	68cb      	ldr	r3, [r1, #12]
 800818c:	f443 5300 	orr.w	r3, r3, #8192	; 0x2000
 8008190:	60cb      	str	r3, [r1, #12]
 8008192:	63e5      	str	r5, [r4, #60]	; 0x3c
 8008194:	f884 c039 	strb.w	ip, [r4, #57]	; 0x39
 8008198:	f884 c03a 	strb.w	ip, [r4, #58]	; 0x3a
 800819c:	bdf8      	pop	{r3, r4, r5, r6, r7, pc}
 800819e:	f880 2038 	strb.w	r2, [r0, #56]	; 0x38
 80081a2:	f7fd f80d 	bl	80051c0 <HAL_UART_MspInit>
 80081a6:	e7a5      	b.n	80080f4 <HAL_UART_Init+0x14>
 80081a8:	f7ff fc40 	bl	8007a2c <HAL_RCC_GetPCLK2Freq>
 80081ac:	e7c9      	b.n	8008142 <HAL_UART_Init+0x62>
 80081ae:	2001      	movs	r0, #1
 80081b0:	4770      	bx	lr
 80081b2:	bf00      	nop
 80081b4:	40013800 	.word	0x40013800
 80081b8:	51eb851f 	.word	0x51eb851f

080081bc <HAL_UART_Transmit>:
 80081bc:	e92d 43f8 	stmdb	sp!, {r3, r4, r5, r6, r7, r8, r9, lr}
 80081c0:	461d      	mov	r5, r3
 80081c2:	f890 3039 	ldrb.w	r3, [r0, #57]	; 0x39
 80081c6:	2b20      	cmp	r3, #32
 80081c8:	d168      	bne.n	800829c <HAL_UART_Transmit+0xe0>
 80081ca:	4688      	mov	r8, r1
 80081cc:	2900      	cmp	r1, #0
 80081ce:	d040      	beq.n	8008252 <HAL_UART_Transmit+0x96>
 80081d0:	4617      	mov	r7, r2
 80081d2:	2a00      	cmp	r2, #0
 80081d4:	d03d      	beq.n	8008252 <HAL_UART_Transmit+0x96>
 80081d6:	f890 3038 	ldrb.w	r3, [r0, #56]	; 0x38
 80081da:	4604      	mov	r4, r0
 80081dc:	2b01      	cmp	r3, #1
 80081de:	d05d      	beq.n	800829c <HAL_UART_Transmit+0xe0>
 80081e0:	2321      	movs	r3, #33	; 0x21
 80081e2:	2201      	movs	r2, #1
 80081e4:	f04f 0900 	mov.w	r9, #0
 80081e8:	f880 2038 	strb.w	r2, [r0, #56]	; 0x38
 80081ec:	f8c0 903c 	str.w	r9, [r0, #60]	; 0x3c
 80081f0:	f880 3039 	strb.w	r3, [r0, #57]	; 0x39
 80081f4:	f7fd f9fe 	bl	80055f4 <HAL_GetTick>
 80081f8:	68a3      	ldr	r3, [r4, #8]
 80081fa:	4606      	mov	r6, r0
 80081fc:	f5b3 5f80 	cmp.w	r3, #4096	; 0x1000
 8008200:	84a7      	strh	r7, [r4, #36]	; 0x24
 8008202:	84e7      	strh	r7, [r4, #38]	; 0x26
 8008204:	d04d      	beq.n	80082a2 <HAL_UART_Transmit+0xe6>
 8008206:	2300      	movs	r3, #0
 8008208:	f884 3038 	strb.w	r3, [r4, #56]	; 0x38
 800820c:	8ce3      	ldrh	r3, [r4, #38]	; 0x26
 800820e:	b29b      	uxth	r3, r3
 8008210:	2b00      	cmp	r3, #0
 8008212:	d058      	beq.n	80082c6 <HAL_UART_Transmit+0x10a>
 8008214:	6823      	ldr	r3, [r4, #0]
 8008216:	1c69      	adds	r1, r5, #1
 8008218:	d11e      	bne.n	8008258 <HAL_UART_Transmit+0x9c>
 800821a:	681a      	ldr	r2, [r3, #0]
 800821c:	0612      	lsls	r2, r2, #24
 800821e:	d5fc      	bpl.n	800821a <HAL_UART_Transmit+0x5e>
 8008220:	f1b8 0f00 	cmp.w	r8, #0
 8008224:	d035      	beq.n	8008292 <HAL_UART_Transmit+0xd6>
 8008226:	f818 2b01 	ldrb.w	r2, [r8], #1
 800822a:	605a      	str	r2, [r3, #4]
 800822c:	8ce2      	ldrh	r2, [r4, #38]	; 0x26
 800822e:	3a01      	subs	r2, #1
 8008230:	b292      	uxth	r2, r2
 8008232:	84e2      	strh	r2, [r4, #38]	; 0x26
 8008234:	8ce2      	ldrh	r2, [r4, #38]	; 0x26
 8008236:	b292      	uxth	r2, r2
 8008238:	2a00      	cmp	r2, #0
 800823a:	d1ec      	bne.n	8008216 <HAL_UART_Transmit+0x5a>
 800823c:	1c68      	adds	r0, r5, #1
 800823e:	d136      	bne.n	80082ae <HAL_UART_Transmit+0xf2>
 8008240:	681a      	ldr	r2, [r3, #0]
 8008242:	0651      	lsls	r1, r2, #25
 8008244:	d5fc      	bpl.n	8008240 <HAL_UART_Transmit+0x84>
 8008246:	2320      	movs	r3, #32
 8008248:	f884 3039 	strb.w	r3, [r4, #57]	; 0x39
 800824c:	2000      	movs	r0, #0
 800824e:	e8bd 83f8 	ldmia.w	sp!, {r3, r4, r5, r6, r7, r8, r9, pc}
 8008252:	2001      	movs	r0, #1
 8008254:	e8bd 83f8 	ldmia.w	sp!, {r3, r4, r5, r6, r7, r8, r9, pc}
 8008258:	681a      	ldr	r2, [r3, #0]
 800825a:	0617      	lsls	r7, r2, #24
 800825c:	d4e0      	bmi.n	8008220 <HAL_UART_Transmit+0x64>
 800825e:	b12d      	cbz	r5, 800826c <HAL_UART_Transmit+0xb0>
 8008260:	f7fd f9c8 	bl	80055f4 <HAL_GetTick>
 8008264:	1b80      	subs	r0, r0, r6
 8008266:	4285      	cmp	r5, r0
 8008268:	6823      	ldr	r3, [r4, #0]
 800826a:	d2d4      	bcs.n	8008216 <HAL_UART_Transmit+0x5a>
 800826c:	2120      	movs	r1, #32
 800826e:	2500      	movs	r5, #0
 8008270:	68da      	ldr	r2, [r3, #12]
 8008272:	2003      	movs	r0, #3
 8008274:	f422 72d0 	bic.w	r2, r2, #416	; 0x1a0
 8008278:	60da      	str	r2, [r3, #12]
 800827a:	695a      	ldr	r2, [r3, #20]
 800827c:	f022 0201 	bic.w	r2, r2, #1
 8008280:	615a      	str	r2, [r3, #20]
 8008282:	f884 1039 	strb.w	r1, [r4, #57]	; 0x39
 8008286:	f884 5038 	strb.w	r5, [r4, #56]	; 0x38
 800828a:	f884 103a 	strb.w	r1, [r4, #58]	; 0x3a
 800828e:	e8bd 83f8 	ldmia.w	sp!, {r3, r4, r5, r6, r7, r8, r9, pc}
 8008292:	f839 2b02 	ldrh.w	r2, [r9], #2
 8008296:	f3c2 0208 	ubfx	r2, r2, #0, #9
 800829a:	e7c6      	b.n	800822a <HAL_UART_Transmit+0x6e>
 800829c:	2002      	movs	r0, #2
 800829e:	e8bd 83f8 	ldmia.w	sp!, {r3, r4, r5, r6, r7, r8, r9, pc}
 80082a2:	6923      	ldr	r3, [r4, #16]
 80082a4:	2b00      	cmp	r3, #0
 80082a6:	d1ae      	bne.n	8008206 <HAL_UART_Transmit+0x4a>
 80082a8:	46c1      	mov	r9, r8
 80082aa:	4698      	mov	r8, r3
 80082ac:	e7ab      	b.n	8008206 <HAL_UART_Transmit+0x4a>
 80082ae:	681a      	ldr	r2, [r3, #0]
 80082b0:	0652      	lsls	r2, r2, #25
 80082b2:	d4c8      	bmi.n	8008246 <HAL_UART_Transmit+0x8a>
 80082b4:	2d00      	cmp	r5, #0
 80082b6:	d0d9      	beq.n	800826c <HAL_UART_Transmit+0xb0>
 80082b8:	f7fd f99c 	bl	80055f4 <HAL_GetTick>
 80082bc:	1b83      	subs	r3, r0, r6
 80082be:	429d      	cmp	r5, r3
 80082c0:	6823      	ldr	r3, [r4, #0]
 80082c2:	d2bb      	bcs.n	800823c <HAL_UART_Transmit+0x80>
 80082c4:	e7d2      	b.n	800826c <HAL_UART_Transmit+0xb0>
 80082c6:	6823      	ldr	r3, [r4, #0]
 80082c8:	e7b8      	b.n	800823c <HAL_UART_Transmit+0x80>
 80082ca:	bf00      	nop

080082cc <HAL_UART_Receive>:
 80082cc:	e92d 43f8 	stmdb	sp!, {r3, r4, r5, r6, r7, r8, r9, lr}
 80082d0:	461f      	mov	r7, r3
 80082d2:	f890 303a 	ldrb.w	r3, [r0, #58]	; 0x3a
 80082d6:	2b20      	cmp	r3, #32
 80082d8:	d171      	bne.n	80083be <HAL_UART_Receive+0xf2>
 80082da:	4688      	mov	r8, r1
 80082dc:	2900      	cmp	r1, #0
 80082de:	d044      	beq.n	800836a <HAL_UART_Receive+0x9e>
 80082e0:	4616      	mov	r6, r2
 80082e2:	2a00      	cmp	r2, #0
 80082e4:	d041      	beq.n	800836a <HAL_UART_Receive+0x9e>
 80082e6:	f890 3038 	ldrb.w	r3, [r0, #56]	; 0x38
 80082ea:	4604      	mov	r4, r0
 80082ec:	2b01      	cmp	r3, #1
 80082ee:	d066      	beq.n	80083be <HAL_UART_Receive+0xf2>
 80082f0:	2322      	movs	r3, #34	; 0x22
 80082f2:	2201      	movs	r2, #1
 80082f4:	f04f 0900 	mov.w	r9, #0
 80082f8:	f880 2038 	strb.w	r2, [r0, #56]	; 0x38
 80082fc:	f8c0 903c 	str.w	r9, [r0, #60]	; 0x3c
 8008300:	f880 303a 	strb.w	r3, [r0, #58]	; 0x3a
 8008304:	f7fd f976 	bl	80055f4 <HAL_GetTick>
 8008308:	68a3      	ldr	r3, [r4, #8]
 800830a:	4605      	mov	r5, r0
 800830c:	f5b3 5f80 	cmp.w	r3, #4096	; 0x1000
 8008310:	85a6      	strh	r6, [r4, #44]	; 0x2c
 8008312:	85e6      	strh	r6, [r4, #46]	; 0x2e
 8008314:	d056      	beq.n	80083c4 <HAL_UART_Receive+0xf8>
 8008316:	2300      	movs	r3, #0
 8008318:	f884 3038 	strb.w	r3, [r4, #56]	; 0x38
 800831c:	8de3      	ldrh	r3, [r4, #46]	; 0x2e
 800831e:	b29b      	uxth	r3, r3
 8008320:	b1eb      	cbz	r3, 800835e <HAL_UART_Receive+0x92>
 8008322:	1c78      	adds	r0, r7, #1
 8008324:	6823      	ldr	r3, [r4, #0]
 8008326:	d123      	bne.n	8008370 <HAL_UART_Receive+0xa4>
 8008328:	681a      	ldr	r2, [r3, #0]
 800832a:	0691      	lsls	r1, r2, #26
 800832c:	d5fc      	bpl.n	8008328 <HAL_UART_Receive+0x5c>
 800832e:	f1b8 0f00 	cmp.w	r8, #0
 8008332:	d03e      	beq.n	80083b2 <HAL_UART_Receive+0xe6>
 8008334:	68a2      	ldr	r2, [r4, #8]
 8008336:	f5b2 5f80 	cmp.w	r2, #4096	; 0x1000
 800833a:	d004      	beq.n	8008346 <HAL_UART_Receive+0x7a>
 800833c:	2a00      	cmp	r2, #0
 800833e:	d134      	bne.n	80083aa <HAL_UART_Receive+0xde>
 8008340:	6922      	ldr	r2, [r4, #16]
 8008342:	2a00      	cmp	r2, #0
 8008344:	d131      	bne.n	80083aa <HAL_UART_Receive+0xde>
 8008346:	685b      	ldr	r3, [r3, #4]
 8008348:	b2db      	uxtb	r3, r3
 800834a:	f808 3b01 	strb.w	r3, [r8], #1
 800834e:	8de2      	ldrh	r2, [r4, #46]	; 0x2e
 8008350:	3a01      	subs	r2, #1
 8008352:	b292      	uxth	r2, r2
 8008354:	85e2      	strh	r2, [r4, #46]	; 0x2e
 8008356:	8de3      	ldrh	r3, [r4, #46]	; 0x2e
 8008358:	b29b      	uxth	r3, r3
 800835a:	2b00      	cmp	r3, #0
 800835c:	d1e1      	bne.n	8008322 <HAL_UART_Receive+0x56>
 800835e:	2320      	movs	r3, #32
 8008360:	f884 303a 	strb.w	r3, [r4, #58]	; 0x3a
 8008364:	2000      	movs	r0, #0
 8008366:	e8bd 83f8 	ldmia.w	sp!, {r3, r4, r5, r6, r7, r8, r9, pc}
 800836a:	2001      	movs	r0, #1
 800836c:	e8bd 83f8 	ldmia.w	sp!, {r3, r4, r5, r6, r7, r8, r9, pc}
 8008370:	681a      	ldr	r2, [r3, #0]
 8008372:	0692      	lsls	r2, r2, #26
 8008374:	d4db      	bmi.n	800832e <HAL_UART_Receive+0x62>
 8008376:	b12f      	cbz	r7, 8008384 <HAL_UART_Receive+0xb8>
 8008378:	f7fd f93c 	bl	80055f4 <HAL_GetTick>
 800837c:	1b40      	subs	r0, r0, r5
 800837e:	4287      	cmp	r7, r0
 8008380:	d2cf      	bcs.n	8008322 <HAL_UART_Receive+0x56>
 8008382:	6823      	ldr	r3, [r4, #0]
 8008384:	2120      	movs	r1, #32
 8008386:	2500      	movs	r5, #0
 8008388:	68da      	ldr	r2, [r3, #12]
 800838a:	2003      	movs	r0, #3
 800838c:	f422 72d0 	bic.w	r2, r2, #416	; 0x1a0
 8008390:	60da      	str	r2, [r3, #12]
 8008392:	695a      	ldr	r2, [r3, #20]
 8008394:	f022 0201 	bic.w	r2, r2, #1
 8008398:	615a      	str	r2, [r3, #20]
 800839a:	f884 1039 	strb.w	r1, [r4, #57]	; 0x39
 800839e:	f884 5038 	strb.w	r5, [r4, #56]	; 0x38
 80083a2:	f884 103a 	strb.w	r1, [r4, #58]	; 0x3a
 80083a6:	e8bd 83f8 	ldmia.w	sp!, {r3, r4, r5, r6, r7, r8, r9, pc}
 80083aa:	685b      	ldr	r3, [r3, #4]
 80083ac:	f003 037f 	and.w	r3, r3, #127	; 0x7f
 80083b0:	e7cb      	b.n	800834a <HAL_UART_Receive+0x7e>
 80083b2:	685b      	ldr	r3, [r3, #4]
 80083b4:	f3c3 0308 	ubfx	r3, r3, #0, #9
 80083b8:	f829 3b02 	strh.w	r3, [r9], #2
 80083bc:	e7c7      	b.n	800834e <HAL_UART_Receive+0x82>
 80083be:	2002      	movs	r0, #2
 80083c0:	e8bd 83f8 	ldmia.w	sp!, {r3, r4, r5, r6, r7, r8, r9, pc}
 80083c4:	6923      	ldr	r3, [r4, #16]
 80083c6:	2b00      	cmp	r3, #0
 80083c8:	d1a5      	bne.n	8008316 <HAL_UART_Receive+0x4a>
 80083ca:	46c1      	mov	r9, r8
 80083cc:	4698      	mov	r8, r3
 80083ce:	e7a2      	b.n	8008316 <HAL_UART_Receive+0x4a>

080083d0 <HAL_UART_Receive_IT>:
 80083d0:	f890 303a 	ldrb.w	r3, [r0, #58]	; 0x3a
 80083d4:	2b20      	cmp	r3, #32
 80083d6:	d121      	bne.n	800841c <HAL_UART_Receive_IT+0x4c>
 80083d8:	b1f1      	cbz	r1, 8008418 <HAL_UART_Receive_IT+0x48>
 80083da:	b1ea      	cbz	r2, 8008418 <HAL_UART_Receive_IT+0x48>
 80083dc:	f890 3038 	ldrb.w	r3, [r0, #56]	; 0x38
 80083e0:	2b01      	cmp	r3, #1
 80083e2:	d01b      	beq.n	800841c <HAL_UART_Receive_IT+0x4c>
 80083e4:	2300      	movs	r3, #0
 80083e6:	f04f 0c22 	mov.w	ip, #34	; 0x22
 80083ea:	85c2      	strh	r2, [r0, #46]	; 0x2e
 80083ec:	8582      	strh	r2, [r0, #44]	; 0x2c
 80083ee:	6802      	ldr	r2, [r0, #0]
 80083f0:	63c3      	str	r3, [r0, #60]	; 0x3c
 80083f2:	f880 3038 	strb.w	r3, [r0, #56]	; 0x38
 80083f6:	f880 c03a 	strb.w	ip, [r0, #58]	; 0x3a
 80083fa:	6281      	str	r1, [r0, #40]	; 0x28
 80083fc:	68d1      	ldr	r1, [r2, #12]
 80083fe:	4618      	mov	r0, r3
 8008400:	f441 7180 	orr.w	r1, r1, #256	; 0x100
 8008404:	60d1      	str	r1, [r2, #12]
 8008406:	6953      	ldr	r3, [r2, #20]
 8008408:	f043 0301 	orr.w	r3, r3, #1
 800840c:	6153      	str	r3, [r2, #20]
 800840e:	68d3      	ldr	r3, [r2, #12]
 8008410:	f043 0320 	orr.w	r3, r3, #32
 8008414:	60d3      	str	r3, [r2, #12]
 8008416:	4770      	bx	lr
 8008418:	2001      	movs	r0, #1
 800841a:	4770      	bx	lr
 800841c:	2002      	movs	r0, #2
 800841e:	4770      	bx	lr

08008420 <HAL_UART_TxCpltCallback>:
 8008420:	4770      	bx	lr
 8008422:	bf00      	nop

08008424 <UART_Receive_IT.part.0.isra.0>:
 8008424:	b508      	push	{r3, lr}
 8008426:	6883      	ldr	r3, [r0, #8]
 8008428:	f5b3 5f80 	cmp.w	r3, #4096	; 0x1000
 800842c:	d029      	beq.n	8008482 <UART_Receive_IT.part.0.isra.0+0x5e>
 800842e:	6a82      	ldr	r2, [r0, #40]	; 0x28
 8008430:	b303      	cbz	r3, 8008474 <UART_Receive_IT.part.0.isra.0+0x50>
 8008432:	6803      	ldr	r3, [r0, #0]
 8008434:	685b      	ldr	r3, [r3, #4]
 8008436:	f003 037f 	and.w	r3, r3, #127	; 0x7f
 800843a:	7013      	strb	r3, [r2, #0]
 800843c:	6a83      	ldr	r3, [r0, #40]	; 0x28
 800843e:	3301      	adds	r3, #1
 8008440:	6283      	str	r3, [r0, #40]	; 0x28
 8008442:	8dc3      	ldrh	r3, [r0, #46]	; 0x2e
 8008444:	3b01      	subs	r3, #1
 8008446:	b29b      	uxth	r3, r3
 8008448:	85c3      	strh	r3, [r0, #46]	; 0x2e
 800844a:	b103      	cbz	r3, 800844e <UART_Receive_IT.part.0.isra.0+0x2a>
 800844c:	bd08      	pop	{r3, pc}
 800844e:	2120      	movs	r1, #32
 8008450:	6803      	ldr	r3, [r0, #0]
 8008452:	68da      	ldr	r2, [r3, #12]
 8008454:	f022 0220 	bic.w	r2, r2, #32
 8008458:	60da      	str	r2, [r3, #12]
 800845a:	68da      	ldr	r2, [r3, #12]
 800845c:	f422 7280 	bic.w	r2, r2, #256	; 0x100
 8008460:	60da      	str	r2, [r3, #12]
 8008462:	695a      	ldr	r2, [r3, #20]
 8008464:	f022 0201 	bic.w	r2, r2, #1
 8008468:	615a      	str	r2, [r3, #20]
 800846a:	f880 103a 	strb.w	r1, [r0, #58]	; 0x3a
 800846e:	f001 ff25 	bl	800a2bc <HAL_UART_RxCpltCallback>
 8008472:	bd08      	pop	{r3, pc}
 8008474:	6903      	ldr	r3, [r0, #16]
 8008476:	2b00      	cmp	r3, #0
 8008478:	d1db      	bne.n	8008432 <UART_Receive_IT.part.0.isra.0+0xe>
 800847a:	6803      	ldr	r3, [r0, #0]
 800847c:	685b      	ldr	r3, [r3, #4]
 800847e:	7013      	strb	r3, [r2, #0]
 8008480:	e7dc      	b.n	800843c <UART_Receive_IT.part.0.isra.0+0x18>
 8008482:	6903      	ldr	r3, [r0, #16]
 8008484:	b943      	cbnz	r3, 8008498 <UART_Receive_IT.part.0.isra.0+0x74>
 8008486:	6802      	ldr	r2, [r0, #0]
 8008488:	6a83      	ldr	r3, [r0, #40]	; 0x28
 800848a:	6852      	ldr	r2, [r2, #4]
 800848c:	f3c2 0208 	ubfx	r2, r2, #0, #9
 8008490:	f823 2b02 	strh.w	r2, [r3], #2
 8008494:	6283      	str	r3, [r0, #40]	; 0x28
 8008496:	e7d4      	b.n	8008442 <UART_Receive_IT.part.0.isra.0+0x1e>
 8008498:	6803      	ldr	r3, [r0, #0]
 800849a:	6a82      	ldr	r2, [r0, #40]	; 0x28
 800849c:	685b      	ldr	r3, [r3, #4]
 800849e:	7013      	strb	r3, [r2, #0]
 80084a0:	e7cc      	b.n	800843c <UART_Receive_IT.part.0.isra.0+0x18>
 80084a2:	bf00      	nop

080084a4 <HAL_UART_ErrorCallback>:
 80084a4:	4770      	bx	lr
 80084a6:	bf00      	nop

080084a8 <HAL_UART_IRQHandler>:
 80084a8:	6803      	ldr	r3, [r0, #0]
 80084aa:	b570      	push	{r4, r5, r6, lr}
 80084ac:	681a      	ldr	r2, [r3, #0]
 80084ae:	4604      	mov	r4, r0
 80084b0:	0716      	lsls	r6, r2, #28
 80084b2:	68dd      	ldr	r5, [r3, #12]
 80084b4:	6959      	ldr	r1, [r3, #20]
 80084b6:	d10c      	bne.n	80084d2 <HAL_UART_IRQHandler+0x2a>
 80084b8:	0691      	lsls	r1, r2, #26
 80084ba:	d501      	bpl.n	80084c0 <HAL_UART_IRQHandler+0x18>
 80084bc:	06ae      	lsls	r6, r5, #26
 80084be:	d44e      	bmi.n	800855e <HAL_UART_IRQHandler+0xb6>
 80084c0:	0616      	lsls	r6, r2, #24
 80084c2:	d501      	bpl.n	80084c8 <HAL_UART_IRQHandler+0x20>
 80084c4:	0628      	lsls	r0, r5, #24
 80084c6:	d452      	bmi.n	800856e <HAL_UART_IRQHandler+0xc6>
 80084c8:	0651      	lsls	r1, r2, #25
 80084ca:	d501      	bpl.n	80084d0 <HAL_UART_IRQHandler+0x28>
 80084cc:	066a      	lsls	r2, r5, #25
 80084ce:	d46a      	bmi.n	80085a6 <HAL_UART_IRQHandler+0xfe>
 80084d0:	bd70      	pop	{r4, r5, r6, pc}
 80084d2:	f001 0101 	and.w	r1, r1, #1
 80084d6:	f405 7090 	and.w	r0, r5, #288	; 0x120
 80084da:	4308      	orrs	r0, r1
 80084dc:	d0f0      	beq.n	80084c0 <HAL_UART_IRQHandler+0x18>
 80084de:	07d0      	lsls	r0, r2, #31
 80084e0:	d505      	bpl.n	80084ee <HAL_UART_IRQHandler+0x46>
 80084e2:	05ee      	lsls	r6, r5, #23
 80084e4:	d503      	bpl.n	80084ee <HAL_UART_IRQHandler+0x46>
 80084e6:	6be0      	ldr	r0, [r4, #60]	; 0x3c
 80084e8:	f040 0001 	orr.w	r0, r0, #1
 80084ec:	63e0      	str	r0, [r4, #60]	; 0x3c
 80084ee:	0750      	lsls	r0, r2, #29
 80084f0:	d530      	bpl.n	8008554 <HAL_UART_IRQHandler+0xac>
 80084f2:	b149      	cbz	r1, 8008508 <HAL_UART_IRQHandler+0x60>
 80084f4:	6be0      	ldr	r0, [r4, #60]	; 0x3c
 80084f6:	0796      	lsls	r6, r2, #30
 80084f8:	f040 0002 	orr.w	r0, r0, #2
 80084fc:	63e0      	str	r0, [r4, #60]	; 0x3c
 80084fe:	d503      	bpl.n	8008508 <HAL_UART_IRQHandler+0x60>
 8008500:	6be0      	ldr	r0, [r4, #60]	; 0x3c
 8008502:	f040 0004 	orr.w	r0, r0, #4
 8008506:	63e0      	str	r0, [r4, #60]	; 0x3c
 8008508:	0716      	lsls	r6, r2, #28
 800850a:	d507      	bpl.n	800851c <HAL_UART_IRQHandler+0x74>
 800850c:	f005 0020 	and.w	r0, r5, #32
 8008510:	4301      	orrs	r1, r0
 8008512:	d003      	beq.n	800851c <HAL_UART_IRQHandler+0x74>
 8008514:	6be1      	ldr	r1, [r4, #60]	; 0x3c
 8008516:	f041 0108 	orr.w	r1, r1, #8
 800851a:	63e1      	str	r1, [r4, #60]	; 0x3c
 800851c:	6be1      	ldr	r1, [r4, #60]	; 0x3c
 800851e:	2900      	cmp	r1, #0
 8008520:	d0d6      	beq.n	80084d0 <HAL_UART_IRQHandler+0x28>
 8008522:	0690      	lsls	r0, r2, #26
 8008524:	d509      	bpl.n	800853a <HAL_UART_IRQHandler+0x92>
 8008526:	06a9      	lsls	r1, r5, #26
 8008528:	d507      	bpl.n	800853a <HAL_UART_IRQHandler+0x92>
 800852a:	f894 203a 	ldrb.w	r2, [r4, #58]	; 0x3a
 800852e:	2a22      	cmp	r2, #34	; 0x22
 8008530:	d103      	bne.n	800853a <HAL_UART_IRQHandler+0x92>
 8008532:	4620      	mov	r0, r4
 8008534:	f7ff ff76 	bl	8008424 <UART_Receive_IT.part.0.isra.0>
 8008538:	6823      	ldr	r3, [r4, #0]
 800853a:	695a      	ldr	r2, [r3, #20]
 800853c:	6be5      	ldr	r5, [r4, #60]	; 0x3c
 800853e:	f002 0240 	and.w	r2, r2, #64	; 0x40
 8008542:	f005 0508 	and.w	r5, r5, #8
 8008546:	4315      	orrs	r5, r2
 8008548:	d138      	bne.n	80085bc <HAL_UART_IRQHandler+0x114>
 800854a:	4620      	mov	r0, r4
 800854c:	f7ff ffaa 	bl	80084a4 <HAL_UART_ErrorCallback>
 8008550:	63e5      	str	r5, [r4, #60]	; 0x3c
 8008552:	bd70      	pop	{r4, r5, r6, pc}
 8008554:	0790      	lsls	r0, r2, #30
 8008556:	d5d7      	bpl.n	8008508 <HAL_UART_IRQHandler+0x60>
 8008558:	2900      	cmp	r1, #0
 800855a:	d1d1      	bne.n	8008500 <HAL_UART_IRQHandler+0x58>
 800855c:	e7d4      	b.n	8008508 <HAL_UART_IRQHandler+0x60>
 800855e:	f890 303a 	ldrb.w	r3, [r0, #58]	; 0x3a
 8008562:	2b22      	cmp	r3, #34	; 0x22
 8008564:	d1b4      	bne.n	80084d0 <HAL_UART_IRQHandler+0x28>
 8008566:	e8bd 4070 	ldmia.w	sp!, {r4, r5, r6, lr}
 800856a:	f7ff bf5b 	b.w	8008424 <UART_Receive_IT.part.0.isra.0>
 800856e:	f894 2039 	ldrb.w	r2, [r4, #57]	; 0x39
 8008572:	2a21      	cmp	r2, #33	; 0x21
 8008574:	d1ac      	bne.n	80084d0 <HAL_UART_IRQHandler+0x28>
 8008576:	68a2      	ldr	r2, [r4, #8]
 8008578:	f5b2 5f80 	cmp.w	r2, #4096	; 0x1000
 800857c:	d042      	beq.n	8008604 <HAL_UART_IRQHandler+0x15c>
 800857e:	6a22      	ldr	r2, [r4, #32]
 8008580:	1c51      	adds	r1, r2, #1
 8008582:	6221      	str	r1, [r4, #32]
 8008584:	7812      	ldrb	r2, [r2, #0]
 8008586:	605a      	str	r2, [r3, #4]
 8008588:	8ce2      	ldrh	r2, [r4, #38]	; 0x26
 800858a:	3a01      	subs	r2, #1
 800858c:	b292      	uxth	r2, r2
 800858e:	84e2      	strh	r2, [r4, #38]	; 0x26
 8008590:	2a00      	cmp	r2, #0
 8008592:	d19d      	bne.n	80084d0 <HAL_UART_IRQHandler+0x28>
 8008594:	68da      	ldr	r2, [r3, #12]
 8008596:	f022 0280 	bic.w	r2, r2, #128	; 0x80
 800859a:	60da      	str	r2, [r3, #12]
 800859c:	68da      	ldr	r2, [r3, #12]
 800859e:	f042 0240 	orr.w	r2, r2, #64	; 0x40
 80085a2:	60da      	str	r2, [r3, #12]
 80085a4:	bd70      	pop	{r4, r5, r6, pc}
 80085a6:	2120      	movs	r1, #32
 80085a8:	68da      	ldr	r2, [r3, #12]
 80085aa:	4620      	mov	r0, r4
 80085ac:	f022 0240 	bic.w	r2, r2, #64	; 0x40
 80085b0:	60da      	str	r2, [r3, #12]
 80085b2:	f884 1039 	strb.w	r1, [r4, #57]	; 0x39
 80085b6:	f7ff ff33 	bl	8008420 <HAL_UART_TxCpltCallback>
 80085ba:	bd70      	pop	{r4, r5, r6, pc}
 80085bc:	2120      	movs	r1, #32
 80085be:	68da      	ldr	r2, [r3, #12]
 80085c0:	f422 7290 	bic.w	r2, r2, #288	; 0x120
 80085c4:	60da      	str	r2, [r3, #12]
 80085c6:	695a      	ldr	r2, [r3, #20]
 80085c8:	f022 0201 	bic.w	r2, r2, #1
 80085cc:	615a      	str	r2, [r3, #20]
 80085ce:	f884 103a 	strb.w	r1, [r4, #58]	; 0x3a
 80085d2:	695a      	ldr	r2, [r3, #20]
 80085d4:	0652      	lsls	r2, r2, #25
 80085d6:	d511      	bpl.n	80085fc <HAL_UART_IRQHandler+0x154>
 80085d8:	695a      	ldr	r2, [r3, #20]
 80085da:	6b60      	ldr	r0, [r4, #52]	; 0x34
 80085dc:	f022 0240 	bic.w	r2, r2, #64	; 0x40
 80085e0:	615a      	str	r2, [r3, #20]
 80085e2:	b158      	cbz	r0, 80085fc <HAL_UART_IRQHandler+0x154>
 80085e4:	4b0d      	ldr	r3, [pc, #52]	; (800861c <HAL_UART_IRQHandler+0x174>)
 80085e6:	6343      	str	r3, [r0, #52]	; 0x34
 80085e8:	f7fd fc12 	bl	8005e10 <HAL_DMA_Abort_IT>
 80085ec:	2800      	cmp	r0, #0
 80085ee:	f43f af6f 	beq.w	80084d0 <HAL_UART_IRQHandler+0x28>
 80085f2:	6b60      	ldr	r0, [r4, #52]	; 0x34
 80085f4:	e8bd 4070 	ldmia.w	sp!, {r4, r5, r6, lr}
 80085f8:	6b43      	ldr	r3, [r0, #52]	; 0x34
 80085fa:	4718      	bx	r3
 80085fc:	4620      	mov	r0, r4
 80085fe:	f7ff ff51 	bl	80084a4 <HAL_UART_ErrorCallback>
 8008602:	bd70      	pop	{r4, r5, r6, pc}
 8008604:	6922      	ldr	r2, [r4, #16]
 8008606:	2a00      	cmp	r2, #0
 8008608:	d1b9      	bne.n	800857e <HAL_UART_IRQHandler+0xd6>
 800860a:	6a22      	ldr	r2, [r4, #32]
 800860c:	f832 1b02 	ldrh.w	r1, [r2], #2
 8008610:	f3c1 0108 	ubfx	r1, r1, #0, #9
 8008614:	6059      	str	r1, [r3, #4]
 8008616:	6222      	str	r2, [r4, #32]
 8008618:	e7b6      	b.n	8008588 <HAL_UART_IRQHandler+0xe0>
 800861a:	bf00      	nop
 800861c:	08008621 	.word	0x08008621

08008620 <UART_DMAAbortOnError>:
 8008620:	b508      	push	{r3, lr}
 8008622:	2300      	movs	r3, #0
 8008624:	6a40      	ldr	r0, [r0, #36]	; 0x24
 8008626:	85c3      	strh	r3, [r0, #46]	; 0x2e
 8008628:	84c3      	strh	r3, [r0, #38]	; 0x26
 800862a:	f7ff ff3b 	bl	80084a4 <HAL_UART_ErrorCallback>
 800862e:	bd08      	pop	{r3, pc}

08008630 <HAL_UART_AbortReceiveCpltCallback>:
 8008630:	4770      	bx	lr
 8008632:	bf00      	nop

08008634 <HAL_UART_AbortReceive_IT>:
 8008634:	6803      	ldr	r3, [r0, #0]
 8008636:	b510      	push	{r4, lr}
 8008638:	68da      	ldr	r2, [r3, #12]
 800863a:	4604      	mov	r4, r0
 800863c:	f422 7290 	bic.w	r2, r2, #288	; 0x120
 8008640:	60da      	str	r2, [r3, #12]
 8008642:	695a      	ldr	r2, [r3, #20]
 8008644:	f022 0201 	bic.w	r2, r2, #1
 8008648:	615a      	str	r2, [r3, #20]
 800864a:	695a      	ldr	r2, [r3, #20]
 800864c:	f012 0240 	ands.w	r2, r2, #64	; 0x40
 8008650:	d018      	beq.n	8008684 <HAL_UART_AbortReceive_IT+0x50>
 8008652:	695a      	ldr	r2, [r3, #20]
 8008654:	6b41      	ldr	r1, [r0, #52]	; 0x34
 8008656:	f022 0240 	bic.w	r2, r2, #64	; 0x40
 800865a:	615a      	str	r2, [r3, #20]
 800865c:	b151      	cbz	r1, 8008674 <HAL_UART_AbortReceive_IT+0x40>
 800865e:	4b0d      	ldr	r3, [pc, #52]	; (8008694 <HAL_UART_AbortReceive_IT+0x60>)
 8008660:	4608      	mov	r0, r1
 8008662:	634b      	str	r3, [r1, #52]	; 0x34
 8008664:	f7fd fbd4 	bl	8005e10 <HAL_DMA_Abort_IT>
 8008668:	b110      	cbz	r0, 8008670 <HAL_UART_AbortReceive_IT+0x3c>
 800866a:	6b60      	ldr	r0, [r4, #52]	; 0x34
 800866c:	6b43      	ldr	r3, [r0, #52]	; 0x34
 800866e:	4798      	blx	r3
 8008670:	2000      	movs	r0, #0
 8008672:	bd10      	pop	{r4, pc}
 8008674:	2320      	movs	r3, #32
 8008676:	85c1      	strh	r1, [r0, #46]	; 0x2e
 8008678:	f880 303a 	strb.w	r3, [r0, #58]	; 0x3a
 800867c:	f7ff ffd8 	bl	8008630 <HAL_UART_AbortReceiveCpltCallback>
 8008680:	2000      	movs	r0, #0
 8008682:	bd10      	pop	{r4, pc}
 8008684:	2320      	movs	r3, #32
 8008686:	85c2      	strh	r2, [r0, #46]	; 0x2e
 8008688:	f880 303a 	strb.w	r3, [r0, #58]	; 0x3a
 800868c:	f7ff ffd0 	bl	8008630 <HAL_UART_AbortReceiveCpltCallback>
 8008690:	2000      	movs	r0, #0
 8008692:	bd10      	pop	{r4, pc}
 8008694:	08008699 	.word	0x08008699

08008698 <UART_DMARxOnlyAbortCallback>:
 8008698:	b508      	push	{r3, lr}
 800869a:	2200      	movs	r2, #0
 800869c:	2320      	movs	r3, #32
 800869e:	6a40      	ldr	r0, [r0, #36]	; 0x24
 80086a0:	85c2      	strh	r2, [r0, #46]	; 0x2e
 80086a2:	f880 303a 	strb.w	r3, [r0, #58]	; 0x3a
 80086a6:	f7ff ffc3 	bl	8008630 <HAL_UART_AbortReceiveCpltCallback>
 80086aa:	bd08      	pop	{r3, pc}

080086ac <HAL_HalfDuplex_EnableTransmitter>:
 80086ac:	f890 2038 	ldrb.w	r2, [r0, #56]	; 0x38
 80086b0:	4603      	mov	r3, r0
 80086b2:	2a01      	cmp	r2, #1
 80086b4:	d012      	beq.n	80086dc <HAL_HalfDuplex_EnableTransmitter+0x30>
 80086b6:	2224      	movs	r2, #36	; 0x24
 80086b8:	2100      	movs	r1, #0
 80086ba:	f04f 0c20 	mov.w	ip, #32
 80086be:	6800      	ldr	r0, [r0, #0]
 80086c0:	f883 2039 	strb.w	r2, [r3, #57]	; 0x39
 80086c4:	68c2      	ldr	r2, [r0, #12]
 80086c6:	f022 020c 	bic.w	r2, r2, #12
 80086ca:	f042 0208 	orr.w	r2, r2, #8
 80086ce:	60c2      	str	r2, [r0, #12]
 80086d0:	4608      	mov	r0, r1
 80086d2:	f883 c039 	strb.w	ip, [r3, #57]	; 0x39
 80086d6:	f883 1038 	strb.w	r1, [r3, #56]	; 0x38
 80086da:	4770      	bx	lr
 80086dc:	2002      	movs	r0, #2
 80086de:	4770      	bx	lr

080086e0 <HAL_HalfDuplex_EnableReceiver>:
 80086e0:	f890 2038 	ldrb.w	r2, [r0, #56]	; 0x38
 80086e4:	4603      	mov	r3, r0
 80086e6:	2a01      	cmp	r2, #1
 80086e8:	d012      	beq.n	8008710 <HAL_HalfDuplex_EnableReceiver+0x30>
 80086ea:	2224      	movs	r2, #36	; 0x24
 80086ec:	2100      	movs	r1, #0
 80086ee:	f04f 0c20 	mov.w	ip, #32
 80086f2:	6800      	ldr	r0, [r0, #0]
 80086f4:	f883 2039 	strb.w	r2, [r3, #57]	; 0x39
 80086f8:	68c2      	ldr	r2, [r0, #12]
 80086fa:	f022 020c 	bic.w	r2, r2, #12
 80086fe:	f042 0204 	orr.w	r2, r2, #4
 8008702:	60c2      	str	r2, [r0, #12]
 8008704:	4608      	mov	r0, r1
 8008706:	f883 c039 	strb.w	ip, [r3, #57]	; 0x39
 800870a:	f883 1038 	strb.w	r1, [r3, #56]	; 0x38
 800870e:	4770      	bx	lr
 8008710:	2002      	movs	r0, #2
 8008712:	4770      	bx	lr

08008714 <init_queue>:
 8008714:	2300      	movs	r3, #0
 8008716:	e9c0 3340 	strd	r3, r3, [r0, #256]	; 0x100
 800871a:	4770      	bx	lr

0800871c <qcount>:
 800871c:	4603      	mov	r3, r0
 800871e:	f8d0 0104 	ldr.w	r0, [r0, #260]	; 0x104
 8008722:	f8d3 3100 	ldr.w	r3, [r3, #256]	; 0x100
 8008726:	f500 7080 	add.w	r0, r0, #256	; 0x100
 800872a:	1ac0      	subs	r0, r0, r3
 800872c:	4243      	negs	r3, r0
 800872e:	b2db      	uxtb	r3, r3
 8008730:	b2c0      	uxtb	r0, r0
 8008732:	bf58      	it	pl
 8008734:	4258      	negpl	r0, r3
 8008736:	4770      	bx	lr

08008738 <qput>:
 8008738:	4602      	mov	r2, r0
 800873a:	b410      	push	{r4}
 800873c:	f8d0 4104 	ldr.w	r4, [r0, #260]	; 0x104
 8008740:	1c63      	adds	r3, r4, #1
 8008742:	4258      	negs	r0, r3
 8008744:	b2c0      	uxtb	r0, r0
 8008746:	b2db      	uxtb	r3, r3
 8008748:	bf58      	it	pl
 800874a:	4243      	negpl	r3, r0
 800874c:	f8d2 0100 	ldr.w	r0, [r2, #256]	; 0x100
 8008750:	4283      	cmp	r3, r0
 8008752:	bf1a      	itte	ne
 8008754:	5511      	strbne	r1, [r2, r4]
 8008756:	4608      	movne	r0, r1
 8008758:	f04f 30ff 	moveq.w	r0, #4294967295
 800875c:	bc10      	pop	{r4}
 800875e:	bf18      	it	ne
 8008760:	f8c2 3104 	strne.w	r3, [r2, #260]	; 0x104
 8008764:	4770      	bx	lr
 8008766:	bf00      	nop

08008768 <qget>:
 8008768:	4602      	mov	r2, r0
 800876a:	f8d0 0100 	ldr.w	r0, [r0, #256]	; 0x100
 800876e:	1c43      	adds	r3, r0, #1
 8008770:	4259      	negs	r1, r3
 8008772:	b2c9      	uxtb	r1, r1
 8008774:	b2db      	uxtb	r3, r3
 8008776:	bf58      	it	pl
 8008778:	424b      	negpl	r3, r1
 800877a:	5c10      	ldrb	r0, [r2, r0]
 800877c:	f8c2 3100 	str.w	r3, [r2, #256]	; 0x100
 8008780:	4770      	bx	lr
 8008782:	bf00      	nop

08008784 <Get_Adc1_Value>:
 8008784:	b510      	push	{r4, lr}
 8008786:	4c09      	ldr	r4, [pc, #36]	; (80087ac <Get_Adc1_Value+0x28>)
 8008788:	4620      	mov	r0, r4
 800878a:	f7fd fa57 	bl	8005c3c <HAL_ADC_Start>
 800878e:	2164      	movs	r1, #100	; 0x64
 8008790:	4620      	mov	r0, r4
 8008792:	f7fd f83d 	bl	8005810 <HAL_ADC_PollForConversion>
 8008796:	4620      	mov	r0, r4
 8008798:	f7fd f8f4 	bl	8005984 <HAL_ADC_GetValue>
 800879c:	4603      	mov	r3, r0
 800879e:	4620      	mov	r0, r4
 80087a0:	461c      	mov	r4, r3
 80087a2:	f7fc ffff 	bl	80057a4 <HAL_ADC_Stop>
 80087a6:	4620      	mov	r0, r4
 80087a8:	bd10      	pop	{r4, pc}
 80087aa:	bf00      	nop
 80087ac:	200001c4 	.word	0x200001c4

080087b0 <getAdc1Vol>:
 80087b0:	b538      	push	{r3, r4, r5, lr}
 80087b2:	4d0e      	ldr	r5, [pc, #56]	; (80087ec <getAdc1Vol+0x3c>)
 80087b4:	4628      	mov	r0, r5
 80087b6:	f7fd fa41 	bl	8005c3c <HAL_ADC_Start>
 80087ba:	2164      	movs	r1, #100	; 0x64
 80087bc:	4628      	mov	r0, r5
 80087be:	f7fd f827 	bl	8005810 <HAL_ADC_PollForConversion>
 80087c2:	4628      	mov	r0, r5
 80087c4:	f7fd f8de 	bl	8005984 <HAL_ADC_GetValue>
 80087c8:	4604      	mov	r4, r0
 80087ca:	4628      	mov	r0, r5
 80087cc:	f7fc ffea 	bl	80057a4 <HAL_ADC_Stop>
 80087d0:	f640 40e4 	movw	r0, #3300	; 0xce4
 80087d4:	fb04 f000 	mul.w	r0, r4, r0
 80087d8:	4b05      	ldr	r3, [pc, #20]	; (80087f0 <getAdc1Vol+0x40>)
 80087da:	fba3 2300 	umull	r2, r3, r3, r0
 80087de:	1ac0      	subs	r0, r0, r3
 80087e0:	eb03 0050 	add.w	r0, r3, r0, lsr #1
 80087e4:	f3c0 20cf 	ubfx	r0, r0, #11, #16
 80087e8:	bd38      	pop	{r3, r4, r5, pc}
 80087ea:	bf00      	nop
 80087ec:	200001c4 	.word	0x200001c4
 80087f0:	00100101 	.word	0x00100101

080087f4 <cmd_reset>:
 80087f4:	f3bf 8f4f 	dsb	sy
 80087f8:	4905      	ldr	r1, [pc, #20]	; (8008810 <cmd_reset+0x1c>)
 80087fa:	4b06      	ldr	r3, [pc, #24]	; (8008814 <cmd_reset+0x20>)
 80087fc:	68ca      	ldr	r2, [r1, #12]
 80087fe:	f402 62e0 	and.w	r2, r2, #1792	; 0x700
 8008802:	4313      	orrs	r3, r2
 8008804:	60cb      	str	r3, [r1, #12]
 8008806:	f3bf 8f4f 	dsb	sy
 800880a:	bf00      	nop
 800880c:	e7fd      	b.n	800880a <cmd_reset+0x16>
 800880e:	bf00      	nop
 8008810:	e000ed00 	.word	0xe000ed00
 8008814:	05fa0004 	.word	0x05fa0004

08008818 <cmd_WDGStOff>:
 8008818:	2200      	movs	r2, #0
 800881a:	4b01      	ldr	r3, [pc, #4]	; (8008820 <cmd_WDGStOff+0x8>)
 800881c:	601a      	str	r2, [r3, #0]
 800881e:	4770      	bx	lr
 8008820:	20000000 	.word	0x20000000

08008824 <CLIPrompt>:
 8008824:	4901      	ldr	r1, [pc, #4]	; (800882c <CLIPrompt+0x8>)
 8008826:	4802      	ldr	r0, [pc, #8]	; (8008830 <CLIPrompt+0xc>)
 8008828:	f002 bcde 	b.w	800b1e8 <iprintf>
 800882c:	0800dadc 	.word	0x0800dadc
 8008830:	0800dae4 	.word	0x0800dae4

08008834 <cmd_ver>:
 8008834:	b508      	push	{r3, lr}
 8008836:	4a03      	ldr	r2, [pc, #12]	; (8008844 <cmd_ver+0x10>)
 8008838:	4903      	ldr	r1, [pc, #12]	; (8008848 <cmd_ver+0x14>)
 800883a:	4804      	ldr	r0, [pc, #16]	; (800884c <cmd_ver+0x18>)
 800883c:	f002 fcd4 	bl	800b1e8 <iprintf>
 8008840:	2000      	movs	r0, #0
 8008842:	bd08      	pop	{r3, pc}
 8008844:	0800dae8 	.word	0x0800dae8
 8008848:	0800db00 	.word	0x0800db00
 800884c:	0800db0c 	.word	0x0800db0c

08008850 <cmd_rfm>:
 8008850:	b508      	push	{r3, lr}
 8008852:	f240 3251 	movw	r2, #849	; 0x351
 8008856:	4903      	ldr	r1, [pc, #12]	; (8008864 <cmd_rfm+0x14>)
 8008858:	4803      	ldr	r0, [pc, #12]	; (8008868 <cmd_rfm+0x18>)
 800885a:	f002 fcc5 	bl	800b1e8 <iprintf>
 800885e:	2000      	movs	r0, #0
 8008860:	bd08      	pop	{r3, pc}
 8008862:	bf00      	nop
 8008864:	0800dbb8 	.word	0x0800dbb8
 8008868:	0800db20 	.word	0x0800db20

0800886c <cmd_uptime>:
 800886c:	b5f0      	push	{r4, r5, r6, r7, lr}
 800886e:	b083      	sub	sp, #12
 8008870:	f7fc fec0 	bl	80055f4 <HAL_GetTick>
 8008874:	f44f 6661 	mov.w	r6, #3600	; 0xe10
 8008878:	4b17      	ldr	r3, [pc, #92]	; (80088d8 <cmd_uptime+0x6c>)
 800887a:	4918      	ldr	r1, [pc, #96]	; (80088dc <cmd_uptime+0x70>)
 800887c:	fba3 3c00 	umull	r3, ip, r3, r0
 8008880:	ea4f 1c9c 	mov.w	ip, ip, lsr #6
 8008884:	fba1 310c 	umull	r3, r1, r1, ip
 8008888:	4f15      	ldr	r7, [pc, #84]	; (80088e0 <cmd_uptime+0x74>)
 800888a:	ea4f 4e11 	mov.w	lr, r1, lsr #16
 800888e:	fb07 cc1e 	mls	ip, r7, lr, ip
 8008892:	4c14      	ldr	r4, [pc, #80]	; (80088e4 <cmd_uptime+0x78>)
 8008894:	4a14      	ldr	r2, [pc, #80]	; (80088e8 <cmd_uptime+0x7c>)
 8008896:	fba4 310c 	umull	r3, r1, r4, ip
 800889a:	0ac9      	lsrs	r1, r1, #11
 800889c:	fb06 cc11 	mls	ip, r6, r1, ip
 80088a0:	fba2 320c 	umull	r3, r2, r2, ip
 80088a4:	4d11      	ldr	r5, [pc, #68]	; (80088ec <cmd_uptime+0x80>)
 80088a6:	0952      	lsrs	r2, r2, #5
 80088a8:	ebc2 1402 	rsb	r4, r2, r2, lsl #4
 80088ac:	42a8      	cmp	r0, r5
 80088ae:	ebac 0484 	sub.w	r4, ip, r4, lsl #2
 80088b2:	d909      	bls.n	80088c8 <cmd_uptime+0x5c>
 80088b4:	4613      	mov	r3, r2
 80088b6:	9400      	str	r4, [sp, #0]
 80088b8:	460a      	mov	r2, r1
 80088ba:	480d      	ldr	r0, [pc, #52]	; (80088f0 <cmd_uptime+0x84>)
 80088bc:	4671      	mov	r1, lr
 80088be:	f002 fc93 	bl	800b1e8 <iprintf>
 80088c2:	2000      	movs	r0, #0
 80088c4:	b003      	add	sp, #12
 80088c6:	bdf0      	pop	{r4, r5, r6, r7, pc}
 80088c8:	4623      	mov	r3, r4
 80088ca:	480a      	ldr	r0, [pc, #40]	; (80088f4 <cmd_uptime+0x88>)
 80088cc:	f002 fc8c 	bl	800b1e8 <iprintf>
 80088d0:	2000      	movs	r0, #0
 80088d2:	b003      	add	sp, #12
 80088d4:	bdf0      	pop	{r4, r5, r6, r7, pc}
 80088d6:	bf00      	nop
 80088d8:	10624dd3 	.word	0x10624dd3
 80088dc:	c22e4507 	.word	0xc22e4507
 80088e0:	00015180 	.word	0x00015180
 80088e4:	91a2b3c5 	.word	0x91a2b3c5
 80088e8:	88888889 	.word	0x88888889
 80088ec:	05265bff 	.word	0x05265bff
 80088f0:	0800db28 	.word	0x0800db28
 80088f4:	0800db44 	.word	0x0800db44

080088f8 <cmd_battery>:
 80088f8:	b508      	push	{r3, lr}
 80088fa:	f7fc f831 	bl	8004960 <getChargeRate>
 80088fe:	e8bd 4008 	ldmia.w	sp!, {r3, lr}
 8008902:	4601      	mov	r1, r0
 8008904:	4801      	ldr	r0, [pc, #4]	; (800890c <cmd_battery+0x14>)
 8008906:	f002 bc6f 	b.w	800b1e8 <iprintf>
 800890a:	bf00      	nop
 800890c:	0800db58 	.word	0x0800db58

08008910 <cmd_help>:
 8008910:	2801      	cmp	r0, #1
 8008912:	b5f8      	push	{r3, r4, r5, r6, r7, lr}
 8008914:	dd24      	ble.n	8008960 <cmd_help+0x50>
 8008916:	4c18      	ldr	r4, [pc, #96]	; (8008978 <cmd_help+0x68>)
 8008918:	460d      	mov	r5, r1
 800891a:	2700      	movs	r7, #0
 800891c:	f504 7680 	add.w	r6, r4, #256	; 0x100
 8008920:	e005      	b.n	800892e <cmd_help+0x1e>
 8008922:	f002 fcfb 	bl	800b31c <puts>
 8008926:	2701      	movs	r7, #1
 8008928:	3410      	adds	r4, #16
 800892a:	42b4      	cmp	r4, r6
 800892c:	d011      	beq.n	8008952 <cmd_help+0x42>
 800892e:	6921      	ldr	r1, [r4, #16]
 8008930:	6868      	ldr	r0, [r5, #4]
 8008932:	f7fb fc77 	bl	8004224 <strcmp>
 8008936:	2800      	cmp	r0, #0
 8008938:	d1f6      	bne.n	8008928 <cmd_help+0x18>
 800893a:	6960      	ldr	r0, [r4, #20]
 800893c:	b108      	cbz	r0, 8008942 <cmd_help+0x32>
 800893e:	f002 fced 	bl	800b31c <puts>
 8008942:	69a0      	ldr	r0, [r4, #24]
 8008944:	2800      	cmp	r0, #0
 8008946:	d1ec      	bne.n	8008922 <cmd_help+0x12>
 8008948:	3410      	adds	r4, #16
 800894a:	42b4      	cmp	r4, r6
 800894c:	f04f 0701 	mov.w	r7, #1
 8008950:	d1ed      	bne.n	800892e <cmd_help+0x1e>
 8008952:	b91f      	cbnz	r7, 800895c <cmd_help+0x4c>
 8008954:	6869      	ldr	r1, [r5, #4]
 8008956:	4809      	ldr	r0, [pc, #36]	; (800897c <cmd_help+0x6c>)
 8008958:	f002 fc46 	bl	800b1e8 <iprintf>
 800895c:	2000      	movs	r0, #0
 800895e:	bdf8      	pop	{r3, r4, r5, r6, r7, pc}
 8008960:	4c05      	ldr	r4, [pc, #20]	; (8008978 <cmd_help+0x68>)
 8008962:	f504 7580 	add.w	r5, r4, #256	; 0x100
 8008966:	6960      	ldr	r0, [r4, #20]
 8008968:	3410      	adds	r4, #16
 800896a:	b108      	cbz	r0, 8008970 <cmd_help+0x60>
 800896c:	f002 fcd6 	bl	800b31c <puts>
 8008970:	42a5      	cmp	r5, r4
 8008972:	d1f8      	bne.n	8008966 <cmd_help+0x56>
 8008974:	2000      	movs	r0, #0
 8008976:	bdf8      	pop	{r3, r4, r5, r6, r7, pc}
 8008978:	20000020 	.word	0x20000020
 800897c:	0800db78 	.word	0x0800db78

08008980 <ProcessCommand>:
 8008980:	e92d 41f0 	stmdb	sp!, {r4, r5, r6, r7, r8, lr}
 8008984:	4bad      	ldr	r3, [pc, #692]	; (8008c3c <ProcessCommand+0x2bc>)
 8008986:	b0aa      	sub	sp, #168	; 0xa8
 8008988:	9300      	str	r3, [sp, #0]
 800898a:	7803      	ldrb	r3, [r0, #0]
 800898c:	4604      	mov	r4, r0
 800898e:	2b21      	cmp	r3, #33	; 0x21
 8008990:	d103      	bne.n	800899a <ProcessCommand+0x1a>
 8008992:	7843      	ldrb	r3, [r0, #1]
 8008994:	2b21      	cmp	r3, #33	; 0x21
 8008996:	f000 80db 	beq.w	8008b50 <ProcessCommand+0x1d0>
 800899a:	4620      	mov	r0, r4
 800899c:	4669      	mov	r1, sp
 800899e:	f7fb fc41 	bl	8004224 <strcmp>
 80089a2:	2800      	cmp	r0, #0
 80089a4:	f040 80d9 	bne.w	8008b5a <ProcessCommand+0x1da>
 80089a8:	af16      	add	r7, sp, #88	; 0x58
 80089aa:	49a5      	ldr	r1, [pc, #660]	; (8008c40 <ProcessCommand+0x2c0>)
 80089ac:	4638      	mov	r0, r7
 80089ae:	f002 fe27 	bl	800b600 <strcpy>
 80089b2:	4620      	mov	r0, r4
 80089b4:	49a2      	ldr	r1, [pc, #648]	; (8008c40 <ProcessCommand+0x2c0>)
 80089b6:	f002 fe23 	bl	800b600 <strcpy>
 80089ba:	2100      	movs	r1, #0
 80089bc:	2250      	movs	r2, #80	; 0x50
 80089be:	a802      	add	r0, sp, #8
 80089c0:	f002 fc0a 	bl	800b1d8 <memset>
 80089c4:	2123      	movs	r1, #35	; 0x23
 80089c6:	4620      	mov	r0, r4
 80089c8:	f002 fe0d 	bl	800b5e6 <strchr>
 80089cc:	b108      	cbz	r0, 80089d2 <ProcessCommand+0x52>
 80089ce:	2300      	movs	r3, #0
 80089d0:	7003      	strb	r3, [r0, #0]
 80089d2:	4620      	mov	r0, r4
 80089d4:	499b      	ldr	r1, [pc, #620]	; (8008c44 <ProcessCommand+0x2c4>)
 80089d6:	aa01      	add	r2, sp, #4
 80089d8:	f002 fe42 	bl	800b660 <strtok_r>
 80089dc:	2400      	movs	r4, #0
 80089de:	4603      	mov	r3, r0
 80089e0:	4e98      	ldr	r6, [pc, #608]	; (8008c44 <ProcessCommand+0x2c4>)
 80089e2:	ad02      	add	r5, sp, #8
 80089e4:	2b00      	cmp	r3, #0
 80089e6:	f000 80ac 	beq.w	8008b42 <ProcessCommand+0x1c2>
 80089ea:	f845 3b04 	str.w	r3, [r5], #4
 80089ee:	4631      	mov	r1, r6
 80089f0:	2000      	movs	r0, #0
 80089f2:	aa01      	add	r2, sp, #4
 80089f4:	f002 fe34 	bl	800b660 <strtok_r>
 80089f8:	3401      	adds	r4, #1
 80089fa:	2c14      	cmp	r4, #20
 80089fc:	4603      	mov	r3, r0
 80089fe:	d1f1      	bne.n	80089e4 <ProcessCommand+0x64>
 8008a00:	9d02      	ldr	r5, [sp, #8]
 8008a02:	212e      	movs	r1, #46	; 0x2e
 8008a04:	4628      	mov	r0, r5
 8008a06:	f002 fdee 	bl	800b5e6 <strchr>
 8008a0a:	2800      	cmp	r0, #0
 8008a0c:	f000 80ab 	beq.w	8008b66 <ProcessCommand+0x1e6>
 8008a10:	7843      	ldrb	r3, [r0, #1]
 8008a12:	2b62      	cmp	r3, #98	; 0x62
 8008a14:	f000 80cc 	beq.w	8008bb0 <ProcessCommand+0x230>
 8008a18:	2b77      	cmp	r3, #119	; 0x77
 8008a1a:	f000 80a8 	beq.w	8008b6e <ProcessCommand+0x1ee>
 8008a1e:	2b6c      	cmp	r3, #108	; 0x6c
 8008a20:	d102      	bne.n	8008a28 <ProcessCommand+0xa8>
 8008a22:	2204      	movs	r2, #4
 8008a24:	4b88      	ldr	r3, [pc, #544]	; (8008c48 <ProcessCommand+0x2c8>)
 8008a26:	601a      	str	r2, [r3, #0]
 8008a28:	2300      	movs	r3, #0
 8008a2a:	7003      	strb	r3, [r0, #0]
 8008a2c:	9d02      	ldr	r5, [sp, #8]
 8008a2e:	4e87      	ldr	r6, [pc, #540]	; (8008c4c <ProcessCommand+0x2cc>)
 8008a30:	4628      	mov	r0, r5
 8008a32:	6831      	ldr	r1, [r6, #0]
 8008a34:	f7fb fbf6 	bl	8004224 <strcmp>
 8008a38:	4680      	mov	r8, r0
 8008a3a:	2800      	cmp	r0, #0
 8008a3c:	f000 809d 	beq.w	8008b7a <ProcessCommand+0x1fa>
 8008a40:	4628      	mov	r0, r5
 8008a42:	6931      	ldr	r1, [r6, #16]
 8008a44:	f7fb fbee 	bl	8004224 <strcmp>
 8008a48:	2800      	cmp	r0, #0
 8008a4a:	f000 8094 	beq.w	8008b76 <ProcessCommand+0x1f6>
 8008a4e:	4628      	mov	r0, r5
 8008a50:	6a31      	ldr	r1, [r6, #32]
 8008a52:	f7fb fbe7 	bl	8004224 <strcmp>
 8008a56:	2800      	cmp	r0, #0
 8008a58:	f000 80c6 	beq.w	8008be8 <ProcessCommand+0x268>
 8008a5c:	4628      	mov	r0, r5
 8008a5e:	6b31      	ldr	r1, [r6, #48]	; 0x30
 8008a60:	f7fb fbe0 	bl	8004224 <strcmp>
 8008a64:	2800      	cmp	r0, #0
 8008a66:	f000 80c2 	beq.w	8008bee <ProcessCommand+0x26e>
 8008a6a:	4628      	mov	r0, r5
 8008a6c:	6c31      	ldr	r1, [r6, #64]	; 0x40
 8008a6e:	f7fb fbd9 	bl	8004224 <strcmp>
 8008a72:	2800      	cmp	r0, #0
 8008a74:	f000 80be 	beq.w	8008bf4 <ProcessCommand+0x274>
 8008a78:	4628      	mov	r0, r5
 8008a7a:	6d31      	ldr	r1, [r6, #80]	; 0x50
 8008a7c:	f7fb fbd2 	bl	8004224 <strcmp>
 8008a80:	2800      	cmp	r0, #0
 8008a82:	f000 80ba 	beq.w	8008bfa <ProcessCommand+0x27a>
 8008a86:	4628      	mov	r0, r5
 8008a88:	6e31      	ldr	r1, [r6, #96]	; 0x60
 8008a8a:	f7fb fbcb 	bl	8004224 <strcmp>
 8008a8e:	2800      	cmp	r0, #0
 8008a90:	f000 80b6 	beq.w	8008c00 <ProcessCommand+0x280>
 8008a94:	4628      	mov	r0, r5
 8008a96:	6f31      	ldr	r1, [r6, #112]	; 0x70
 8008a98:	f7fb fbc4 	bl	8004224 <strcmp>
 8008a9c:	2800      	cmp	r0, #0
 8008a9e:	f000 80b2 	beq.w	8008c06 <ProcessCommand+0x286>
 8008aa2:	4628      	mov	r0, r5
 8008aa4:	f8d6 1080 	ldr.w	r1, [r6, #128]	; 0x80
 8008aa8:	f7fb fbbc 	bl	8004224 <strcmp>
 8008aac:	2800      	cmp	r0, #0
 8008aae:	f000 80b0 	beq.w	8008c12 <ProcessCommand+0x292>
 8008ab2:	4628      	mov	r0, r5
 8008ab4:	f8d6 1090 	ldr.w	r1, [r6, #144]	; 0x90
 8008ab8:	f7fb fbb4 	bl	8004224 <strcmp>
 8008abc:	2800      	cmp	r0, #0
 8008abe:	f000 80a5 	beq.w	8008c0c <ProcessCommand+0x28c>
 8008ac2:	4628      	mov	r0, r5
 8008ac4:	f8d6 10a0 	ldr.w	r1, [r6, #160]	; 0xa0
 8008ac8:	f7fb fbac 	bl	8004224 <strcmp>
 8008acc:	2800      	cmp	r0, #0
 8008ace:	f000 80a3 	beq.w	8008c18 <ProcessCommand+0x298>
 8008ad2:	4628      	mov	r0, r5
 8008ad4:	f8d6 10b0 	ldr.w	r1, [r6, #176]	; 0xb0
 8008ad8:	f7fb fba4 	bl	8004224 <strcmp>
 8008adc:	2800      	cmp	r0, #0
 8008ade:	f000 809e 	beq.w	8008c1e <ProcessCommand+0x29e>
 8008ae2:	4628      	mov	r0, r5
 8008ae4:	f8d6 10c0 	ldr.w	r1, [r6, #192]	; 0xc0
 8008ae8:	f7fb fb9c 	bl	8004224 <strcmp>
 8008aec:	2800      	cmp	r0, #0
 8008aee:	f000 8099 	beq.w	8008c24 <ProcessCommand+0x2a4>
 8008af2:	4628      	mov	r0, r5
 8008af4:	f8d6 10d0 	ldr.w	r1, [r6, #208]	; 0xd0
 8008af8:	f7fb fb94 	bl	8004224 <strcmp>
 8008afc:	2800      	cmp	r0, #0
 8008afe:	f000 8094 	beq.w	8008c2a <ProcessCommand+0x2aa>
 8008b02:	4628      	mov	r0, r5
 8008b04:	f8d6 10e0 	ldr.w	r1, [r6, #224]	; 0xe0
 8008b08:	f7fb fb8c 	bl	8004224 <strcmp>
 8008b0c:	2800      	cmp	r0, #0
 8008b0e:	f000 8092 	beq.w	8008c36 <ProcessCommand+0x2b6>
 8008b12:	4628      	mov	r0, r5
 8008b14:	f8d6 10f0 	ldr.w	r1, [r6, #240]	; 0xf0
 8008b18:	f7fb fb84 	bl	8004224 <strcmp>
 8008b1c:	2800      	cmp	r0, #0
 8008b1e:	f000 8087 	beq.w	8008c30 <ProcessCommand+0x2b0>
 8008b22:	4628      	mov	r0, r5
 8008b24:	f8d6 1100 	ldr.w	r1, [r6, #256]	; 0x100
 8008b28:	f7fb fb7c 	bl	8004224 <strcmp>
 8008b2c:	f04f 0810 	mov.w	r8, #16
 8008b30:	b318      	cbz	r0, 8008b7a <ProcessCommand+0x1fa>
 8008b32:	4629      	mov	r1, r5
 8008b34:	4846      	ldr	r0, [pc, #280]	; (8008c50 <ProcessCommand+0x2d0>)
 8008b36:	f002 fb57 	bl	800b1e8 <iprintf>
 8008b3a:	2001      	movs	r0, #1
 8008b3c:	b02a      	add	sp, #168	; 0xa8
 8008b3e:	e8bd 81f0 	ldmia.w	sp!, {r4, r5, r6, r7, r8, pc}
 8008b42:	2c00      	cmp	r4, #0
 8008b44:	f47f af5c 	bne.w	8008a00 <ProcessCommand+0x80>
 8008b48:	2001      	movs	r0, #1
 8008b4a:	b02a      	add	sp, #168	; 0xa8
 8008b4c:	e8bd 81f0 	ldmia.w	sp!, {r4, r5, r6, r7, r8, pc}
 8008b50:	7883      	ldrb	r3, [r0, #2]
 8008b52:	2b00      	cmp	r3, #0
 8008b54:	f43f af28 	beq.w	80089a8 <ProcessCommand+0x28>
 8008b58:	e71f      	b.n	800899a <ProcessCommand+0x1a>
 8008b5a:	af16      	add	r7, sp, #88	; 0x58
 8008b5c:	4621      	mov	r1, r4
 8008b5e:	4638      	mov	r0, r7
 8008b60:	f002 fd4e 	bl	800b600 <strcpy>
 8008b64:	e729      	b.n	80089ba <ProcessCommand+0x3a>
 8008b66:	2201      	movs	r2, #1
 8008b68:	4b37      	ldr	r3, [pc, #220]	; (8008c48 <ProcessCommand+0x2c8>)
 8008b6a:	601a      	str	r2, [r3, #0]
 8008b6c:	e75f      	b.n	8008a2e <ProcessCommand+0xae>
 8008b6e:	2202      	movs	r2, #2
 8008b70:	4b35      	ldr	r3, [pc, #212]	; (8008c48 <ProcessCommand+0x2c8>)
 8008b72:	601a      	str	r2, [r3, #0]
 8008b74:	e758      	b.n	8008a28 <ProcessCommand+0xa8>
 8008b76:	f04f 0801 	mov.w	r8, #1
 8008b7a:	2c01      	cmp	r4, #1
 8008b7c:	d008      	beq.n	8008b90 <ProcessCommand+0x210>
 8008b7e:	9d03      	ldr	r5, [sp, #12]
 8008b80:	4934      	ldr	r1, [pc, #208]	; (8008c54 <ProcessCommand+0x2d4>)
 8008b82:	4628      	mov	r0, r5
 8008b84:	f7fb fb4e 	bl	8004224 <strcmp>
 8008b88:	b1e0      	cbz	r0, 8008bc4 <ProcessCommand+0x244>
 8008b8a:	782b      	ldrb	r3, [r5, #0]
 8008b8c:	2b2d      	cmp	r3, #45	; 0x2d
 8008b8e:	d013      	beq.n	8008bb8 <ProcessCommand+0x238>
 8008b90:	eb06 1608 	add.w	r6, r6, r8, lsl #4
 8008b94:	4620      	mov	r0, r4
 8008b96:	68f3      	ldr	r3, [r6, #12]
 8008b98:	a902      	add	r1, sp, #8
 8008b9a:	4798      	blx	r3
 8008b9c:	2800      	cmp	r0, #0
 8008b9e:	db1c      	blt.n	8008bda <ProcessCommand+0x25a>
 8008ba0:	4639      	mov	r1, r7
 8008ba2:	4827      	ldr	r0, [pc, #156]	; (8008c40 <ProcessCommand+0x2c0>)
 8008ba4:	f002 fd2c 	bl	800b600 <strcpy>
 8008ba8:	2001      	movs	r0, #1
 8008baa:	b02a      	add	sp, #168	; 0xa8
 8008bac:	e8bd 81f0 	ldmia.w	sp!, {r4, r5, r6, r7, r8, pc}
 8008bb0:	2201      	movs	r2, #1
 8008bb2:	4b25      	ldr	r3, [pc, #148]	; (8008c48 <ProcessCommand+0x2c8>)
 8008bb4:	601a      	str	r2, [r3, #0]
 8008bb6:	e737      	b.n	8008a28 <ProcessCommand+0xa8>
 8008bb8:	786b      	ldrb	r3, [r5, #1]
 8008bba:	2b68      	cmp	r3, #104	; 0x68
 8008bbc:	d1e8      	bne.n	8008b90 <ProcessCommand+0x210>
 8008bbe:	78ab      	ldrb	r3, [r5, #2]
 8008bc0:	2b00      	cmp	r3, #0
 8008bc2:	d1e5      	bne.n	8008b90 <ProcessCommand+0x210>
 8008bc4:	eb06 1608 	add.w	r6, r6, r8, lsl #4
 8008bc8:	6870      	ldr	r0, [r6, #4]
 8008bca:	f002 fba7 	bl	800b31c <puts>
 8008bce:	68b0      	ldr	r0, [r6, #8]
 8008bd0:	2800      	cmp	r0, #0
 8008bd2:	d0e5      	beq.n	8008ba0 <ProcessCommand+0x220>
 8008bd4:	f002 fba2 	bl	800b31c <puts>
 8008bd8:	e7e2      	b.n	8008ba0 <ProcessCommand+0x220>
 8008bda:	6870      	ldr	r0, [r6, #4]
 8008bdc:	f002 fb9e 	bl	800b31c <puts>
 8008be0:	68b0      	ldr	r0, [r6, #8]
 8008be2:	2800      	cmp	r0, #0
 8008be4:	d1f6      	bne.n	8008bd4 <ProcessCommand+0x254>
 8008be6:	e7db      	b.n	8008ba0 <ProcessCommand+0x220>
 8008be8:	f04f 0802 	mov.w	r8, #2
 8008bec:	e7c5      	b.n	8008b7a <ProcessCommand+0x1fa>
 8008bee:	f04f 0803 	mov.w	r8, #3
 8008bf2:	e7c2      	b.n	8008b7a <ProcessCommand+0x1fa>
 8008bf4:	f04f 0804 	mov.w	r8, #4
 8008bf8:	e7bf      	b.n	8008b7a <ProcessCommand+0x1fa>
 8008bfa:	f04f 0805 	mov.w	r8, #5
 8008bfe:	e7bc      	b.n	8008b7a <ProcessCommand+0x1fa>
 8008c00:	f04f 0806 	mov.w	r8, #6
 8008c04:	e7b9      	b.n	8008b7a <ProcessCommand+0x1fa>
 8008c06:	f04f 0807 	mov.w	r8, #7
 8008c0a:	e7b6      	b.n	8008b7a <ProcessCommand+0x1fa>
 8008c0c:	f04f 0809 	mov.w	r8, #9
 8008c10:	e7b3      	b.n	8008b7a <ProcessCommand+0x1fa>
 8008c12:	f04f 0808 	mov.w	r8, #8
 8008c16:	e7b0      	b.n	8008b7a <ProcessCommand+0x1fa>
 8008c18:	f04f 080a 	mov.w	r8, #10
 8008c1c:	e7ad      	b.n	8008b7a <ProcessCommand+0x1fa>
 8008c1e:	f04f 080b 	mov.w	r8, #11
 8008c22:	e7aa      	b.n	8008b7a <ProcessCommand+0x1fa>
 8008c24:	f04f 080c 	mov.w	r8, #12
 8008c28:	e7a7      	b.n	8008b7a <ProcessCommand+0x1fa>
 8008c2a:	f04f 080d 	mov.w	r8, #13
 8008c2e:	e7a4      	b.n	8008b7a <ProcessCommand+0x1fa>
 8008c30:	f04f 080f 	mov.w	r8, #15
 8008c34:	e7a1      	b.n	8008b7a <ProcessCommand+0x1fa>
 8008c36:	f04f 080e 	mov.w	r8, #14
 8008c3a:	e79e      	b.n	8008b7a <ProcessCommand+0x1fa>
 8008c3c:	00415b1b 	.word	0x00415b1b
 8008c40:	20000484 	.word	0x20000484
 8008c44:	0800db8c 	.word	0x0800db8c
 8008c48:	20000014 	.word	0x20000014
 8008c4c:	20000020 	.word	0x20000020
 8008c50:	0800db98 	.word	0x0800db98
 8008c54:	0800db90 	.word	0x0800db90

08008c58 <readline>:
 8008c58:	b570      	push	{r4, r5, r6, lr}
 8008c5a:	4606      	mov	r6, r0
 8008c5c:	4c33      	ldr	r4, [pc, #204]	; (8008d2c <readline+0xd4>)
 8008c5e:	4d34      	ldr	r5, [pc, #208]	; (8008d30 <readline+0xd8>)
 8008c60:	f002 fa76 	bl	800b150 <getchar>
 8008c64:	b2c0      	uxtb	r0, r0
 8008c66:	28ff      	cmp	r0, #255	; 0xff
 8008c68:	d018      	beq.n	8008c9c <readline+0x44>
 8008c6a:	2808      	cmp	r0, #8
 8008c6c:	d019      	beq.n	8008ca2 <readline+0x4a>
 8008c6e:	287f      	cmp	r0, #127	; 0x7f
 8008c70:	d017      	beq.n	8008ca2 <readline+0x4a>
 8008c72:	2815      	cmp	r0, #21
 8008c74:	d021      	beq.n	8008cba <readline+0x62>
 8008c76:	2817      	cmp	r0, #23
 8008c78:	d02d      	beq.n	8008cd6 <readline+0x7e>
 8008c7a:	280d      	cmp	r0, #13
 8008c7c:	d04d      	beq.n	8008d1a <readline+0xc2>
 8008c7e:	280a      	cmp	r0, #10
 8008c80:	d04b      	beq.n	8008d1a <readline+0xc2>
 8008c82:	6823      	ldr	r3, [r4, #0]
 8008c84:	2b3d      	cmp	r3, #61	; 0x3d
 8008c86:	dc02      	bgt.n	8008c8e <readline+0x36>
 8008c88:	1c5a      	adds	r2, r3, #1
 8008c8a:	6022      	str	r2, [r4, #0]
 8008c8c:	54f0      	strb	r0, [r6, r3]
 8008c8e:	f002 fac3 	bl	800b218 <putchar>
 8008c92:	f002 fa5d 	bl	800b150 <getchar>
 8008c96:	b2c0      	uxtb	r0, r0
 8008c98:	28ff      	cmp	r0, #255	; 0xff
 8008c9a:	d1e6      	bne.n	8008c6a <readline+0x12>
 8008c9c:	f04f 30ff 	mov.w	r0, #4294967295
 8008ca0:	bd70      	pop	{r4, r5, r6, pc}
 8008ca2:	6823      	ldr	r3, [r4, #0]
 8008ca4:	2b00      	cmp	r3, #0
 8008ca6:	dddb      	ble.n	8008c60 <readline+0x8>
 8008ca8:	2208      	movs	r2, #8
 8008caa:	4628      	mov	r0, r5
 8008cac:	4611      	mov	r1, r2
 8008cae:	f002 fa9b 	bl	800b1e8 <iprintf>
 8008cb2:	6823      	ldr	r3, [r4, #0]
 8008cb4:	3b01      	subs	r3, #1
 8008cb6:	6023      	str	r3, [r4, #0]
 8008cb8:	e7d2      	b.n	8008c60 <readline+0x8>
 8008cba:	6823      	ldr	r3, [r4, #0]
 8008cbc:	2b00      	cmp	r3, #0
 8008cbe:	ddcf      	ble.n	8008c60 <readline+0x8>
 8008cc0:	2208      	movs	r2, #8
 8008cc2:	4628      	mov	r0, r5
 8008cc4:	4611      	mov	r1, r2
 8008cc6:	f002 fa8f 	bl	800b1e8 <iprintf>
 8008cca:	6823      	ldr	r3, [r4, #0]
 8008ccc:	3b01      	subs	r3, #1
 8008cce:	2b00      	cmp	r3, #0
 8008cd0:	6023      	str	r3, [r4, #0]
 8008cd2:	dcf5      	bgt.n	8008cc0 <readline+0x68>
 8008cd4:	e7c4      	b.n	8008c60 <readline+0x8>
 8008cd6:	6823      	ldr	r3, [r4, #0]
 8008cd8:	2b00      	cmp	r3, #0
 8008cda:	dc0a      	bgt.n	8008cf2 <readline+0x9a>
 8008cdc:	e7c0      	b.n	8008c60 <readline+0x8>
 8008cde:	2208      	movs	r2, #8
 8008ce0:	4628      	mov	r0, r5
 8008ce2:	4611      	mov	r1, r2
 8008ce4:	f002 fa80 	bl	800b1e8 <iprintf>
 8008ce8:	6823      	ldr	r3, [r4, #0]
 8008cea:	3b01      	subs	r3, #1
 8008cec:	2b00      	cmp	r3, #0
 8008cee:	6023      	str	r3, [r4, #0]
 8008cf0:	ddb6      	ble.n	8008c60 <readline+0x8>
 8008cf2:	5cf2      	ldrb	r2, [r6, r3]
 8008cf4:	2a20      	cmp	r2, #32
 8008cf6:	d0f2      	beq.n	8008cde <readline+0x86>
 8008cf8:	5cf3      	ldrb	r3, [r6, r3]
 8008cfa:	2b20      	cmp	r3, #32
 8008cfc:	d0b0      	beq.n	8008c60 <readline+0x8>
 8008cfe:	2208      	movs	r2, #8
 8008d00:	4628      	mov	r0, r5
 8008d02:	4611      	mov	r1, r2
 8008d04:	f002 fa70 	bl	800b1e8 <iprintf>
 8008d08:	6823      	ldr	r3, [r4, #0]
 8008d0a:	3b01      	subs	r3, #1
 8008d0c:	2b00      	cmp	r3, #0
 8008d0e:	6023      	str	r3, [r4, #0]
 8008d10:	dda6      	ble.n	8008c60 <readline+0x8>
 8008d12:	5cf3      	ldrb	r3, [r6, r3]
 8008d14:	2b20      	cmp	r3, #32
 8008d16:	d1f2      	bne.n	8008cfe <readline+0xa6>
 8008d18:	e7a2      	b.n	8008c60 <readline+0x8>
 8008d1a:	4806      	ldr	r0, [pc, #24]	; (8008d34 <readline+0xdc>)
 8008d1c:	f002 fa64 	bl	800b1e8 <iprintf>
 8008d20:	2300      	movs	r3, #0
 8008d22:	4a02      	ldr	r2, [pc, #8]	; (8008d2c <readline+0xd4>)
 8008d24:	6810      	ldr	r0, [r2, #0]
 8008d26:	6013      	str	r3, [r2, #0]
 8008d28:	5433      	strb	r3, [r6, r0]
 8008d2a:	bd70      	pop	{r4, r5, r6, pc}
 8008d2c:	20000480 	.word	0x20000480
 8008d30:	0800dbb0 	.word	0x0800dbb0
 8008d34:	0800de8c 	.word	0x0800de8c

08008d38 <LoopProcCLI>:
 8008d38:	b510      	push	{r4, lr}
 8008d3a:	f001 fbfd 	bl	800a538 <input_check>
 8008d3e:	b900      	cbnz	r0, 8008d42 <LoopProcCLI+0xa>
 8008d40:	bd10      	pop	{r4, pc}
 8008d42:	4807      	ldr	r0, [pc, #28]	; (8008d60 <LoopProcCLI+0x28>)
 8008d44:	f7ff ff88 	bl	8008c58 <readline>
 8008d48:	2800      	cmp	r0, #0
 8008d4a:	dbf9      	blt.n	8008d40 <LoopProcCLI+0x8>
 8008d4c:	4b05      	ldr	r3, [pc, #20]	; (8008d64 <LoopProcCLI+0x2c>)
 8008d4e:	4804      	ldr	r0, [pc, #16]	; (8008d60 <LoopProcCLI+0x28>)
 8008d50:	681b      	ldr	r3, [r3, #0]
 8008d52:	4798      	blx	r3
 8008d54:	e8bd 4010 	ldmia.w	sp!, {r4, lr}
 8008d58:	4b03      	ldr	r3, [pc, #12]	; (8008d68 <LoopProcCLI+0x30>)
 8008d5a:	681b      	ldr	r3, [r3, #0]
 8008d5c:	4718      	bx	r3
 8008d5e:	bf00      	nop
 8008d60:	20000440 	.word	0x20000440
 8008d64:	20000018 	.word	0x20000018
 8008d68:	2000001c 	.word	0x2000001c

08008d6c <FLASH_If_Erase>:
 8008d6c:	b5d0      	push	{r4, r6, r7, lr}
 8008d6e:	2300      	movs	r3, #0
 8008d70:	4604      	mov	r4, r0
 8008d72:	2600      	movs	r6, #0
 8008d74:	2701      	movs	r7, #1
 8008d76:	b086      	sub	sp, #24
 8008d78:	9301      	str	r3, [sp, #4]
 8008d7a:	f7fd f9d1 	bl	8006120 <HAL_FLASH_Unlock>
 8008d7e:	f1c4 6300 	rsb	r3, r4, #134217728	; 0x8000000
 8008d82:	f503 2380 	add.w	r3, r3, #262144	; 0x40000
 8008d86:	0adb      	lsrs	r3, r3, #11
 8008d88:	a901      	add	r1, sp, #4
 8008d8a:	a802      	add	r0, sp, #8
 8008d8c:	9305      	str	r3, [sp, #20]
 8008d8e:	9404      	str	r4, [sp, #16]
 8008d90:	e9cd 6702 	strd	r6, r7, [sp, #8]
 8008d94:	f7fd fa38 	bl	8006208 <HAL_FLASHEx_Erase>
 8008d98:	4604      	mov	r4, r0
 8008d9a:	f7fd f9d5 	bl	8006148 <HAL_FLASH_Lock>
 8008d9e:	1e20      	subs	r0, r4, #0
 8008da0:	bf18      	it	ne
 8008da2:	2001      	movne	r0, #1
 8008da4:	b006      	add	sp, #24
 8008da6:	bdd0      	pop	{r4, r6, r7, pc}

08008da8 <FLASH_If_Write>:
 8008da8:	e92d 41f0 	stmdb	sp!, {r4, r5, r6, r7, r8, lr}
 8008dac:	4617      	mov	r7, r2
 8008dae:	4604      	mov	r4, r0
 8008db0:	460d      	mov	r5, r1
 8008db2:	f7fd f9b5 	bl	8006120 <HAL_FLASH_Unlock>
 8008db6:	b1e7      	cbz	r7, 8008df2 <FLASH_If_Write+0x4a>
 8008db8:	f8df 8048 	ldr.w	r8, [pc, #72]	; 8008e04 <FLASH_If_Write+0x5c>
 8008dbc:	4544      	cmp	r4, r8
 8008dbe:	d818      	bhi.n	8008df2 <FLASH_If_Write+0x4a>
 8008dc0:	2600      	movs	r6, #0
 8008dc2:	3d04      	subs	r5, #4
 8008dc4:	e008      	b.n	8008dd8 <FLASH_If_Write+0x30>
 8008dc6:	6822      	ldr	r2, [r4, #0]
 8008dc8:	682b      	ldr	r3, [r5, #0]
 8008dca:	3404      	adds	r4, #4
 8008dcc:	429a      	cmp	r2, r3
 8008dce:	d115      	bne.n	8008dfc <FLASH_If_Write+0x54>
 8008dd0:	42b7      	cmp	r7, r6
 8008dd2:	d00e      	beq.n	8008df2 <FLASH_If_Write+0x4a>
 8008dd4:	4544      	cmp	r4, r8
 8008dd6:	d80c      	bhi.n	8008df2 <FLASH_If_Write+0x4a>
 8008dd8:	4621      	mov	r1, r4
 8008dda:	2300      	movs	r3, #0
 8008ddc:	2002      	movs	r0, #2
 8008dde:	f855 2f04 	ldr.w	r2, [r5, #4]!
 8008de2:	f7fd f8b3 	bl	8005f4c <HAL_FLASH_Program>
 8008de6:	3601      	adds	r6, #1
 8008de8:	2800      	cmp	r0, #0
 8008dea:	d0ec      	beq.n	8008dc6 <FLASH_If_Write+0x1e>
 8008dec:	2003      	movs	r0, #3
 8008dee:	e8bd 81f0 	ldmia.w	sp!, {r4, r5, r6, r7, r8, pc}
 8008df2:	f7fd f9a9 	bl	8006148 <HAL_FLASH_Lock>
 8008df6:	2000      	movs	r0, #0
 8008df8:	e8bd 81f0 	ldmia.w	sp!, {r4, r5, r6, r7, r8, pc}
 8008dfc:	2002      	movs	r0, #2
 8008dfe:	e8bd 81f0 	ldmia.w	sp!, {r4, r5, r6, r7, r8, pc}
 8008e02:	bf00      	nop
 8008e04:	0803fffc 	.word	0x0803fffc

08008e08 <cmd_flRead>:
 8008e08:	b500      	push	{lr}
 8008e0a:	2802      	cmp	r0, #2
 8008e0c:	b083      	sub	sp, #12
 8008e0e:	d018      	beq.n	8008e42 <cmd_flRead+0x3a>
 8008e10:	9b01      	ldr	r3, [sp, #4]
 8008e12:	f103 4278 	add.w	r2, r3, #4160749568	; 0xf8000000
 8008e16:	f5b2 2f80 	cmp.w	r2, #262144	; 0x40000
 8008e1a:	d208      	bcs.n	8008e2e <cmd_flRead+0x26>
 8008e1c:	4619      	mov	r1, r3
 8008e1e:	681a      	ldr	r2, [r3, #0]
 8008e20:	480b      	ldr	r0, [pc, #44]	; (8008e50 <cmd_flRead+0x48>)
 8008e22:	f002 f9e1 	bl	800b1e8 <iprintf>
 8008e26:	2001      	movs	r0, #1
 8008e28:	b003      	add	sp, #12
 8008e2a:	f85d fb04 	ldr.w	pc, [sp], #4
 8008e2e:	f240 1211 	movw	r2, #273	; 0x111
 8008e32:	4908      	ldr	r1, [pc, #32]	; (8008e54 <cmd_flRead+0x4c>)
 8008e34:	4808      	ldr	r0, [pc, #32]	; (8008e58 <cmd_flRead+0x50>)
 8008e36:	f002 f9d7 	bl	800b1e8 <iprintf>
 8008e3a:	2000      	movs	r0, #0
 8008e3c:	b003      	add	sp, #12
 8008e3e:	f85d fb04 	ldr.w	pc, [sp], #4
 8008e42:	460b      	mov	r3, r1
 8008e44:	aa01      	add	r2, sp, #4
 8008e46:	4905      	ldr	r1, [pc, #20]	; (8008e5c <cmd_flRead+0x54>)
 8008e48:	6858      	ldr	r0, [r3, #4]
 8008e4a:	f002 fb5d 	bl	800b508 <siscanf>
 8008e4e:	e7df      	b.n	8008e10 <cmd_flRead+0x8>
 8008e50:	0800dbec 	.word	0x0800dbec
 8008e54:	0800dc3c 	.word	0x0800dc3c
 8008e58:	0800dbc4 	.word	0x0800dbc4
 8008e5c:	0800dbc0 	.word	0x0800dbc0

08008e60 <cmd_flWrite>:
 8008e60:	b530      	push	{r4, r5, lr}
 8008e62:	4b14      	ldr	r3, [pc, #80]	; (8008eb4 <cmd_flWrite+0x54>)
 8008e64:	b083      	sub	sp, #12
 8008e66:	2802      	cmp	r0, #2
 8008e68:	460c      	mov	r4, r1
 8008e6a:	9301      	str	r3, [sp, #4]
 8008e6c:	d020      	beq.n	8008eb0 <cmd_flWrite+0x50>
 8008e6e:	2803      	cmp	r0, #3
 8008e70:	d11b      	bne.n	8008eaa <cmd_flWrite+0x4a>
 8008e72:	ad01      	add	r5, sp, #4
 8008e74:	462a      	mov	r2, r5
 8008e76:	4910      	ldr	r1, [pc, #64]	; (8008eb8 <cmd_flWrite+0x58>)
 8008e78:	68a0      	ldr	r0, [r4, #8]
 8008e7a:	f002 fb45 	bl	800b508 <siscanf>
 8008e7e:	462a      	mov	r2, r5
 8008e80:	490d      	ldr	r1, [pc, #52]	; (8008eb8 <cmd_flWrite+0x58>)
 8008e82:	6860      	ldr	r0, [r4, #4]
 8008e84:	f002 fb40 	bl	800b508 <siscanf>
 8008e88:	9c01      	ldr	r4, [sp, #4]
 8008e8a:	f7fd f949 	bl	8006120 <HAL_FLASH_Unlock>
 8008e8e:	4b0b      	ldr	r3, [pc, #44]	; (8008ebc <cmd_flWrite+0x5c>)
 8008e90:	429c      	cmp	r4, r3
 8008e92:	d802      	bhi.n	8008e9a <cmd_flWrite+0x3a>
 8008e94:	2300      	movs	r3, #0
 8008e96:	681b      	ldr	r3, [r3, #0]
 8008e98:	deff      	udf	#255	; 0xff
 8008e9a:	f7fd f955 	bl	8006148 <HAL_FLASH_Lock>
 8008e9e:	4808      	ldr	r0, [pc, #32]	; (8008ec0 <cmd_flWrite+0x60>)
 8008ea0:	f002 fa3c 	bl	800b31c <puts>
 8008ea4:	2001      	movs	r0, #1
 8008ea6:	b003      	add	sp, #12
 8008ea8:	bd30      	pop	{r4, r5, pc}
 8008eaa:	f7fd f939 	bl	8006120 <HAL_FLASH_Unlock>
 8008eae:	e7f1      	b.n	8008e94 <cmd_flWrite+0x34>
 8008eb0:	ad01      	add	r5, sp, #4
 8008eb2:	e7e4      	b.n	8008e7e <cmd_flWrite+0x1e>
 8008eb4:	08020000 	.word	0x08020000
 8008eb8:	0800dbc0 	.word	0x0800dbc0
 8008ebc:	0803fffc 	.word	0x0803fffc
 8008ec0:	0800dc00 	.word	0x0800dc00

08008ec4 <cmd_flErase>:
 8008ec4:	b5d0      	push	{r4, r6, r7, lr}
 8008ec6:	4b23      	ldr	r3, [pc, #140]	; (8008f54 <cmd_flErase+0x90>)
 8008ec8:	b086      	sub	sp, #24
 8008eca:	2802      	cmp	r0, #2
 8008ecc:	9300      	str	r3, [sp, #0]
 8008ece:	d029      	beq.n	8008f24 <cmd_flErase+0x60>
 8008ed0:	f240 124d 	movw	r2, #333	; 0x14d
 8008ed4:	4920      	ldr	r1, [pc, #128]	; (8008f58 <cmd_flErase+0x94>)
 8008ed6:	4821      	ldr	r0, [pc, #132]	; (8008f5c <cmd_flErase+0x98>)
 8008ed8:	f002 f986 	bl	800b1e8 <iprintf>
 8008edc:	2300      	movs	r3, #0
 8008ede:	2600      	movs	r6, #0
 8008ee0:	2701      	movs	r7, #1
 8008ee2:	9c00      	ldr	r4, [sp, #0]
 8008ee4:	9301      	str	r3, [sp, #4]
 8008ee6:	f7fd f91b 	bl	8006120 <HAL_FLASH_Unlock>
 8008eea:	f1c4 6300 	rsb	r3, r4, #134217728	; 0x8000000
 8008eee:	f503 2380 	add.w	r3, r3, #262144	; 0x40000
 8008ef2:	0adb      	lsrs	r3, r3, #11
 8008ef4:	a901      	add	r1, sp, #4
 8008ef6:	a802      	add	r0, sp, #8
 8008ef8:	e9cd 4304 	strd	r4, r3, [sp, #16]
 8008efc:	e9cd 6702 	strd	r6, r7, [sp, #8]
 8008f00:	f7fd f982 	bl	8006208 <HAL_FLASHEx_Erase>
 8008f04:	4604      	mov	r4, r0
 8008f06:	f7fd f91f 	bl	8006148 <HAL_FLASH_Lock>
 8008f0a:	b92c      	cbnz	r4, 8008f18 <cmd_flErase+0x54>
 8008f0c:	4814      	ldr	r0, [pc, #80]	; (8008f60 <cmd_flErase+0x9c>)
 8008f0e:	f002 fa05 	bl	800b31c <puts>
 8008f12:	2001      	movs	r0, #1
 8008f14:	b006      	add	sp, #24
 8008f16:	bdd0      	pop	{r4, r6, r7, pc}
 8008f18:	4812      	ldr	r0, [pc, #72]	; (8008f64 <cmd_flErase+0xa0>)
 8008f1a:	f002 f965 	bl	800b1e8 <iprintf>
 8008f1e:	2001      	movs	r0, #1
 8008f20:	b006      	add	sp, #24
 8008f22:	bdd0      	pop	{r4, r6, r7, pc}
 8008f24:	460a      	mov	r2, r1
 8008f26:	4910      	ldr	r1, [pc, #64]	; (8008f68 <cmd_flErase+0xa4>)
 8008f28:	6850      	ldr	r0, [r2, #4]
 8008f2a:	466a      	mov	r2, sp
 8008f2c:	f002 faec 	bl	800b508 <siscanf>
 8008f30:	9b00      	ldr	r3, [sp, #0]
 8008f32:	f103 4277 	add.w	r2, r3, #4143972352	; 0xf7000000
 8008f36:	f502 027e 	add.w	r2, r2, #16646144	; 0xfe0000
 8008f3a:	f5b2 3f00 	cmp.w	r2, #131072	; 0x20000
 8008f3e:	d3c7      	bcc.n	8008ed0 <cmd_flErase+0xc>
 8008f40:	f44f 72a4 	mov.w	r2, #328	; 0x148
 8008f44:	4904      	ldr	r1, [pc, #16]	; (8008f58 <cmd_flErase+0x94>)
 8008f46:	4809      	ldr	r0, [pc, #36]	; (8008f6c <cmd_flErase+0xa8>)
 8008f48:	f002 f94e 	bl	800b1e8 <iprintf>
 8008f4c:	2000      	movs	r0, #0
 8008f4e:	b006      	add	sp, #24
 8008f50:	bdd0      	pop	{r4, r6, r7, pc}
 8008f52:	bf00      	nop
 8008f54:	08020000 	.word	0x08020000
 8008f58:	0800dc30 	.word	0x0800dc30
 8008f5c:	0800dc08 	.word	0x0800dc08
 8008f60:	0800dc20 	.word	0x0800dc20
 8008f64:	0800dc28 	.word	0x0800dc28
 8008f68:	0800dbc0 	.word	0x0800dbc0
 8008f6c:	0800dbc4 	.word	0x0800dbc4

08008f70 <Int2Str>:
 8008f70:	4a79      	ldr	r2, [pc, #484]	; (8009158 <Int2Str+0x1e8>)
 8008f72:	0a4b      	lsrs	r3, r1, #9
 8008f74:	fba2 2303 	umull	r2, r3, r2, r3
 8008f78:	09db      	lsrs	r3, r3, #7
 8008f7a:	f103 0230 	add.w	r2, r3, #48	; 0x30
 8008f7e:	b430      	push	{r4, r5}
 8008f80:	4c76      	ldr	r4, [pc, #472]	; (800915c <Int2Str+0x1ec>)
 8008f82:	2a30      	cmp	r2, #48	; 0x30
 8008f84:	fb04 1113 	mls	r1, r4, r3, r1
 8008f88:	7002      	strb	r2, [r0, #0]
 8008f8a:	d174      	bne.n	8009076 <Int2Str+0x106>
 8008f8c:	4b74      	ldr	r3, [pc, #464]	; (8009160 <Int2Str+0x1f0>)
 8008f8e:	4c75      	ldr	r4, [pc, #468]	; (8009164 <Int2Str+0x1f4>)
 8008f90:	fba3 2301 	umull	r2, r3, r3, r1
 8008f94:	0e5b      	lsrs	r3, r3, #25
 8008f96:	f103 0230 	add.w	r2, r3, #48	; 0x30
 8008f9a:	2a30      	cmp	r2, #48	; 0x30
 8008f9c:	fb04 1113 	mls	r1, r4, r3, r1
 8008fa0:	7002      	strb	r2, [r0, #0]
 8008fa2:	f040 80c9 	bne.w	8009138 <Int2Str+0x1c8>
 8008fa6:	4a70      	ldr	r2, [pc, #448]	; (8009168 <Int2Str+0x1f8>)
 8008fa8:	4c70      	ldr	r4, [pc, #448]	; (800916c <Int2Str+0x1fc>)
 8008faa:	fba2 3201 	umull	r3, r2, r2, r1
 8008fae:	0d92      	lsrs	r2, r2, #22
 8008fb0:	f102 0330 	add.w	r3, r2, #48	; 0x30
 8008fb4:	b2db      	uxtb	r3, r3
 8008fb6:	2b30      	cmp	r3, #48	; 0x30
 8008fb8:	fb04 1212 	mls	r2, r4, r2, r1
 8008fbc:	7003      	strb	r3, [r0, #0]
 8008fbe:	f040 80c9 	bne.w	8009154 <Int2Str+0x1e4>
 8008fc2:	496b      	ldr	r1, [pc, #428]	; (8009170 <Int2Str+0x200>)
 8008fc4:	4c6b      	ldr	r4, [pc, #428]	; (8009174 <Int2Str+0x204>)
 8008fc6:	fba1 3102 	umull	r3, r1, r1, r2
 8008fca:	0c89      	lsrs	r1, r1, #18
 8008fcc:	f101 0330 	add.w	r3, r1, #48	; 0x30
 8008fd0:	b2db      	uxtb	r3, r3
 8008fd2:	2b30      	cmp	r3, #48	; 0x30
 8008fd4:	fb04 2211 	mls	r2, r4, r1, r2
 8008fd8:	7003      	strb	r3, [r0, #0]
 8008fda:	f040 80b9 	bne.w	8009150 <Int2Str+0x1e0>
 8008fde:	4966      	ldr	r1, [pc, #408]	; (8009178 <Int2Str+0x208>)
 8008fe0:	0953      	lsrs	r3, r2, #5
 8008fe2:	fba1 1303 	umull	r1, r3, r1, r3
 8008fe6:	09db      	lsrs	r3, r3, #7
 8008fe8:	f103 0130 	add.w	r1, r3, #48	; 0x30
 8008fec:	b2c9      	uxtb	r1, r1
 8008fee:	4c63      	ldr	r4, [pc, #396]	; (800917c <Int2Str+0x20c>)
 8008ff0:	2930      	cmp	r1, #48	; 0x30
 8008ff2:	fb04 2213 	mls	r2, r4, r3, r2
 8008ff6:	7001      	strb	r1, [r0, #0]
 8008ff8:	f040 80a8 	bne.w	800914c <Int2Str+0x1dc>
 8008ffc:	f242 7410 	movw	r4, #10000	; 0x2710
 8009000:	4b5f      	ldr	r3, [pc, #380]	; (8009180 <Int2Str+0x210>)
 8009002:	fba3 1302 	umull	r1, r3, r3, r2
 8009006:	0b5b      	lsrs	r3, r3, #13
 8009008:	f103 0130 	add.w	r1, r3, #48	; 0x30
 800900c:	b2c9      	uxtb	r1, r1
 800900e:	2930      	cmp	r1, #48	; 0x30
 8009010:	fb04 2213 	mls	r2, r4, r3, r2
 8009014:	7001      	strb	r1, [r0, #0]
 8009016:	f040 8097 	bne.w	8009148 <Int2Str+0x1d8>
 800901a:	f44f 747a 	mov.w	r4, #1000	; 0x3e8
 800901e:	4b59      	ldr	r3, [pc, #356]	; (8009184 <Int2Str+0x214>)
 8009020:	fba3 1302 	umull	r1, r3, r3, r2
 8009024:	099b      	lsrs	r3, r3, #6
 8009026:	f103 0130 	add.w	r1, r3, #48	; 0x30
 800902a:	b2c9      	uxtb	r1, r1
 800902c:	2930      	cmp	r1, #48	; 0x30
 800902e:	fb04 2213 	mls	r2, r4, r3, r2
 8009032:	7001      	strb	r1, [r0, #0]
 8009034:	f040 8086 	bne.w	8009144 <Int2Str+0x1d4>
 8009038:	2464      	movs	r4, #100	; 0x64
 800903a:	4b53      	ldr	r3, [pc, #332]	; (8009188 <Int2Str+0x218>)
 800903c:	fba3 1302 	umull	r1, r3, r3, r2
 8009040:	095b      	lsrs	r3, r3, #5
 8009042:	f103 0130 	add.w	r1, r3, #48	; 0x30
 8009046:	b2c9      	uxtb	r1, r1
 8009048:	2930      	cmp	r1, #48	; 0x30
 800904a:	fb04 2213 	mls	r2, r4, r3, r2
 800904e:	7001      	strb	r1, [r0, #0]
 8009050:	d176      	bne.n	8009140 <Int2Str+0x1d0>
 8009052:	4b4e      	ldr	r3, [pc, #312]	; (800918c <Int2Str+0x21c>)
 8009054:	fba3 1302 	umull	r1, r3, r3, r2
 8009058:	08db      	lsrs	r3, r3, #3
 800905a:	f103 0130 	add.w	r1, r3, #48	; 0x30
 800905e:	b2c9      	uxtb	r1, r1
 8009060:	eb03 0383 	add.w	r3, r3, r3, lsl #2
 8009064:	2930      	cmp	r1, #48	; 0x30
 8009066:	7001      	strb	r1, [r0, #0]
 8009068:	eba2 0243 	sub.w	r2, r2, r3, lsl #1
 800906c:	d166      	bne.n	800913c <Int2Str+0x1cc>
 800906e:	bc30      	pop	{r4, r5}
 8009070:	3230      	adds	r2, #48	; 0x30
 8009072:	7002      	strb	r2, [r0, #0]
 8009074:	4770      	bx	lr
 8009076:	4a3a      	ldr	r2, [pc, #232]	; (8009160 <Int2Str+0x1f0>)
 8009078:	4d3a      	ldr	r5, [pc, #232]	; (8009164 <Int2Str+0x1f4>)
 800907a:	fba2 3201 	umull	r3, r2, r2, r1
 800907e:	2301      	movs	r3, #1
 8009080:	0e52      	lsrs	r2, r2, #25
 8009082:	fb05 1112 	mls	r1, r5, r2, r1
 8009086:	f102 0430 	add.w	r4, r2, #48	; 0x30
 800908a:	7044      	strb	r4, [r0, #1]
 800908c:	4a36      	ldr	r2, [pc, #216]	; (8009168 <Int2Str+0x1f8>)
 800908e:	3301      	adds	r3, #1
 8009090:	fba2 4201 	umull	r4, r2, r2, r1
 8009094:	0d92      	lsrs	r2, r2, #22
 8009096:	f102 0430 	add.w	r4, r2, #48	; 0x30
 800909a:	54c4      	strb	r4, [r0, r3]
 800909c:	4c33      	ldr	r4, [pc, #204]	; (800916c <Int2Str+0x1fc>)
 800909e:	fb04 1212 	mls	r2, r4, r2, r1
 80090a2:	4933      	ldr	r1, [pc, #204]	; (8009170 <Int2Str+0x200>)
 80090a4:	3301      	adds	r3, #1
 80090a6:	fba1 4102 	umull	r4, r1, r1, r2
 80090aa:	0c89      	lsrs	r1, r1, #18
 80090ac:	f101 0430 	add.w	r4, r1, #48	; 0x30
 80090b0:	54c4      	strb	r4, [r0, r3]
 80090b2:	4c30      	ldr	r4, [pc, #192]	; (8009174 <Int2Str+0x204>)
 80090b4:	fb04 2211 	mls	r2, r4, r1, r2
 80090b8:	4c2f      	ldr	r4, [pc, #188]	; (8009178 <Int2Str+0x208>)
 80090ba:	0951      	lsrs	r1, r2, #5
 80090bc:	fba4 4101 	umull	r4, r1, r4, r1
 80090c0:	09c9      	lsrs	r1, r1, #7
 80090c2:	f101 0430 	add.w	r4, r1, #48	; 0x30
 80090c6:	3301      	adds	r3, #1
 80090c8:	54c4      	strb	r4, [r0, r3]
 80090ca:	4c2c      	ldr	r4, [pc, #176]	; (800917c <Int2Str+0x20c>)
 80090cc:	fb04 2211 	mls	r2, r4, r1, r2
 80090d0:	492b      	ldr	r1, [pc, #172]	; (8009180 <Int2Str+0x210>)
 80090d2:	3301      	adds	r3, #1
 80090d4:	fba1 4102 	umull	r4, r1, r1, r2
 80090d8:	0b49      	lsrs	r1, r1, #13
 80090da:	f101 0430 	add.w	r4, r1, #48	; 0x30
 80090de:	54c4      	strb	r4, [r0, r3]
 80090e0:	f242 7410 	movw	r4, #10000	; 0x2710
 80090e4:	fb04 2211 	mls	r2, r4, r1, r2
 80090e8:	4926      	ldr	r1, [pc, #152]	; (8009184 <Int2Str+0x214>)
 80090ea:	3301      	adds	r3, #1
 80090ec:	fba1 4102 	umull	r4, r1, r1, r2
 80090f0:	0989      	lsrs	r1, r1, #6
 80090f2:	f101 0430 	add.w	r4, r1, #48	; 0x30
 80090f6:	54c4      	strb	r4, [r0, r3]
 80090f8:	f44f 747a 	mov.w	r4, #1000	; 0x3e8
 80090fc:	fb04 2211 	mls	r2, r4, r1, r2
 8009100:	4921      	ldr	r1, [pc, #132]	; (8009188 <Int2Str+0x218>)
 8009102:	3301      	adds	r3, #1
 8009104:	fba1 4102 	umull	r4, r1, r1, r2
 8009108:	0949      	lsrs	r1, r1, #5
 800910a:	f101 0430 	add.w	r4, r1, #48	; 0x30
 800910e:	54c4      	strb	r4, [r0, r3]
 8009110:	2464      	movs	r4, #100	; 0x64
 8009112:	fb04 2211 	mls	r2, r4, r1, r2
 8009116:	491d      	ldr	r1, [pc, #116]	; (800918c <Int2Str+0x21c>)
 8009118:	3301      	adds	r3, #1
 800911a:	fba1 4102 	umull	r4, r1, r1, r2
 800911e:	08c9      	lsrs	r1, r1, #3
 8009120:	f101 0430 	add.w	r4, r1, #48	; 0x30
 8009124:	eb01 0181 	add.w	r1, r1, r1, lsl #2
 8009128:	54c4      	strb	r4, [r0, r3]
 800912a:	eba2 0241 	sub.w	r2, r2, r1, lsl #1
 800912e:	4403      	add	r3, r0
 8009130:	3230      	adds	r2, #48	; 0x30
 8009132:	705a      	strb	r2, [r3, #1]
 8009134:	bc30      	pop	{r4, r5}
 8009136:	4770      	bx	lr
 8009138:	2300      	movs	r3, #0
 800913a:	e7a7      	b.n	800908c <Int2Str+0x11c>
 800913c:	2300      	movs	r3, #0
 800913e:	e7f6      	b.n	800912e <Int2Str+0x1be>
 8009140:	2300      	movs	r3, #0
 8009142:	e7e8      	b.n	8009116 <Int2Str+0x1a6>
 8009144:	2300      	movs	r3, #0
 8009146:	e7db      	b.n	8009100 <Int2Str+0x190>
 8009148:	2300      	movs	r3, #0
 800914a:	e7cd      	b.n	80090e8 <Int2Str+0x178>
 800914c:	2300      	movs	r3, #0
 800914e:	e7bf      	b.n	80090d0 <Int2Str+0x160>
 8009150:	2300      	movs	r3, #0
 8009152:	e7b1      	b.n	80090b8 <Int2Str+0x148>
 8009154:	2300      	movs	r3, #0
 8009156:	e7a4      	b.n	80090a2 <Int2Str+0x132>
 8009158:	00044b83 	.word	0x00044b83
 800915c:	3b9aca00 	.word	0x3b9aca00
 8009160:	55e63b89 	.word	0x55e63b89
 8009164:	05f5e100 	.word	0x05f5e100
 8009168:	6b5fca6b 	.word	0x6b5fca6b
 800916c:	00989680 	.word	0x00989680
 8009170:	431bde83 	.word	0x431bde83
 8009174:	000f4240 	.word	0x000f4240
 8009178:	0a7c5ac5 	.word	0x0a7c5ac5
 800917c:	000186a0 	.word	0x000186a0
 8009180:	d1b71759 	.word	0xd1b71759
 8009184:	10624dd3 	.word	0x10624dd3
 8009188:	51eb851f 	.word	0x51eb851f
 800918c:	cccccccd 	.word	0xcccccccd

08009190 <Str2Int>:
 8009190:	7803      	ldrb	r3, [r0, #0]
 8009192:	4684      	mov	ip, r0
 8009194:	2b30      	cmp	r3, #48	; 0x30
 8009196:	d02a      	beq.n	80091ee <Str2Int+0x5e>
 8009198:	2000      	movs	r0, #0
 800919a:	b510      	push	{r4, lr}
 800919c:	4602      	mov	r2, r0
 800919e:	2401      	movs	r4, #1
 80091a0:	f10c 3cff 	add.w	ip, ip, #4294967295
 80091a4:	f81c 3f01 	ldrb.w	r3, [ip, #1]!
 80091a8:	b14b      	cbz	r3, 80091be <Str2Int+0x2e>
 80091aa:	f003 0edf 	and.w	lr, r3, #223	; 0xdf
 80091ae:	f1be 0f4b 	cmp.w	lr, #75	; 0x4b
 80091b2:	d016      	beq.n	80091e2 <Str2Int+0x52>
 80091b4:	f1be 0f4d 	cmp.w	lr, #77	; 0x4d
 80091b8:	d104      	bne.n	80091c4 <Str2Int+0x34>
 80091ba:	b110      	cbz	r0, 80091c2 <Str2Int+0x32>
 80091bc:	0512      	lsls	r2, r2, #20
 80091be:	2001      	movs	r0, #1
 80091c0:	600a      	str	r2, [r1, #0]
 80091c2:	bd10      	pop	{r4, pc}
 80091c4:	3b30      	subs	r3, #48	; 0x30
 80091c6:	fa5f fe83 	uxtb.w	lr, r3
 80091ca:	eb02 0282 	add.w	r2, r2, r2, lsl #2
 80091ce:	f1be 0f09 	cmp.w	lr, #9
 80091d2:	eb03 0242 	add.w	r2, r3, r2, lsl #1
 80091d6:	d87d      	bhi.n	80092d4 <Str2Int+0x144>
 80091d8:	2c0b      	cmp	r4, #11
 80091da:	d07b      	beq.n	80092d4 <Str2Int+0x144>
 80091dc:	3401      	adds	r4, #1
 80091de:	3001      	adds	r0, #1
 80091e0:	e7e0      	b.n	80091a4 <Str2Int+0x14>
 80091e2:	2800      	cmp	r0, #0
 80091e4:	d0ee      	beq.n	80091c4 <Str2Int+0x34>
 80091e6:	0292      	lsls	r2, r2, #10
 80091e8:	2001      	movs	r0, #1
 80091ea:	600a      	str	r2, [r1, #0]
 80091ec:	bd10      	pop	{r4, pc}
 80091ee:	7843      	ldrb	r3, [r0, #1]
 80091f0:	f003 03df 	and.w	r3, r3, #223	; 0xdf
 80091f4:	2b58      	cmp	r3, #88	; 0x58
 80091f6:	d1cf      	bne.n	8009198 <Str2Int+0x8>
 80091f8:	7883      	ldrb	r3, [r0, #2]
 80091fa:	2b00      	cmp	r3, #0
 80091fc:	d06c      	beq.n	80092d8 <Str2Int+0x148>
 80091fe:	f1a3 0241 	sub.w	r2, r3, #65	; 0x41
 8009202:	2a05      	cmp	r2, #5
 8009204:	d86b      	bhi.n	80092de <Str2Int+0x14e>
 8009206:	3b37      	subs	r3, #55	; 0x37
 8009208:	f89c 2003 	ldrb.w	r2, [ip, #3]
 800920c:	2a00      	cmp	r2, #0
 800920e:	d063      	beq.n	80092d8 <Str2Int+0x148>
 8009210:	f1a2 0041 	sub.w	r0, r2, #65	; 0x41
 8009214:	2805      	cmp	r0, #5
 8009216:	d868      	bhi.n	80092ea <Str2Int+0x15a>
 8009218:	011b      	lsls	r3, r3, #4
 800921a:	3a37      	subs	r2, #55	; 0x37
 800921c:	f89c 0004 	ldrb.w	r0, [ip, #4]
 8009220:	4413      	add	r3, r2
 8009222:	2800      	cmp	r0, #0
 8009224:	d058      	beq.n	80092d8 <Str2Int+0x148>
 8009226:	f1a0 0241 	sub.w	r2, r0, #65	; 0x41
 800922a:	2a05      	cmp	r2, #5
 800922c:	d867      	bhi.n	80092fe <Str2Int+0x16e>
 800922e:	011b      	lsls	r3, r3, #4
 8009230:	3837      	subs	r0, #55	; 0x37
 8009232:	f89c 2005 	ldrb.w	r2, [ip, #5]
 8009236:	4403      	add	r3, r0
 8009238:	2a00      	cmp	r2, #0
 800923a:	d04d      	beq.n	80092d8 <Str2Int+0x148>
 800923c:	f1a2 0041 	sub.w	r0, r2, #65	; 0x41
 8009240:	2805      	cmp	r0, #5
 8009242:	d966      	bls.n	8009312 <Str2Int+0x182>
 8009244:	f1a2 0061 	sub.w	r0, r2, #97	; 0x61
 8009248:	2805      	cmp	r0, #5
 800924a:	f200 8090 	bhi.w	800936e <Str2Int+0x1de>
 800924e:	011b      	lsls	r3, r3, #4
 8009250:	3a57      	subs	r2, #87	; 0x57
 8009252:	f89c 0006 	ldrb.w	r0, [ip, #6]
 8009256:	4413      	add	r3, r2
 8009258:	2800      	cmp	r0, #0
 800925a:	d03d      	beq.n	80092d8 <Str2Int+0x148>
 800925c:	f1a0 0241 	sub.w	r2, r0, #65	; 0x41
 8009260:	2a05      	cmp	r2, #5
 8009262:	d865      	bhi.n	8009330 <Str2Int+0x1a0>
 8009264:	011b      	lsls	r3, r3, #4
 8009266:	3837      	subs	r0, #55	; 0x37
 8009268:	f89c 2007 	ldrb.w	r2, [ip, #7]
 800926c:	4403      	add	r3, r0
 800926e:	b39a      	cbz	r2, 80092d8 <Str2Int+0x148>
 8009270:	f1a2 0041 	sub.w	r0, r2, #65	; 0x41
 8009274:	2805      	cmp	r0, #5
 8009276:	d862      	bhi.n	800933e <Str2Int+0x1ae>
 8009278:	011b      	lsls	r3, r3, #4
 800927a:	3a37      	subs	r2, #55	; 0x37
 800927c:	f89c 0008 	ldrb.w	r0, [ip, #8]
 8009280:	4413      	add	r3, r2
 8009282:	b348      	cbz	r0, 80092d8 <Str2Int+0x148>
 8009284:	f1a0 0241 	sub.w	r2, r0, #65	; 0x41
 8009288:	2a05      	cmp	r2, #5
 800928a:	d85f      	bhi.n	800934c <Str2Int+0x1bc>
 800928c:	011b      	lsls	r3, r3, #4
 800928e:	3837      	subs	r0, #55	; 0x37
 8009290:	f89c 2009 	ldrb.w	r2, [ip, #9]
 8009294:	4403      	add	r3, r0
 8009296:	b1fa      	cbz	r2, 80092d8 <Str2Int+0x148>
 8009298:	f1a2 0041 	sub.w	r0, r2, #65	; 0x41
 800929c:	2805      	cmp	r0, #5
 800929e:	d85c      	bhi.n	800935a <Str2Int+0x1ca>
 80092a0:	011b      	lsls	r3, r3, #4
 80092a2:	3a37      	subs	r2, #55	; 0x37
 80092a4:	f89c 000a 	ldrb.w	r0, [ip, #10]
 80092a8:	4413      	add	r3, r2
 80092aa:	b1a8      	cbz	r0, 80092d8 <Str2Int+0x148>
 80092ac:	f1a0 0241 	sub.w	r2, r0, #65	; 0x41
 80092b0:	2a05      	cmp	r2, #5
 80092b2:	d959      	bls.n	8009368 <Str2Int+0x1d8>
 80092b4:	f1a0 0261 	sub.w	r2, r0, #97	; 0x61
 80092b8:	2a05      	cmp	r2, #5
 80092ba:	d976      	bls.n	80093aa <Str2Int+0x21a>
 80092bc:	3830      	subs	r0, #48	; 0x30
 80092be:	b2c2      	uxtb	r2, r0
 80092c0:	2a09      	cmp	r2, #9
 80092c2:	bf98      	it	ls
 80092c4:	011b      	lslls	r3, r3, #4
 80092c6:	d803      	bhi.n	80092d0 <Str2Int+0x140>
 80092c8:	f89c 200b 	ldrb.w	r2, [ip, #11]
 80092cc:	4403      	add	r3, r0
 80092ce:	b11a      	cbz	r2, 80092d8 <Str2Int+0x148>
 80092d0:	2000      	movs	r0, #0
 80092d2:	4770      	bx	lr
 80092d4:	2000      	movs	r0, #0
 80092d6:	bd10      	pop	{r4, pc}
 80092d8:	2001      	movs	r0, #1
 80092da:	600b      	str	r3, [r1, #0]
 80092dc:	4770      	bx	lr
 80092de:	f1a3 0261 	sub.w	r2, r3, #97	; 0x61
 80092e2:	2a05      	cmp	r2, #5
 80092e4:	d818      	bhi.n	8009318 <Str2Int+0x188>
 80092e6:	3b57      	subs	r3, #87	; 0x57
 80092e8:	e78e      	b.n	8009208 <Str2Int+0x78>
 80092ea:	f1a2 0061 	sub.w	r0, r2, #97	; 0x61
 80092ee:	2805      	cmp	r0, #5
 80092f0:	d918      	bls.n	8009324 <Str2Int+0x194>
 80092f2:	3a30      	subs	r2, #48	; 0x30
 80092f4:	b2d0      	uxtb	r0, r2
 80092f6:	2809      	cmp	r0, #9
 80092f8:	d8ea      	bhi.n	80092d0 <Str2Int+0x140>
 80092fa:	011b      	lsls	r3, r3, #4
 80092fc:	e78e      	b.n	800921c <Str2Int+0x8c>
 80092fe:	f1a0 0261 	sub.w	r2, r0, #97	; 0x61
 8009302:	2a05      	cmp	r2, #5
 8009304:	d911      	bls.n	800932a <Str2Int+0x19a>
 8009306:	3830      	subs	r0, #48	; 0x30
 8009308:	b2c2      	uxtb	r2, r0
 800930a:	2a09      	cmp	r2, #9
 800930c:	d8e0      	bhi.n	80092d0 <Str2Int+0x140>
 800930e:	011b      	lsls	r3, r3, #4
 8009310:	e78f      	b.n	8009232 <Str2Int+0xa2>
 8009312:	011b      	lsls	r3, r3, #4
 8009314:	3a37      	subs	r2, #55	; 0x37
 8009316:	e79c      	b.n	8009252 <Str2Int+0xc2>
 8009318:	3b30      	subs	r3, #48	; 0x30
 800931a:	b2da      	uxtb	r2, r3
 800931c:	2a09      	cmp	r2, #9
 800931e:	f67f af73 	bls.w	8009208 <Str2Int+0x78>
 8009322:	e7d5      	b.n	80092d0 <Str2Int+0x140>
 8009324:	011b      	lsls	r3, r3, #4
 8009326:	3a57      	subs	r2, #87	; 0x57
 8009328:	e778      	b.n	800921c <Str2Int+0x8c>
 800932a:	011b      	lsls	r3, r3, #4
 800932c:	3857      	subs	r0, #87	; 0x57
 800932e:	e780      	b.n	8009232 <Str2Int+0xa2>
 8009330:	f1a0 0261 	sub.w	r2, r0, #97	; 0x61
 8009334:	2a05      	cmp	r2, #5
 8009336:	d820      	bhi.n	800937a <Str2Int+0x1ea>
 8009338:	011b      	lsls	r3, r3, #4
 800933a:	3857      	subs	r0, #87	; 0x57
 800933c:	e794      	b.n	8009268 <Str2Int+0xd8>
 800933e:	f1a2 0061 	sub.w	r0, r2, #97	; 0x61
 8009342:	2805      	cmp	r0, #5
 8009344:	d81f      	bhi.n	8009386 <Str2Int+0x1f6>
 8009346:	011b      	lsls	r3, r3, #4
 8009348:	3a57      	subs	r2, #87	; 0x57
 800934a:	e797      	b.n	800927c <Str2Int+0xec>
 800934c:	f1a0 0261 	sub.w	r2, r0, #97	; 0x61
 8009350:	2a05      	cmp	r2, #5
 8009352:	d81e      	bhi.n	8009392 <Str2Int+0x202>
 8009354:	011b      	lsls	r3, r3, #4
 8009356:	3857      	subs	r0, #87	; 0x57
 8009358:	e79a      	b.n	8009290 <Str2Int+0x100>
 800935a:	f1a2 0061 	sub.w	r0, r2, #97	; 0x61
 800935e:	2805      	cmp	r0, #5
 8009360:	d81d      	bhi.n	800939e <Str2Int+0x20e>
 8009362:	011b      	lsls	r3, r3, #4
 8009364:	3a57      	subs	r2, #87	; 0x57
 8009366:	e79d      	b.n	80092a4 <Str2Int+0x114>
 8009368:	011b      	lsls	r3, r3, #4
 800936a:	3837      	subs	r0, #55	; 0x37
 800936c:	e7ac      	b.n	80092c8 <Str2Int+0x138>
 800936e:	3a30      	subs	r2, #48	; 0x30
 8009370:	b2d0      	uxtb	r0, r2
 8009372:	2809      	cmp	r0, #9
 8009374:	d8ac      	bhi.n	80092d0 <Str2Int+0x140>
 8009376:	011b      	lsls	r3, r3, #4
 8009378:	e76b      	b.n	8009252 <Str2Int+0xc2>
 800937a:	3830      	subs	r0, #48	; 0x30
 800937c:	b2c2      	uxtb	r2, r0
 800937e:	2a09      	cmp	r2, #9
 8009380:	d8a6      	bhi.n	80092d0 <Str2Int+0x140>
 8009382:	011b      	lsls	r3, r3, #4
 8009384:	e770      	b.n	8009268 <Str2Int+0xd8>
 8009386:	3a30      	subs	r2, #48	; 0x30
 8009388:	b2d0      	uxtb	r0, r2
 800938a:	2809      	cmp	r0, #9
 800938c:	d8a0      	bhi.n	80092d0 <Str2Int+0x140>
 800938e:	011b      	lsls	r3, r3, #4
 8009390:	e774      	b.n	800927c <Str2Int+0xec>
 8009392:	3830      	subs	r0, #48	; 0x30
 8009394:	b2c2      	uxtb	r2, r0
 8009396:	2a09      	cmp	r2, #9
 8009398:	d89a      	bhi.n	80092d0 <Str2Int+0x140>
 800939a:	011b      	lsls	r3, r3, #4
 800939c:	e778      	b.n	8009290 <Str2Int+0x100>
 800939e:	3a30      	subs	r2, #48	; 0x30
 80093a0:	b2d0      	uxtb	r0, r2
 80093a2:	2809      	cmp	r0, #9
 80093a4:	d894      	bhi.n	80092d0 <Str2Int+0x140>
 80093a6:	011b      	lsls	r3, r3, #4
 80093a8:	e77c      	b.n	80092a4 <Str2Int+0x114>
 80093aa:	011b      	lsls	r3, r3, #4
 80093ac:	3857      	subs	r0, #87	; 0x57
 80093ae:	e78b      	b.n	80092c8 <Str2Int+0x138>

080093b0 <Serial_PutString>:
 80093b0:	4a08      	ldr	r2, [pc, #32]	; (80093d4 <Serial_PutString+0x24>)
 80093b2:	4601      	mov	r1, r0
 80093b4:	4b08      	ldr	r3, [pc, #32]	; (80093d8 <Serial_PutString+0x28>)
 80093b6:	6810      	ldr	r0, [r2, #0]
 80093b8:	4298      	cmp	r0, r3
 80093ba:	d00a      	beq.n	80093d2 <Serial_PutString+0x22>
 80093bc:	780a      	ldrb	r2, [r1, #0]
 80093be:	b12a      	cbz	r2, 80093cc <Serial_PutString+0x1c>
 80093c0:	2200      	movs	r2, #0
 80093c2:	3201      	adds	r2, #1
 80093c4:	b292      	uxth	r2, r2
 80093c6:	5c8b      	ldrb	r3, [r1, r2]
 80093c8:	2b00      	cmp	r3, #0
 80093ca:	d1fa      	bne.n	80093c2 <Serial_PutString+0x12>
 80093cc:	2364      	movs	r3, #100	; 0x64
 80093ce:	f7fe bef5 	b.w	80081bc <HAL_UART_Transmit>
 80093d2:	4770      	bx	lr
 80093d4:	20000130 	.word	0x20000130
 80093d8:	200002d0 	.word	0x200002d0

080093dc <Serial_PutByte>:
 80093dc:	4684      	mov	ip, r0
 80093de:	b500      	push	{lr}
 80093e0:	4906      	ldr	r1, [pc, #24]	; (80093fc <Serial_PutByte+0x20>)
 80093e2:	b083      	sub	sp, #12
 80093e4:	2364      	movs	r3, #100	; 0x64
 80093e6:	2201      	movs	r2, #1
 80093e8:	6808      	ldr	r0, [r1, #0]
 80093ea:	f10d 0107 	add.w	r1, sp, #7
 80093ee:	f88d c007 	strb.w	ip, [sp, #7]
 80093f2:	f7fe fee3 	bl	80081bc <HAL_UART_Transmit>
 80093f6:	b003      	add	sp, #12
 80093f8:	f85d fb04 	ldr.w	pc, [sp], #4
 80093fc:	20000130 	.word	0x20000130

08009400 <SetYmodemUart>:
 8009400:	4b01      	ldr	r3, [pc, #4]	; (8009408 <SetYmodemUart+0x8>)
 8009402:	6018      	str	r0, [r3, #0]
 8009404:	4770      	bx	lr
 8009406:	bf00      	nop
 8009408:	20000130 	.word	0x20000130

0800940c <SerialDownload>:
 800940c:	2300      	movs	r3, #0
 800940e:	b510      	push	{r4, lr}
 8009410:	482b      	ldr	r0, [pc, #172]	; (80094c0 <SerialDownload+0xb4>)
 8009412:	b08a      	sub	sp, #40	; 0x28
 8009414:	e9cd 3307 	strd	r3, r3, [sp, #28]
 8009418:	9303      	str	r3, [sp, #12]
 800941a:	f8cd 3023 	str.w	r3, [sp, #35]	; 0x23
 800941e:	f7ff ffc7 	bl	80093b0 <Serial_PutString>
 8009422:	a803      	add	r0, sp, #12
 8009424:	f001 f924 	bl	800a670 <Ymodem_Receive>
 8009428:	4604      	mov	r4, r0
 800942a:	b160      	cbz	r0, 8009446 <SerialDownload+0x3a>
 800942c:	2805      	cmp	r0, #5
 800942e:	d040      	beq.n	80094b2 <SerialDownload+0xa6>
 8009430:	2804      	cmp	r0, #4
 8009432:	d038      	beq.n	80094a6 <SerialDownload+0x9a>
 8009434:	2802      	cmp	r0, #2
 8009436:	bf0c      	ite	eq
 8009438:	4822      	ldreq	r0, [pc, #136]	; (80094c4 <SerialDownload+0xb8>)
 800943a:	4823      	ldrne	r0, [pc, #140]	; (80094c8 <SerialDownload+0xbc>)
 800943c:	f7ff ffb8 	bl	80093b0 <Serial_PutString>
 8009440:	4620      	mov	r0, r4
 8009442:	b00a      	add	sp, #40	; 0x28
 8009444:	bd10      	pop	{r4, pc}
 8009446:	4821      	ldr	r0, [pc, #132]	; (80094cc <SerialDownload+0xc0>)
 8009448:	f7ff ffb2 	bl	80093b0 <Serial_PutString>
 800944c:	4820      	ldr	r0, [pc, #128]	; (80094d0 <SerialDownload+0xc4>)
 800944e:	f7ff ffaf 	bl	80093b0 <Serial_PutString>
 8009452:	9903      	ldr	r1, [sp, #12]
 8009454:	a807      	add	r0, sp, #28
 8009456:	f7ff fd8b 	bl	8008f70 <Int2Str>
 800945a:	481e      	ldr	r0, [pc, #120]	; (80094d4 <SerialDownload+0xc8>)
 800945c:	f7ff ffa8 	bl	80093b0 <Serial_PutString>
 8009460:	a807      	add	r0, sp, #28
 8009462:	f7ff ffa5 	bl	80093b0 <Serial_PutString>
 8009466:	481c      	ldr	r0, [pc, #112]	; (80094d8 <SerialDownload+0xcc>)
 8009468:	f7ff ffa2 	bl	80093b0 <Serial_PutString>
 800946c:	481b      	ldr	r0, [pc, #108]	; (80094dc <SerialDownload+0xd0>)
 800946e:	f7ff ff9f 	bl	80093b0 <Serial_PutString>
 8009472:	20aa      	movs	r0, #170	; 0xaa
 8009474:	2155      	movs	r1, #85	; 0x55
 8009476:	2305      	movs	r3, #5
 8009478:	9a03      	ldr	r2, [sp, #12]
 800947a:	f88d 0010 	strb.w	r0, [sp, #16]
 800947e:	f88d 1011 	strb.w	r1, [sp, #17]
 8009482:	0a10      	lsrs	r0, r2, #8
 8009484:	0c11      	lsrs	r1, r2, #16
 8009486:	f88d 2014 	strb.w	r2, [sp, #20]
 800948a:	9300      	str	r3, [sp, #0]
 800948c:	f88d 1012 	strb.w	r1, [sp, #18]
 8009490:	f88d 0013 	strb.w	r0, [sp, #19]
 8009494:	2220      	movs	r2, #32
 8009496:	21a0      	movs	r1, #160	; 0xa0
 8009498:	ab04      	add	r3, sp, #16
 800949a:	4811      	ldr	r0, [pc, #68]	; (80094e0 <SerialDownload+0xd4>)
 800949c:	f000 f860 	bl	8009560 <MB85_HAL_WriteBytes>
 80094a0:	4620      	mov	r0, r4
 80094a2:	b00a      	add	sp, #40	; 0x28
 80094a4:	bd10      	pop	{r4, pc}
 80094a6:	480f      	ldr	r0, [pc, #60]	; (80094e4 <SerialDownload+0xd8>)
 80094a8:	f7ff ff82 	bl	80093b0 <Serial_PutString>
 80094ac:	4620      	mov	r0, r4
 80094ae:	b00a      	add	sp, #40	; 0x28
 80094b0:	bd10      	pop	{r4, pc}
 80094b2:	480d      	ldr	r0, [pc, #52]	; (80094e8 <SerialDownload+0xdc>)
 80094b4:	f7ff ff7c 	bl	80093b0 <Serial_PutString>
 80094b8:	4620      	mov	r0, r4
 80094ba:	b00a      	add	sp, #40	; 0x28
 80094bc:	bd10      	pop	{r4, pc}
 80094be:	bf00      	nop
 80094c0:	0800dc48 	.word	0x0800dc48
 80094c4:	0800dd64 	.word	0x0800dd64
 80094c8:	0800dd7c 	.word	0x0800dd7c
 80094cc:	0800dc84 	.word	0x0800dc84
 80094d0:	200004c4 	.word	0x200004c4
 80094d4:	0800dcd8 	.word	0x0800dcd8
 80094d8:	0800dce4 	.word	0x0800dce4
 80094dc:	0800dcf0 	.word	0x0800dcf0
 80094e0:	20000224 	.word	0x20000224
 80094e4:	0800dd48 	.word	0x0800dd48
 80094e8:	0800dd08 	.word	0x0800dd08

080094ec <SerialUpload>:
 80094ec:	b510      	push	{r4, lr}
 80094ee:	2400      	movs	r4, #0
 80094f0:	b082      	sub	sp, #8
 80094f2:	4815      	ldr	r0, [pc, #84]	; (8009548 <SerialUpload+0x5c>)
 80094f4:	f88d 4007 	strb.w	r4, [sp, #7]
 80094f8:	f7ff ff5a 	bl	80093b0 <Serial_PutString>
 80094fc:	4913      	ldr	r1, [pc, #76]	; (800954c <SerialUpload+0x60>)
 80094fe:	f04f 33ff 	mov.w	r3, #4294967295
 8009502:	6808      	ldr	r0, [r1, #0]
 8009504:	2201      	movs	r2, #1
 8009506:	f10d 0107 	add.w	r1, sp, #7
 800950a:	f7fe fedf 	bl	80082cc <HAL_UART_Receive>
 800950e:	f89d 3007 	ldrb.w	r3, [sp, #7]
 8009512:	2b43      	cmp	r3, #67	; 0x43
 8009514:	d002      	beq.n	800951c <SerialUpload+0x30>
 8009516:	4620      	mov	r0, r4
 8009518:	b002      	add	sp, #8
 800951a:	bd10      	pop	{r4, pc}
 800951c:	f44f 5240 	mov.w	r2, #12288	; 0x3000
 8009520:	490b      	ldr	r1, [pc, #44]	; (8009550 <SerialUpload+0x64>)
 8009522:	480c      	ldr	r0, [pc, #48]	; (8009554 <SerialUpload+0x68>)
 8009524:	f001 fa66 	bl	800a9f4 <Ymodem_Transmit>
 8009528:	f88d 0007 	strb.w	r0, [sp, #7]
 800952c:	b128      	cbz	r0, 800953a <SerialUpload+0x4e>
 800952e:	480a      	ldr	r0, [pc, #40]	; (8009558 <SerialUpload+0x6c>)
 8009530:	f7ff ff3e 	bl	80093b0 <Serial_PutString>
 8009534:	4620      	mov	r0, r4
 8009536:	b002      	add	sp, #8
 8009538:	bd10      	pop	{r4, pc}
 800953a:	4808      	ldr	r0, [pc, #32]	; (800955c <SerialUpload+0x70>)
 800953c:	f7ff ff38 	bl	80093b0 <Serial_PutString>
 8009540:	2001      	movs	r0, #1
 8009542:	b002      	add	sp, #8
 8009544:	bd10      	pop	{r4, pc}
 8009546:	bf00      	nop
 8009548:	0800dd9c 	.word	0x0800dd9c
 800954c:	20000130 	.word	0x20000130
 8009550:	0800ddb8 	.word	0x0800ddb8
 8009554:	08004000 	.word	0x08004000
 8009558:	0800ddd0 	.word	0x0800ddd0
 800955c:	0800ddfc 	.word	0x0800ddfc

08009560 <MB85_HAL_WriteBytes>:
 8009560:	e92d 47f0 	stmdb	sp!, {r4, r5, r6, r7, r8, r9, sl, lr}
 8009564:	2400      	movs	r4, #0
 8009566:	f04f 080a 	mov.w	r8, #10
 800956a:	4607      	mov	r7, r0
 800956c:	468a      	mov	sl, r1
 800956e:	4616      	mov	r6, r2
 8009570:	461d      	mov	r5, r3
 8009572:	b084      	sub	sp, #16
 8009574:	f8bd 9030 	ldrh.w	r9, [sp, #48]	; 0x30
 8009578:	2301      	movs	r3, #1
 800957a:	4632      	mov	r2, r6
 800957c:	4651      	mov	r1, sl
 800957e:	4638      	mov	r0, r7
 8009580:	e9cd 9801 	strd	r9, r8, [sp, #4]
 8009584:	9500      	str	r5, [sp, #0]
 8009586:	f7fd fb1d 	bl	8006bc4 <HAL_I2C_Mem_Write>
 800958a:	b118      	cbz	r0, 8009594 <MB85_HAL_WriteBytes+0x34>
 800958c:	2c05      	cmp	r4, #5
 800958e:	d00a      	beq.n	80095a6 <MB85_HAL_WriteBytes+0x46>
 8009590:	3401      	adds	r4, #1
 8009592:	e7f1      	b.n	8009578 <MB85_HAL_WriteBytes+0x18>
 8009594:	201e      	movs	r0, #30
 8009596:	f7fc f833 	bl	8005600 <HAL_Delay>
 800959a:	1f60      	subs	r0, r4, #5
 800959c:	bf18      	it	ne
 800959e:	2001      	movne	r0, #1
 80095a0:	b004      	add	sp, #16
 80095a2:	e8bd 87f0 	ldmia.w	sp!, {r4, r5, r6, r7, r8, r9, sl, pc}
 80095a6:	201e      	movs	r0, #30
 80095a8:	f7fc f82a 	bl	8005600 <HAL_Delay>
 80095ac:	2000      	movs	r0, #0
 80095ae:	b004      	add	sp, #16
 80095b0:	e8bd 87f0 	ldmia.w	sp!, {r4, r5, r6, r7, r8, r9, sl, pc}

080095b4 <MB85_HAL_ReadBytes>:
 80095b4:	e92d 47f0 	stmdb	sp!, {r4, r5, r6, r7, r8, r9, sl, lr}
 80095b8:	2400      	movs	r4, #0
 80095ba:	f04f 080a 	mov.w	r8, #10
 80095be:	4607      	mov	r7, r0
 80095c0:	468a      	mov	sl, r1
 80095c2:	4616      	mov	r6, r2
 80095c4:	461d      	mov	r5, r3
 80095c6:	b084      	sub	sp, #16
 80095c8:	f8bd 9030 	ldrh.w	r9, [sp, #48]	; 0x30
 80095cc:	2301      	movs	r3, #1
 80095ce:	4632      	mov	r2, r6
 80095d0:	4651      	mov	r1, sl
 80095d2:	4638      	mov	r0, r7
 80095d4:	e9cd 9801 	strd	r9, r8, [sp, #4]
 80095d8:	9500      	str	r5, [sp, #0]
 80095da:	f7fd fc15 	bl	8006e08 <HAL_I2C_Mem_Read>
 80095de:	b138      	cbz	r0, 80095f0 <MB85_HAL_ReadBytes+0x3c>
 80095e0:	2c05      	cmp	r4, #5
 80095e2:	d001      	beq.n	80095e8 <MB85_HAL_ReadBytes+0x34>
 80095e4:	3401      	adds	r4, #1
 80095e6:	e7f1      	b.n	80095cc <MB85_HAL_ReadBytes+0x18>
 80095e8:	2000      	movs	r0, #0
 80095ea:	b004      	add	sp, #16
 80095ec:	e8bd 87f0 	ldmia.w	sp!, {r4, r5, r6, r7, r8, r9, sl, pc}
 80095f0:	1f60      	subs	r0, r4, #5
 80095f2:	bf18      	it	ne
 80095f4:	2001      	movne	r0, #1
 80095f6:	b004      	add	sp, #16
 80095f8:	e8bd 87f0 	ldmia.w	sp!, {r4, r5, r6, r7, r8, r9, sl, pc}

080095fc <TestNVRAM>:
 80095fc:	e92d 43f0 	stmdb	sp!, {r4, r5, r6, r7, r8, r9, lr}
 8009600:	4b34      	ldr	r3, [pc, #208]	; (80096d4 <TestNVRAM+0xd8>)
 8009602:	b0b7      	sub	sp, #220	; 0xdc
 8009604:	2260      	movs	r2, #96	; 0x60
 8009606:	2100      	movs	r1, #0
 8009608:	4604      	mov	r4, r0
 800960a:	a805      	add	r0, sp, #20
 800960c:	9304      	str	r3, [sp, #16]
 800960e:	f001 fde3 	bl	800b1d8 <memset>
 8009612:	4b31      	ldr	r3, [pc, #196]	; (80096d8 <TestNVRAM+0xdc>)
 8009614:	2260      	movs	r2, #96	; 0x60
 8009616:	2100      	movs	r1, #0
 8009618:	a81e      	add	r0, sp, #120	; 0x78
 800961a:	931d      	str	r3, [sp, #116]	; 0x74
 800961c:	f001 fddc 	bl	800b1d8 <memset>
 8009620:	2314      	movs	r3, #20
 8009622:	492e      	ldr	r1, [pc, #184]	; (80096dc <TestNVRAM+0xe0>)
 8009624:	461a      	mov	r2, r3
 8009626:	482e      	ldr	r0, [pc, #184]	; (80096e0 <TestNVRAM+0xe4>)
 8009628:	9300      	str	r3, [sp, #0]
 800962a:	2506      	movs	r5, #6
 800962c:	f04f 080a 	mov.w	r8, #10
 8009630:	2703      	movs	r7, #3
 8009632:	ae1d      	add	r6, sp, #116	; 0x74
 8009634:	f001 fdd8 	bl	800b1e8 <iprintf>
 8009638:	2301      	movs	r3, #1
 800963a:	f44f 7280 	mov.w	r2, #256	; 0x100
 800963e:	21a0      	movs	r1, #160	; 0xa0
 8009640:	4620      	mov	r0, r4
 8009642:	e9cd 7801 	strd	r7, r8, [sp, #4]
 8009646:	9600      	str	r6, [sp, #0]
 8009648:	f7fd fbde 	bl	8006e08 <HAL_I2C_Mem_Read>
 800964c:	b108      	cbz	r0, 8009652 <TestNVRAM+0x56>
 800964e:	3d01      	subs	r5, #1
 8009650:	d1f2      	bne.n	8009638 <TestNVRAM+0x3c>
 8009652:	f89d 1076 	ldrb.w	r1, [sp, #118]	; 0x76
 8009656:	f89d 3075 	ldrb.w	r3, [sp, #117]	; 0x75
 800965a:	9100      	str	r1, [sp, #0]
 800965c:	f89d 2074 	ldrb.w	r2, [sp, #116]	; 0x74
 8009660:	491e      	ldr	r1, [pc, #120]	; (80096dc <TestNVRAM+0xe0>)
 8009662:	481f      	ldr	r0, [pc, #124]	; (80096e0 <TestNVRAM+0xe4>)
 8009664:	f001 fdc0 	bl	800b1e8 <iprintf>
 8009668:	2506      	movs	r5, #6
 800966a:	f04f 090a 	mov.w	r9, #10
 800966e:	f04f 0803 	mov.w	r8, #3
 8009672:	af04      	add	r7, sp, #16
 8009674:	2301      	movs	r3, #1
 8009676:	f44f 7280 	mov.w	r2, #256	; 0x100
 800967a:	21a0      	movs	r1, #160	; 0xa0
 800967c:	4620      	mov	r0, r4
 800967e:	e9cd 8901 	strd	r8, r9, [sp, #4]
 8009682:	9700      	str	r7, [sp, #0]
 8009684:	f7fd fa9e 	bl	8006bc4 <HAL_I2C_Mem_Write>
 8009688:	b108      	cbz	r0, 800968e <TestNVRAM+0x92>
 800968a:	3d01      	subs	r5, #1
 800968c:	d1f2      	bne.n	8009674 <TestNVRAM+0x78>
 800968e:	201e      	movs	r0, #30
 8009690:	f7fb ffb6 	bl	8005600 <HAL_Delay>
 8009694:	2506      	movs	r5, #6
 8009696:	f04f 080a 	mov.w	r8, #10
 800969a:	2703      	movs	r7, #3
 800969c:	2301      	movs	r3, #1
 800969e:	f44f 7280 	mov.w	r2, #256	; 0x100
 80096a2:	21a0      	movs	r1, #160	; 0xa0
 80096a4:	4620      	mov	r0, r4
 80096a6:	e9cd 7801 	strd	r7, r8, [sp, #4]
 80096aa:	9600      	str	r6, [sp, #0]
 80096ac:	f7fd fbac 	bl	8006e08 <HAL_I2C_Mem_Read>
 80096b0:	b108      	cbz	r0, 80096b6 <TestNVRAM+0xba>
 80096b2:	3d01      	subs	r5, #1
 80096b4:	d1f2      	bne.n	800969c <TestNVRAM+0xa0>
 80096b6:	f89d 4076 	ldrb.w	r4, [sp, #118]	; 0x76
 80096ba:	f89d 3075 	ldrb.w	r3, [sp, #117]	; 0x75
 80096be:	f89d 2074 	ldrb.w	r2, [sp, #116]	; 0x74
 80096c2:	4906      	ldr	r1, [pc, #24]	; (80096dc <TestNVRAM+0xe0>)
 80096c4:	9400      	str	r4, [sp, #0]
 80096c6:	4806      	ldr	r0, [pc, #24]	; (80096e0 <TestNVRAM+0xe4>)
 80096c8:	f001 fd8e 	bl	800b1e8 <iprintf>
 80096cc:	b037      	add	sp, #220	; 0xdc
 80096ce:	e8bd 83f0 	ldmia.w	sp!, {r4, r5, r6, r7, r8, r9, pc}
 80096d2:	bf00      	nop
 80096d4:	000a0507 	.word	0x000a0507
 80096d8:	00141414 	.word	0x00141414
 80096dc:	0800de70 	.word	0x0800de70
 80096e0:	0800de1c 	.word	0x0800de1c

080096e4 <cmd_nvramRead>:
 80096e4:	e92d 43f0 	stmdb	sp!, {r4, r5, r6, r7, r8, r9, lr}
 80096e8:	2500      	movs	r5, #0
 80096ea:	b089      	sub	sp, #36	; 0x24
 80096ec:	2802      	cmp	r0, #2
 80096ee:	9504      	str	r5, [sp, #16]
 80096f0:	d01b      	beq.n	800972a <cmd_nvramRead+0x46>
 80096f2:	2406      	movs	r4, #6
 80096f4:	f04f 090a 	mov.w	r9, #10
 80096f8:	f04f 0801 	mov.w	r8, #1
 80096fc:	4f0f      	ldr	r7, [pc, #60]	; (800973c <cmd_nvramRead+0x58>)
 80096fe:	ae05      	add	r6, sp, #20
 8009700:	2301      	movs	r3, #1
 8009702:	462a      	mov	r2, r5
 8009704:	21a0      	movs	r1, #160	; 0xa0
 8009706:	4638      	mov	r0, r7
 8009708:	e9cd 8901 	strd	r8, r9, [sp, #4]
 800970c:	9600      	str	r6, [sp, #0]
 800970e:	f7fd fb7b 	bl	8006e08 <HAL_I2C_Mem_Read>
 8009712:	b108      	cbz	r0, 8009718 <cmd_nvramRead+0x34>
 8009714:	3c01      	subs	r4, #1
 8009716:	d1f3      	bne.n	8009700 <cmd_nvramRead+0x1c>
 8009718:	f89d 2014 	ldrb.w	r2, [sp, #20]
 800971c:	9904      	ldr	r1, [sp, #16]
 800971e:	4808      	ldr	r0, [pc, #32]	; (8009740 <cmd_nvramRead+0x5c>)
 8009720:	f001 fd62 	bl	800b1e8 <iprintf>
 8009724:	b009      	add	sp, #36	; 0x24
 8009726:	e8bd 83f0 	ldmia.w	sp!, {r4, r5, r6, r7, r8, r9, pc}
 800972a:	460b      	mov	r3, r1
 800972c:	aa04      	add	r2, sp, #16
 800972e:	4905      	ldr	r1, [pc, #20]	; (8009744 <cmd_nvramRead+0x60>)
 8009730:	6858      	ldr	r0, [r3, #4]
 8009732:	f001 fee9 	bl	800b508 <siscanf>
 8009736:	f8bd 5010 	ldrh.w	r5, [sp, #16]
 800973a:	e7da      	b.n	80096f2 <cmd_nvramRead+0xe>
 800973c:	20000224 	.word	0x20000224
 8009740:	0800de40 	.word	0x0800de40
 8009744:	0800de3c 	.word	0x0800de3c

08009748 <cmd_nvramWrite>:
 8009748:	2200      	movs	r2, #0
 800974a:	e92d 43f0 	stmdb	sp!, {r4, r5, r6, r7, r8, r9, lr}
 800974e:	2802      	cmp	r0, #2
 8009750:	b08b      	sub	sp, #44	; 0x2c
 8009752:	460c      	mov	r4, r1
 8009754:	e9cd 2205 	strd	r2, r2, [sp, #20]
 8009758:	d006      	beq.n	8009768 <cmd_nvramWrite+0x20>
 800975a:	2803      	cmp	r0, #3
 800975c:	d132      	bne.n	80097c4 <cmd_nvramWrite+0x7c>
 800975e:	491b      	ldr	r1, [pc, #108]	; (80097cc <cmd_nvramWrite+0x84>)
 8009760:	68a0      	ldr	r0, [r4, #8]
 8009762:	aa06      	add	r2, sp, #24
 8009764:	f001 fed0 	bl	800b508 <siscanf>
 8009768:	4918      	ldr	r1, [pc, #96]	; (80097cc <cmd_nvramWrite+0x84>)
 800976a:	aa05      	add	r2, sp, #20
 800976c:	6860      	ldr	r0, [r4, #4]
 800976e:	f001 fecb 	bl	800b508 <siscanf>
 8009772:	f89d 3018 	ldrb.w	r3, [sp, #24]
 8009776:	9905      	ldr	r1, [sp, #20]
 8009778:	461a      	mov	r2, r3
 800977a:	2406      	movs	r4, #6
 800977c:	f04f 090a 	mov.w	r9, #10
 8009780:	2601      	movs	r6, #1
 8009782:	4813      	ldr	r0, [pc, #76]	; (80097d0 <cmd_nvramWrite+0x88>)
 8009784:	f88d 301c 	strb.w	r3, [sp, #28]
 8009788:	4d12      	ldr	r5, [pc, #72]	; (80097d4 <cmd_nvramWrite+0x8c>)
 800978a:	f001 fd2d 	bl	800b1e8 <iprintf>
 800978e:	f8bd 8014 	ldrh.w	r8, [sp, #20]
 8009792:	af07      	add	r7, sp, #28
 8009794:	2301      	movs	r3, #1
 8009796:	4642      	mov	r2, r8
 8009798:	21a0      	movs	r1, #160	; 0xa0
 800979a:	4628      	mov	r0, r5
 800979c:	e9cd 6901 	strd	r6, r9, [sp, #4]
 80097a0:	9700      	str	r7, [sp, #0]
 80097a2:	f7fd fa0f 	bl	8006bc4 <HAL_I2C_Mem_Write>
 80097a6:	b108      	cbz	r0, 80097ac <cmd_nvramWrite+0x64>
 80097a8:	3c01      	subs	r4, #1
 80097aa:	d1f3      	bne.n	8009794 <cmd_nvramWrite+0x4c>
 80097ac:	201e      	movs	r0, #30
 80097ae:	f7fb ff27 	bl	8005600 <HAL_Delay>
 80097b2:	f89d 201c 	ldrb.w	r2, [sp, #28]
 80097b6:	9905      	ldr	r1, [sp, #20]
 80097b8:	4805      	ldr	r0, [pc, #20]	; (80097d0 <cmd_nvramWrite+0x88>)
 80097ba:	f001 fd15 	bl	800b1e8 <iprintf>
 80097be:	b00b      	add	sp, #44	; 0x2c
 80097c0:	e8bd 83f0 	ldmia.w	sp!, {r4, r5, r6, r7, r8, r9, pc}
 80097c4:	4611      	mov	r1, r2
 80097c6:	4613      	mov	r3, r2
 80097c8:	e7d7      	b.n	800977a <cmd_nvramWrite+0x32>
 80097ca:	bf00      	nop
 80097cc:	0800de3c 	.word	0x0800de3c
 80097d0:	0800de40 	.word	0x0800de40
 80097d4:	20000224 	.word	0x20000224

080097d8 <cmd_nvramDump>:
 80097d8:	e92d 43f0 	stmdb	sp!, {r4, r5, r6, r7, r8, r9, lr}
 80097dc:	2600      	movs	r6, #0
 80097de:	f44f 7780 	mov.w	r7, #256	; 0x100
 80097e2:	b0c7      	sub	sp, #284	; 0x11c
 80097e4:	2802      	cmp	r0, #2
 80097e6:	460c      	mov	r4, r1
 80097e8:	e9cd 6704 	strd	r6, r7, [sp, #16]
 80097ec:	d006      	beq.n	80097fc <cmd_nvramDump+0x24>
 80097ee:	2803      	cmp	r0, #3
 80097f0:	d10d      	bne.n	800980e <cmd_nvramDump+0x36>
 80097f2:	4925      	ldr	r1, [pc, #148]	; (8009888 <cmd_nvramDump+0xb0>)
 80097f4:	68a0      	ldr	r0, [r4, #8]
 80097f6:	aa05      	add	r2, sp, #20
 80097f8:	f001 fe86 	bl	800b508 <siscanf>
 80097fc:	4922      	ldr	r1, [pc, #136]	; (8009888 <cmd_nvramDump+0xb0>)
 80097fe:	6860      	ldr	r0, [r4, #4]
 8009800:	aa04      	add	r2, sp, #16
 8009802:	f001 fe81 	bl	800b508 <siscanf>
 8009806:	f8bd 6010 	ldrh.w	r6, [sp, #16]
 800980a:	f8bd 7014 	ldrh.w	r7, [sp, #20]
 800980e:	2406      	movs	r4, #6
 8009810:	f04f 090a 	mov.w	r9, #10
 8009814:	f8df 8074 	ldr.w	r8, [pc, #116]	; 800988c <cmd_nvramDump+0xb4>
 8009818:	ad06      	add	r5, sp, #24
 800981a:	2301      	movs	r3, #1
 800981c:	4632      	mov	r2, r6
 800981e:	21a0      	movs	r1, #160	; 0xa0
 8009820:	4640      	mov	r0, r8
 8009822:	e9cd 7901 	strd	r7, r9, [sp, #4]
 8009826:	9500      	str	r5, [sp, #0]
 8009828:	f7fd faee 	bl	8006e08 <HAL_I2C_Mem_Read>
 800982c:	b108      	cbz	r0, 8009832 <cmd_nvramDump+0x5a>
 800982e:	3c01      	subs	r4, #1
 8009830:	d1f3      	bne.n	800981a <cmd_nvramDump+0x42>
 8009832:	e9dd 1204 	ldrd	r1, r2, [sp, #16]
 8009836:	4816      	ldr	r0, [pc, #88]	; (8009890 <cmd_nvramDump+0xb8>)
 8009838:	f001 fcd6 	bl	800b1e8 <iprintf>
 800983c:	9b05      	ldr	r3, [sp, #20]
 800983e:	2b00      	cmp	r3, #0
 8009840:	dd13      	ble.n	800986a <cmd_nvramDump+0x92>
 8009842:	7829      	ldrb	r1, [r5, #0]
 8009844:	4813      	ldr	r0, [pc, #76]	; (8009894 <cmd_nvramDump+0xbc>)
 8009846:	f001 fccf 	bl	800b1e8 <iprintf>
 800984a:	9b05      	ldr	r3, [sp, #20]
 800984c:	2b01      	cmp	r3, #1
 800984e:	dd0c      	ble.n	800986a <cmd_nvramDump+0x92>
 8009850:	2401      	movs	r4, #1
 8009852:	4e10      	ldr	r6, [pc, #64]	; (8009894 <cmd_nvramDump+0xbc>)
 8009854:	4630      	mov	r0, r6
 8009856:	f815 1f01 	ldrb.w	r1, [r5, #1]!
 800985a:	3401      	adds	r4, #1
 800985c:	f001 fcc4 	bl	800b1e8 <iprintf>
 8009860:	0723      	lsls	r3, r4, #28
 8009862:	d006      	beq.n	8009872 <cmd_nvramDump+0x9a>
 8009864:	9b05      	ldr	r3, [sp, #20]
 8009866:	429c      	cmp	r4, r3
 8009868:	dbf4      	blt.n	8009854 <cmd_nvramDump+0x7c>
 800986a:	2000      	movs	r0, #0
 800986c:	b047      	add	sp, #284	; 0x11c
 800986e:	e8bd 83f0 	ldmia.w	sp!, {r4, r5, r6, r7, r8, r9, pc}
 8009872:	200a      	movs	r0, #10
 8009874:	f001 fcd0 	bl	800b218 <putchar>
 8009878:	9b05      	ldr	r3, [sp, #20]
 800987a:	42a3      	cmp	r3, r4
 800987c:	dcea      	bgt.n	8009854 <cmd_nvramDump+0x7c>
 800987e:	2000      	movs	r0, #0
 8009880:	b047      	add	sp, #284	; 0x11c
 8009882:	e8bd 83f0 	ldmia.w	sp!, {r4, r5, r6, r7, r8, r9, pc}
 8009886:	bf00      	nop
 8009888:	0800de3c 	.word	0x0800de3c
 800988c:	20000224 	.word	0x20000224
 8009890:	0800de54 	.word	0x0800de54
 8009894:	0800de68 	.word	0x0800de68

08009898 <RFMOccPaStart>:
 8009898:	b510      	push	{r4, lr}
 800989a:	2227      	movs	r2, #39	; 0x27
 800989c:	4908      	ldr	r1, [pc, #32]	; (80098c0 <RFMOccPaStart+0x28>)
 800989e:	4809      	ldr	r0, [pc, #36]	; (80098c4 <RFMOccPaStart+0x2c>)
 80098a0:	f001 fca2 	bl	800b1e8 <iprintf>
 80098a4:	4b08      	ldr	r3, [pc, #32]	; (80098c8 <RFMOccPaStart+0x30>)
 80098a6:	681c      	ldr	r4, [r3, #0]
 80098a8:	4620      	mov	r0, r4
 80098aa:	f7fa fcc5 	bl	8004238 <strlen>
 80098ae:	4602      	mov	r2, r0
 80098b0:	4621      	mov	r1, r4
 80098b2:	e8bd 4010 	ldmia.w	sp!, {r4, lr}
 80098b6:	2364      	movs	r3, #100	; 0x64
 80098b8:	4804      	ldr	r0, [pc, #16]	; (80098cc <RFMOccPaStart+0x34>)
 80098ba:	b292      	uxth	r2, r2
 80098bc:	f7fe bc7e 	b.w	80081bc <HAL_UART_Transmit>
 80098c0:	0800deb8 	.word	0x0800deb8
 80098c4:	0800db20 	.word	0x0800db20
 80098c8:	20000134 	.word	0x20000134
 80098cc:	20000310 	.word	0x20000310

080098d0 <RFMOccPaStop>:
 80098d0:	b510      	push	{r4, lr}
 80098d2:	2231      	movs	r2, #49	; 0x31
 80098d4:	4908      	ldr	r1, [pc, #32]	; (80098f8 <RFMOccPaStop+0x28>)
 80098d6:	4809      	ldr	r0, [pc, #36]	; (80098fc <RFMOccPaStop+0x2c>)
 80098d8:	f001 fc86 	bl	800b1e8 <iprintf>
 80098dc:	4b08      	ldr	r3, [pc, #32]	; (8009900 <RFMOccPaStop+0x30>)
 80098de:	681c      	ldr	r4, [r3, #0]
 80098e0:	4620      	mov	r0, r4
 80098e2:	f7fa fca9 	bl	8004238 <strlen>
 80098e6:	4602      	mov	r2, r0
 80098e8:	4621      	mov	r1, r4
 80098ea:	e8bd 4010 	ldmia.w	sp!, {r4, lr}
 80098ee:	2364      	movs	r3, #100	; 0x64
 80098f0:	4804      	ldr	r0, [pc, #16]	; (8009904 <RFMOccPaStop+0x34>)
 80098f2:	b292      	uxth	r2, r2
 80098f4:	f7fe bc62 	b.w	80081bc <HAL_UART_Transmit>
 80098f8:	0800dea8 	.word	0x0800dea8
 80098fc:	0800db20 	.word	0x0800db20
 8009900:	20000138 	.word	0x20000138
 8009904:	20000310 	.word	0x20000310

08009908 <cmd_occ>:
 8009908:	b538      	push	{r3, r4, r5, lr}
 800990a:	223c      	movs	r2, #60	; 0x3c
 800990c:	4929      	ldr	r1, [pc, #164]	; (80099b4 <cmd_occ+0xac>)
 800990e:	482a      	ldr	r0, [pc, #168]	; (80099b8 <cmd_occ+0xb0>)
 8009910:	f001 fc6a 	bl	800b1e8 <iprintf>
 8009914:	4b29      	ldr	r3, [pc, #164]	; (80099bc <cmd_occ+0xb4>)
 8009916:	781b      	ldrb	r3, [r3, #0]
 8009918:	bb1b      	cbnz	r3, 8009962 <cmd_occ+0x5a>
 800991a:	2101      	movs	r1, #1
 800991c:	4828      	ldr	r0, [pc, #160]	; (80099c0 <cmd_occ+0xb8>)
 800991e:	4c29      	ldr	r4, [pc, #164]	; (80099c4 <cmd_occ+0xbc>)
 8009920:	6803      	ldr	r3, [r0, #0]
 8009922:	4a29      	ldr	r2, [pc, #164]	; (80099c8 <cmd_occ+0xc0>)
 8009924:	440b      	add	r3, r1
 8009926:	fb04 2203 	mla	r2, r4, r3, r2
 800992a:	6003      	str	r3, [r0, #0]
 800992c:	4b27      	ldr	r3, [pc, #156]	; (80099cc <cmd_occ+0xc4>)
 800992e:	4d28      	ldr	r5, [pc, #160]	; (80099d0 <cmd_occ+0xc8>)
 8009930:	4c28      	ldr	r4, [pc, #160]	; (80099d4 <cmd_occ+0xcc>)
 8009932:	ebb3 0f72 	cmp.w	r3, r2, ror #1
 8009936:	6029      	str	r1, [r5, #0]
 8009938:	6021      	str	r1, [r4, #0]
 800993a:	d81b      	bhi.n	8009974 <cmd_occ+0x6c>
 800993c:	2227      	movs	r2, #39	; 0x27
 800993e:	4926      	ldr	r1, [pc, #152]	; (80099d8 <cmd_occ+0xd0>)
 8009940:	481d      	ldr	r0, [pc, #116]	; (80099b8 <cmd_occ+0xb0>)
 8009942:	f001 fc51 	bl	800b1e8 <iprintf>
 8009946:	4b25      	ldr	r3, [pc, #148]	; (80099dc <cmd_occ+0xd4>)
 8009948:	681c      	ldr	r4, [r3, #0]
 800994a:	4620      	mov	r0, r4
 800994c:	f7fa fc74 	bl	8004238 <strlen>
 8009950:	4602      	mov	r2, r0
 8009952:	2364      	movs	r3, #100	; 0x64
 8009954:	4621      	mov	r1, r4
 8009956:	b292      	uxth	r2, r2
 8009958:	4821      	ldr	r0, [pc, #132]	; (80099e0 <cmd_occ+0xd8>)
 800995a:	f7fe fc2f 	bl	80081bc <HAL_UART_Transmit>
 800995e:	2000      	movs	r0, #0
 8009960:	bd38      	pop	{r3, r4, r5, pc}
 8009962:	2200      	movs	r2, #0
 8009964:	4b1a      	ldr	r3, [pc, #104]	; (80099d0 <cmd_occ+0xc8>)
 8009966:	4c1b      	ldr	r4, [pc, #108]	; (80099d4 <cmd_occ+0xcc>)
 8009968:	601a      	str	r2, [r3, #0]
 800996a:	6823      	ldr	r3, [r4, #0]
 800996c:	2b01      	cmp	r3, #1
 800996e:	d00b      	beq.n	8009988 <cmd_occ+0x80>
 8009970:	2000      	movs	r0, #0
 8009972:	bd38      	pop	{r3, r4, r5, pc}
 8009974:	481b      	ldr	r0, [pc, #108]	; (80099e4 <cmd_occ+0xdc>)
 8009976:	f001 fc37 	bl	800b1e8 <iprintf>
 800997a:	682b      	ldr	r3, [r5, #0]
 800997c:	2b01      	cmp	r3, #1
 800997e:	d014      	beq.n	80099aa <cmd_occ+0xa2>
 8009980:	2b00      	cmp	r3, #0
 8009982:	d0f2      	beq.n	800996a <cmd_occ+0x62>
 8009984:	2000      	movs	r0, #0
 8009986:	bd38      	pop	{r3, r4, r5, pc}
 8009988:	4a17      	ldr	r2, [pc, #92]	; (80099e8 <cmd_occ+0xe0>)
 800998a:	4918      	ldr	r1, [pc, #96]	; (80099ec <cmd_occ+0xe4>)
 800998c:	6813      	ldr	r3, [r2, #0]
 800998e:	480a      	ldr	r0, [pc, #40]	; (80099b8 <cmd_occ+0xb0>)
 8009990:	3301      	adds	r3, #1
 8009992:	2b03      	cmp	r3, #3
 8009994:	6013      	str	r3, [r2, #0]
 8009996:	bfc8      	it	gt
 8009998:	2300      	movgt	r3, #0
 800999a:	f04f 0231 	mov.w	r2, #49	; 0x31
 800999e:	bfc8      	it	gt
 80099a0:	6023      	strgt	r3, [r4, #0]
 80099a2:	f001 fc21 	bl	800b1e8 <iprintf>
 80099a6:	4b12      	ldr	r3, [pc, #72]	; (80099f0 <cmd_occ+0xe8>)
 80099a8:	e7ce      	b.n	8009948 <cmd_occ+0x40>
 80099aa:	6823      	ldr	r3, [r4, #0]
 80099ac:	2b01      	cmp	r3, #1
 80099ae:	d1df      	bne.n	8009970 <cmd_occ+0x68>
 80099b0:	e7c4      	b.n	800993c <cmd_occ+0x34>
 80099b2:	bf00      	nop
 80099b4:	0800dea0 	.word	0x0800dea0
 80099b8:	0800db20 	.word	0x0800db20
 80099bc:	20000004 	.word	0x20000004
 80099c0:	20000508 	.word	0x20000508
 80099c4:	cccccccd 	.word	0xcccccccd
 80099c8:	19999998 	.word	0x19999998
 80099cc:	19999999 	.word	0x19999999
 80099d0:	20000504 	.word	0x20000504
 80099d4:	2000050c 	.word	0x2000050c
 80099d8:	0800deb8 	.word	0x0800deb8
 80099dc:	20000134 	.word	0x20000134
 80099e0:	20000310 	.word	0x20000310
 80099e4:	0800de7c 	.word	0x0800de7c
 80099e8:	20000510 	.word	0x20000510
 80099ec:	0800dea8 	.word	0x0800dea8
 80099f0:	20000138 	.word	0x20000138

080099f4 <SendSD_3>:
 80099f4:	4b47      	ldr	r3, [pc, #284]	; (8009b14 <SendSD_3+0x120>)
 80099f6:	b570      	push	{r4, r5, r6, lr}
 80099f8:	681b      	ldr	r3, [r3, #0]
 80099fa:	2500      	movs	r5, #0
 80099fc:	fab3 f383 	clz	r3, r3
 8009a00:	f243 1002 	movw	r0, #12546	; 0x3102
 8009a04:	4a44      	ldr	r2, [pc, #272]	; (8009b18 <SendSD_3+0x124>)
 8009a06:	4c45      	ldr	r4, [pc, #276]	; (8009b1c <SendSD_3+0x128>)
 8009a08:	7812      	ldrb	r2, [r2, #0]
 8009a0a:	7824      	ldrb	r4, [r4, #0]
 8009a0c:	f002 0201 	and.w	r2, r2, #1
 8009a10:	095b      	lsrs	r3, r3, #5
 8009a12:	ea42 0244 	orr.w	r2, r2, r4, lsl #1
 8009a16:	021b      	lsls	r3, r3, #8
 8009a18:	b086      	sub	sp, #24
 8009a1a:	f002 0203 	and.w	r2, r2, #3
 8009a1e:	f043 0322 	orr.w	r3, r3, #34	; 0x22
 8009a22:	460c      	mov	r4, r1
 8009a24:	9502      	str	r5, [sp, #8]
 8009a26:	e9cd 5503 	strd	r5, r5, [sp, #12]
 8009a2a:	f8ad 3006 	strh.w	r3, [sp, #6]
 8009a2e:	f88d 2008 	strb.w	r2, [sp, #8]
 8009a32:	f88d 5014 	strb.w	r5, [sp, #20]
 8009a36:	f8ad 0004 	strh.w	r0, [sp, #4]
 8009a3a:	f7fa ff91 	bl	8004960 <getChargeRate>
 8009a3e:	2103      	movs	r1, #3
 8009a40:	2602      	movs	r6, #2
 8009a42:	f89d 3007 	ldrb.w	r3, [sp, #7]
 8009a46:	f89d 2005 	ldrb.w	r2, [sp, #5]
 8009a4a:	f88d 5010 	strb.w	r5, [sp, #16]
 8009a4e:	405a      	eors	r2, r3
 8009a50:	f89d 5008 	ldrb.w	r5, [sp, #8]
 8009a54:	f89d 3006 	ldrb.w	r3, [sp, #6]
 8009a58:	f88d 1012 	strb.w	r1, [sp, #18]
 8009a5c:	f89d 100a 	ldrb.w	r1, [sp, #10]
 8009a60:	406b      	eors	r3, r5
 8009a62:	404b      	eors	r3, r1
 8009a64:	f89d 100c 	ldrb.w	r1, [sp, #12]
 8009a68:	b2c0      	uxtb	r0, r0
 8009a6a:	404b      	eors	r3, r1
 8009a6c:	f89d 100e 	ldrb.w	r1, [sp, #14]
 8009a70:	f89d 500b 	ldrb.w	r5, [sp, #11]
 8009a74:	404b      	eors	r3, r1
 8009a76:	f083 0303 	eor.w	r3, r3, #3
 8009a7a:	4042      	eors	r2, r0
 8009a7c:	f88d 3014 	strb.w	r3, [sp, #20]
 8009a80:	f89d 300d 	ldrb.w	r3, [sp, #13]
 8009a84:	406a      	eors	r2, r5
 8009a86:	f89d 1011 	ldrb.w	r1, [sp, #17]
 8009a8a:	4053      	eors	r3, r2
 8009a8c:	4073      	eors	r3, r6
 8009a8e:	404b      	eors	r3, r1
 8009a90:	f88d 0009 	strb.w	r0, [sp, #9]
 8009a94:	f88d 600f 	strb.w	r6, [sp, #15]
 8009a98:	f88d 3013 	strb.w	r3, [sp, #19]
 8009a9c:	f7fb fdaa 	bl	80055f4 <HAL_GetTick>
 8009aa0:	2c03      	cmp	r4, #3
 8009aa2:	d01a      	beq.n	8009ada <SendSD_3+0xe6>
 8009aa4:	2c05      	cmp	r4, #5
 8009aa6:	d026      	beq.n	8009af6 <SendSD_3+0x102>
 8009aa8:	f7fb fda4 	bl	80055f4 <HAL_GetTick>
 8009aac:	f7fb fda2 	bl	80055f4 <HAL_GetTick>
 8009ab0:	4a1b      	ldr	r2, [pc, #108]	; (8009b20 <SendSD_3+0x12c>)
 8009ab2:	4601      	mov	r1, r0
 8009ab4:	481b      	ldr	r0, [pc, #108]	; (8009b24 <SendSD_3+0x130>)
 8009ab6:	4e1c      	ldr	r6, [pc, #112]	; (8009b28 <SendSD_3+0x134>)
 8009ab8:	f10d 0403 	add.w	r4, sp, #3
 8009abc:	ad05      	add	r5, sp, #20
 8009abe:	f001 fb93 	bl	800b1e8 <iprintf>
 8009ac2:	f814 1f01 	ldrb.w	r1, [r4, #1]!
 8009ac6:	4630      	mov	r0, r6
 8009ac8:	f001 fb8e 	bl	800b1e8 <iprintf>
 8009acc:	42ac      	cmp	r4, r5
 8009ace:	d1f8      	bne.n	8009ac2 <SendSD_3+0xce>
 8009ad0:	200a      	movs	r0, #10
 8009ad2:	f001 fba1 	bl	800b218 <putchar>
 8009ad6:	b006      	add	sp, #24
 8009ad8:	bd70      	pop	{r4, r5, r6, pc}
 8009ada:	4814      	ldr	r0, [pc, #80]	; (8009b2c <SendSD_3+0x138>)
 8009adc:	f000 fb72 	bl	800a1c4 <rts_high>
 8009ae0:	f64f 73ff 	movw	r3, #65535	; 0xffff
 8009ae4:	2211      	movs	r2, #17
 8009ae6:	a901      	add	r1, sp, #4
 8009ae8:	4810      	ldr	r0, [pc, #64]	; (8009b2c <SendSD_3+0x138>)
 8009aea:	f7fe fb67 	bl	80081bc <HAL_UART_Transmit>
 8009aee:	480f      	ldr	r0, [pc, #60]	; (8009b2c <SendSD_3+0x138>)
 8009af0:	f000 fb8c 	bl	800a20c <rts_low>
 8009af4:	e7d8      	b.n	8009aa8 <SendSD_3+0xb4>
 8009af6:	480e      	ldr	r0, [pc, #56]	; (8009b30 <SendSD_3+0x13c>)
 8009af8:	f000 fb64 	bl	800a1c4 <rts_high>
 8009afc:	f64f 73ff 	movw	r3, #65535	; 0xffff
 8009b00:	2211      	movs	r2, #17
 8009b02:	a901      	add	r1, sp, #4
 8009b04:	480a      	ldr	r0, [pc, #40]	; (8009b30 <SendSD_3+0x13c>)
 8009b06:	f7fe fb59 	bl	80081bc <HAL_UART_Transmit>
 8009b0a:	4809      	ldr	r0, [pc, #36]	; (8009b30 <SendSD_3+0x13c>)
 8009b0c:	f000 fb7e 	bl	800a20c <rts_low>
 8009b10:	e7ca      	b.n	8009aa8 <SendSD_3+0xb4>
 8009b12:	bf00      	nop
 8009b14:	200003f8 	.word	0x200003f8
 8009b18:	20000414 	.word	0x20000414
 8009b1c:	200003f3 	.word	0x200003f3
 8009b20:	0800dec8 	.word	0x0800dec8
 8009b24:	0800ded0 	.word	0x0800ded0
 8009b28:	0800dedc 	.word	0x0800dedc
 8009b2c:	20000350 	.word	0x20000350
 8009b30:	20000390 	.word	0x20000390

08009b34 <ProcessFrameSDR.part.0>:
 8009b34:	b510      	push	{r4, lr}
 8009b36:	4604      	mov	r4, r0
 8009b38:	2103      	movs	r1, #3
 8009b3a:	b0c0      	sub	sp, #256	; 0x100
 8009b3c:	f7ff ff5a 	bl	80099f4 <SendSD_3>
 8009b40:	7a63      	ldrb	r3, [r4, #9]
 8009b42:	07db      	lsls	r3, r3, #31
 8009b44:	d515      	bpl.n	8009b72 <ProcessFrameSDR.part.0+0x3e>
 8009b46:	7aa1      	ldrb	r1, [r4, #10]
 8009b48:	4816      	ldr	r0, [pc, #88]	; (8009ba4 <ProcessFrameSDR.part.0+0x70>)
 8009b4a:	f001 fb4d 	bl	800b1e8 <iprintf>
 8009b4e:	7aa2      	ldrb	r2, [r4, #10]
 8009b50:	4915      	ldr	r1, [pc, #84]	; (8009ba8 <ProcessFrameSDR.part.0+0x74>)
 8009b52:	4668      	mov	r0, sp
 8009b54:	f001 fcb8 	bl	800b4c8 <siprintf>
 8009b58:	4668      	mov	r0, sp
 8009b5a:	f001 fb45 	bl	800b1e8 <iprintf>
 8009b5e:	4668      	mov	r0, sp
 8009b60:	f7fa fb6a 	bl	8004238 <strlen>
 8009b64:	4602      	mov	r2, r0
 8009b66:	2364      	movs	r3, #100	; 0x64
 8009b68:	4669      	mov	r1, sp
 8009b6a:	4810      	ldr	r0, [pc, #64]	; (8009bac <ProcessFrameSDR.part.0+0x78>)
 8009b6c:	b292      	uxth	r2, r2
 8009b6e:	f7fe fb25 	bl	80081bc <HAL_UART_Transmit>
 8009b72:	7ae3      	ldrb	r3, [r4, #11]
 8009b74:	4a0e      	ldr	r2, [pc, #56]	; (8009bb0 <ProcessFrameSDR.part.0+0x7c>)
 8009b76:	2b01      	cmp	r3, #1
 8009b78:	d00b      	beq.n	8009b92 <ProcessFrameSDR.part.0+0x5e>
 8009b7a:	6811      	ldr	r1, [r2, #0]
 8009b7c:	2901      	cmp	r1, #1
 8009b7e:	d001      	beq.n	8009b84 <ProcessFrameSDR.part.0+0x50>
 8009b80:	b040      	add	sp, #256	; 0x100
 8009b82:	bd10      	pop	{r4, pc}
 8009b84:	2b00      	cmp	r3, #0
 8009b86:	d1fb      	bne.n	8009b80 <ProcessFrameSDR.part.0+0x4c>
 8009b88:	6013      	str	r3, [r2, #0]
 8009b8a:	f7ff fea1 	bl	80098d0 <RFMOccPaStop>
 8009b8e:	4809      	ldr	r0, [pc, #36]	; (8009bb4 <ProcessFrameSDR.part.0+0x80>)
 8009b90:	e003      	b.n	8009b9a <ProcessFrameSDR.part.0+0x66>
 8009b92:	6013      	str	r3, [r2, #0]
 8009b94:	f7ff fe80 	bl	8009898 <RFMOccPaStart>
 8009b98:	4807      	ldr	r0, [pc, #28]	; (8009bb8 <ProcessFrameSDR.part.0+0x84>)
 8009b9a:	b040      	add	sp, #256	; 0x100
 8009b9c:	e8bd 4010 	ldmia.w	sp!, {r4, lr}
 8009ba0:	f001 bbbc 	b.w	800b31c <puts>
 8009ba4:	0800dee4 	.word	0x0800dee4
 8009ba8:	0800def8 	.word	0x0800def8
 8009bac:	20000310 	.word	0x20000310
 8009bb0:	200006a0 	.word	0x200006a0
 8009bb4:	0800df14 	.word	0x0800df14
 8009bb8:	0800df00 	.word	0x0800df00

08009bbc <SendSD_5>:
 8009bbc:	4b26      	ldr	r3, [pc, #152]	; (8009c58 <SendSD_5+0x9c>)
 8009bbe:	2200      	movs	r2, #0
 8009bc0:	681b      	ldr	r3, [r3, #0]
 8009bc2:	b510      	push	{r4, lr}
 8009bc4:	fab3 f383 	clz	r3, r3
 8009bc8:	f243 2402 	movw	r4, #12802	; 0x3202
 8009bcc:	095b      	lsrs	r3, r3, #5
 8009bce:	b084      	sub	sp, #16
 8009bd0:	021b      	lsls	r3, r3, #8
 8009bd2:	e9cd 2201 	strd	r2, r2, [sp, #4]
 8009bd6:	1a9a      	subs	r2, r3, r2
 8009bd8:	bf18      	it	ne
 8009bda:	2201      	movne	r2, #1
 8009bdc:	2003      	movs	r0, #3
 8009bde:	f8ad 4000 	strh.w	r4, [sp]
 8009be2:	460c      	mov	r4, r1
 8009be4:	f043 0322 	orr.w	r3, r3, #34	; 0x22
 8009be8:	f8ad 3002 	strh.w	r3, [sp, #2]
 8009bec:	f082 0331 	eor.w	r3, r2, #49	; 0x31
 8009bf0:	021b      	lsls	r3, r3, #8
 8009bf2:	f043 0322 	orr.w	r3, r3, #34	; 0x22
 8009bf6:	ba5b      	rev16	r3, r3
 8009bf8:	f88d 000b 	strb.w	r0, [sp, #11]
 8009bfc:	f8ad 300c 	strh.w	r3, [sp, #12]
 8009c00:	f7fb fcf8 	bl	80055f4 <HAL_GetTick>
 8009c04:	2c03      	cmp	r4, #3
 8009c06:	d005      	beq.n	8009c14 <SendSD_5+0x58>
 8009c08:	2c05      	cmp	r4, #5
 8009c0a:	d014      	beq.n	8009c36 <SendSD_5+0x7a>
 8009c0c:	f7fb fcf2 	bl	80055f4 <HAL_GetTick>
 8009c10:	b004      	add	sp, #16
 8009c12:	bd10      	pop	{r4, pc}
 8009c14:	4811      	ldr	r0, [pc, #68]	; (8009c5c <SendSD_5+0xa0>)
 8009c16:	f000 fad5 	bl	800a1c4 <rts_high>
 8009c1a:	f64f 73ff 	movw	r3, #65535	; 0xffff
 8009c1e:	220e      	movs	r2, #14
 8009c20:	4669      	mov	r1, sp
 8009c22:	480e      	ldr	r0, [pc, #56]	; (8009c5c <SendSD_5+0xa0>)
 8009c24:	f7fe faca 	bl	80081bc <HAL_UART_Transmit>
 8009c28:	480c      	ldr	r0, [pc, #48]	; (8009c5c <SendSD_5+0xa0>)
 8009c2a:	f000 faef 	bl	800a20c <rts_low>
 8009c2e:	f7fb fce1 	bl	80055f4 <HAL_GetTick>
 8009c32:	b004      	add	sp, #16
 8009c34:	bd10      	pop	{r4, pc}
 8009c36:	480a      	ldr	r0, [pc, #40]	; (8009c60 <SendSD_5+0xa4>)
 8009c38:	f000 fac4 	bl	800a1c4 <rts_high>
 8009c3c:	f64f 73ff 	movw	r3, #65535	; 0xffff
 8009c40:	220e      	movs	r2, #14
 8009c42:	4669      	mov	r1, sp
 8009c44:	4806      	ldr	r0, [pc, #24]	; (8009c60 <SendSD_5+0xa4>)
 8009c46:	f7fe fab9 	bl	80081bc <HAL_UART_Transmit>
 8009c4a:	4805      	ldr	r0, [pc, #20]	; (8009c60 <SendSD_5+0xa4>)
 8009c4c:	f000 fade 	bl	800a20c <rts_low>
 8009c50:	f7fb fcd0 	bl	80055f4 <HAL_GetTick>
 8009c54:	b004      	add	sp, #16
 8009c56:	bd10      	pop	{r4, pc}
 8009c58:	200003f8 	.word	0x200003f8
 8009c5c:	20000350 	.word	0x20000350
 8009c60:	20000390 	.word	0x20000390

08009c64 <ProcessFrame>:
 8009c64:	b530      	push	{r4, r5, lr}
 8009c66:	2910      	cmp	r1, #16
 8009c68:	460c      	mov	r4, r1
 8009c6a:	4605      	mov	r5, r0
 8009c6c:	b083      	sub	sp, #12
 8009c6e:	d00e      	beq.n	8009c8e <ProcessFrame+0x2a>
 8009c70:	290e      	cmp	r1, #14
 8009c72:	d102      	bne.n	8009c7a <ProcessFrame+0x16>
 8009c74:	7843      	ldrb	r3, [r0, #1]
 8009c76:	2b22      	cmp	r3, #34	; 0x22
 8009c78:	d01c      	beq.n	8009cb4 <ProcessFrame+0x50>
 8009c7a:	4623      	mov	r3, r4
 8009c7c:	f44f 72e2 	mov.w	r2, #452	; 0x1c4
 8009c80:	491d      	ldr	r1, [pc, #116]	; (8009cf8 <ProcessFrame+0x94>)
 8009c82:	481e      	ldr	r0, [pc, #120]	; (8009cfc <ProcessFrame+0x98>)
 8009c84:	b003      	add	sp, #12
 8009c86:	e8bd 4030 	ldmia.w	sp!, {r4, r5, lr}
 8009c8a:	f001 baad 	b.w	800b1e8 <iprintf>
 8009c8e:	7843      	ldrb	r3, [r0, #1]
 8009c90:	2b21      	cmp	r3, #33	; 0x21
 8009c92:	d1f2      	bne.n	8009c7a <ProcessFrame+0x16>
 8009c94:	f7fb fcae 	bl	80055f4 <HAL_GetTick>
 8009c98:	f44f 73da 	mov.w	r3, #436	; 0x1b4
 8009c9c:	4601      	mov	r1, r0
 8009c9e:	4a16      	ldr	r2, [pc, #88]	; (8009cf8 <ProcessFrame+0x94>)
 8009ca0:	9400      	str	r4, [sp, #0]
 8009ca2:	4817      	ldr	r0, [pc, #92]	; (8009d00 <ProcessFrame+0x9c>)
 8009ca4:	f001 faa0 	bl	800b1e8 <iprintf>
 8009ca8:	4628      	mov	r0, r5
 8009caa:	b003      	add	sp, #12
 8009cac:	e8bd 4030 	ldmia.w	sp!, {r4, r5, lr}
 8009cb0:	f7ff bf40 	b.w	8009b34 <ProcessFrameSDR.part.0>
 8009cb4:	f7fb fc9e 	bl	80055f4 <HAL_GetTick>
 8009cb8:	f240 13b9 	movw	r3, #441	; 0x1b9
 8009cbc:	4601      	mov	r1, r0
 8009cbe:	4a0e      	ldr	r2, [pc, #56]	; (8009cf8 <ProcessFrame+0x94>)
 8009cc0:	9400      	str	r4, [sp, #0]
 8009cc2:	4810      	ldr	r0, [pc, #64]	; (8009d04 <ProcessFrame+0xa0>)
 8009cc4:	f001 fa90 	bl	800b1e8 <iprintf>
 8009cc8:	4c0f      	ldr	r4, [pc, #60]	; (8009d08 <ProcessFrame+0xa4>)
 8009cca:	2105      	movs	r1, #5
 8009ccc:	4628      	mov	r0, r5
 8009cce:	f7ff ff75 	bl	8009bbc <SendSD_5>
 8009cd2:	78eb      	ldrb	r3, [r5, #3]
 8009cd4:	6822      	ldr	r2, [r4, #0]
 8009cd6:	f003 0101 	and.w	r1, r3, #1
 8009cda:	4291      	cmp	r1, r2
 8009cdc:	d009      	beq.n	8009cf2 <ProcessFrame+0x8e>
 8009cde:	07db      	lsls	r3, r3, #31
 8009ce0:	bf4c      	ite	mi
 8009ce2:	480a      	ldrmi	r0, [pc, #40]	; (8009d0c <ProcessFrame+0xa8>)
 8009ce4:	480a      	ldrpl	r0, [pc, #40]	; (8009d10 <ProcessFrame+0xac>)
 8009ce6:	f001 fb19 	bl	800b31c <puts>
 8009cea:	78eb      	ldrb	r3, [r5, #3]
 8009cec:	f003 0301 	and.w	r3, r3, #1
 8009cf0:	6023      	str	r3, [r4, #0]
 8009cf2:	b003      	add	sp, #12
 8009cf4:	bd30      	pop	{r4, r5, pc}
 8009cf6:	bf00      	nop
 8009cf8:	0800e044 	.word	0x0800e044
 8009cfc:	0800df94 	.word	0x0800df94
 8009d00:	0800df4c 	.word	0x0800df4c
 8009d04:	0800df70 	.word	0x0800df70
 8009d08:	2000013c 	.word	0x2000013c
 8009d0c:	0800df28 	.word	0x0800df28
 8009d10:	0800df3c 	.word	0x0800df3c

08009d14 <InitRS485>:
 8009d14:	b570      	push	{r4, r5, r6, lr}
 8009d16:	2480      	movs	r4, #128	; 0x80
 8009d18:	2100      	movs	r1, #0
 8009d1a:	4622      	mov	r2, r4
 8009d1c:	4810      	ldr	r0, [pc, #64]	; (8009d60 <InitRS485+0x4c>)
 8009d1e:	f001 fa5b 	bl	800b1d8 <memset>
 8009d22:	4e10      	ldr	r6, [pc, #64]	; (8009d64 <InitRS485+0x50>)
 8009d24:	4622      	mov	r2, r4
 8009d26:	2100      	movs	r1, #0
 8009d28:	480f      	ldr	r0, [pc, #60]	; (8009d68 <InitRS485+0x54>)
 8009d2a:	f001 fa55 	bl	800b1d8 <memset>
 8009d2e:	4d0f      	ldr	r5, [pc, #60]	; (8009d6c <InitRS485+0x58>)
 8009d30:	4622      	mov	r2, r4
 8009d32:	2100      	movs	r1, #0
 8009d34:	480e      	ldr	r0, [pc, #56]	; (8009d70 <InitRS485+0x5c>)
 8009d36:	f001 fa4f 	bl	800b1d8 <memset>
 8009d3a:	4630      	mov	r0, r6
 8009d3c:	f000 fa66 	bl	800a20c <rts_low>
 8009d40:	4628      	mov	r0, r5
 8009d42:	f000 fa63 	bl	800a20c <rts_low>
 8009d46:	2201      	movs	r2, #1
 8009d48:	4630      	mov	r0, r6
 8009d4a:	490a      	ldr	r1, [pc, #40]	; (8009d74 <InitRS485+0x60>)
 8009d4c:	f7fe fb40 	bl	80083d0 <HAL_UART_Receive_IT>
 8009d50:	4628      	mov	r0, r5
 8009d52:	e8bd 4070 	ldmia.w	sp!, {r4, r5, r6, lr}
 8009d56:	2201      	movs	r2, #1
 8009d58:	4907      	ldr	r1, [pc, #28]	; (8009d78 <InitRS485+0x64>)
 8009d5a:	f7fe bb39 	b.w	80083d0 <HAL_UART_Receive_IT>
 8009d5e:	bf00      	nop
 8009d60:	20000520 	.word	0x20000520
 8009d64:	20000350 	.word	0x20000350
 8009d68:	200005a0 	.word	0x200005a0
 8009d6c:	20000390 	.word	0x20000390
 8009d70:	20000620 	.word	0x20000620
 8009d74:	200006e8 	.word	0x200006e8
 8009d78:	200006f0 	.word	0x200006f0

08009d7c <LoopProcRS485_3ch>:
 8009d7c:	e92d 4ff0 	stmdb	sp!, {r4, r5, r6, r7, r8, r9, sl, fp, lr}
 8009d80:	b085      	sub	sp, #20
 8009d82:	f7fb fc37 	bl	80055f4 <HAL_GetTick>
 8009d86:	4607      	mov	r7, r0
 8009d88:	f8df 8120 	ldr.w	r8, [pc, #288]	; 8009eac <LoopProcRS485_3ch+0x130>
 8009d8c:	f8df a120 	ldr.w	sl, [pc, #288]	; 8009eb0 <LoopProcRS485_3ch+0x134>
 8009d90:	f8df 9120 	ldr.w	r9, [pc, #288]	; 8009eb4 <LoopProcRS485_3ch+0x138>
 8009d94:	4640      	mov	r0, r8
 8009d96:	f7fe fcc1 	bl	800871c <qcount>
 8009d9a:	2800      	cmp	r0, #0
 8009d9c:	dd34      	ble.n	8009e08 <LoopProcRS485_3ch+0x8c>
 8009d9e:	f8d9 3000 	ldr.w	r3, [r9]
 8009da2:	f8ca 7000 	str.w	r7, [sl]
 8009da6:	1afb      	subs	r3, r7, r3
 8009da8:	2b04      	cmp	r3, #4
 8009daa:	dc39      	bgt.n	8009e20 <LoopProcRS485_3ch+0xa4>
 8009dac:	463b      	mov	r3, r7
 8009dae:	4e42      	ldr	r6, [pc, #264]	; (8009eb8 <LoopProcRS485_3ch+0x13c>)
 8009db0:	4640      	mov	r0, r8
 8009db2:	f8c9 3000 	str.w	r3, [r9]
 8009db6:	f7fe fcd7 	bl	8008768 <qget>
 8009dba:	6833      	ldr	r3, [r6, #0]
 8009dbc:	4d3f      	ldr	r5, [pc, #252]	; (8009ebc <LoopProcRS485_3ch+0x140>)
 8009dbe:	1c5c      	adds	r4, r3, #1
 8009dc0:	2c02      	cmp	r4, #2
 8009dc2:	6034      	str	r4, [r6, #0]
 8009dc4:	54e8      	strb	r0, [r5, r3]
 8009dc6:	d034      	beq.n	8009e32 <LoopProcRS485_3ch+0xb6>
 8009dc8:	2c03      	cmp	r4, #3
 8009dca:	d03a      	beq.n	8009e42 <LoopProcRS485_3ch+0xc6>
 8009dcc:	2c01      	cmp	r4, #1
 8009dce:	d034      	beq.n	8009e3a <LoopProcRS485_3ch+0xbe>
 8009dd0:	2c0f      	cmp	r4, #15
 8009dd2:	d9df      	bls.n	8009d94 <LoopProcRS485_3ch+0x18>
 8009dd4:	7b6a      	ldrb	r2, [r5, #13]
 8009dd6:	2a03      	cmp	r2, #3
 8009dd8:	d037      	beq.n	8009e4a <LoopProcRS485_3ch+0xce>
 8009dda:	f7fb fc0b 	bl	80055f4 <HAL_GetTick>
 8009dde:	2310      	movs	r3, #16
 8009de0:	9301      	str	r3, [sp, #4]
 8009de2:	6833      	ldr	r3, [r6, #0]
 8009de4:	4601      	mov	r1, r0
 8009de6:	9300      	str	r3, [sp, #0]
 8009de8:	4a35      	ldr	r2, [pc, #212]	; (8009ec0 <LoopProcRS485_3ch+0x144>)
 8009dea:	f240 233f 	movw	r3, #575	; 0x23f
 8009dee:	4835      	ldr	r0, [pc, #212]	; (8009ec4 <LoopProcRS485_3ch+0x148>)
 8009df0:	f001 f9fa 	bl	800b1e8 <iprintf>
 8009df4:	4640      	mov	r0, r8
 8009df6:	f7fe fc8d 	bl	8008714 <init_queue>
 8009dfa:	2300      	movs	r3, #0
 8009dfc:	4640      	mov	r0, r8
 8009dfe:	6033      	str	r3, [r6, #0]
 8009e00:	f7fe fc8c 	bl	800871c <qcount>
 8009e04:	2800      	cmp	r0, #0
 8009e06:	dcca      	bgt.n	8009d9e <LoopProcRS485_3ch+0x22>
 8009e08:	4b2f      	ldr	r3, [pc, #188]	; (8009ec8 <LoopProcRS485_3ch+0x14c>)
 8009e0a:	681b      	ldr	r3, [r3, #0]
 8009e0c:	1afb      	subs	r3, r7, r3
 8009e0e:	2b09      	cmp	r3, #9
 8009e10:	dd03      	ble.n	8009e1a <LoopProcRS485_3ch+0x9e>
 8009e12:	4b2e      	ldr	r3, [pc, #184]	; (8009ecc <LoopProcRS485_3ch+0x150>)
 8009e14:	681a      	ldr	r2, [r3, #0]
 8009e16:	2a01      	cmp	r2, #1
 8009e18:	d03b      	beq.n	8009e92 <LoopProcRS485_3ch+0x116>
 8009e1a:	b005      	add	sp, #20
 8009e1c:	e8bd 8ff0 	ldmia.w	sp!, {r4, r5, r6, r7, r8, r9, sl, fp, pc}
 8009e20:	2300      	movs	r3, #0
 8009e22:	4e25      	ldr	r6, [pc, #148]	; (8009eb8 <LoopProcRS485_3ch+0x13c>)
 8009e24:	2043      	movs	r0, #67	; 0x43
 8009e26:	6033      	str	r3, [r6, #0]
 8009e28:	f001 f9f6 	bl	800b218 <putchar>
 8009e2c:	f8da 3000 	ldr.w	r3, [sl]
 8009e30:	e7be      	b.n	8009db0 <LoopProcRS485_3ch+0x34>
 8009e32:	786b      	ldrb	r3, [r5, #1]
 8009e34:	2b21      	cmp	r3, #33	; 0x21
 8009e36:	d1e0      	bne.n	8009dfa <LoopProcRS485_3ch+0x7e>
 8009e38:	e7ac      	b.n	8009d94 <LoopProcRS485_3ch+0x18>
 8009e3a:	782b      	ldrb	r3, [r5, #0]
 8009e3c:	2b02      	cmp	r3, #2
 8009e3e:	d1dc      	bne.n	8009dfa <LoopProcRS485_3ch+0x7e>
 8009e40:	e7a8      	b.n	8009d94 <LoopProcRS485_3ch+0x18>
 8009e42:	78ab      	ldrb	r3, [r5, #2]
 8009e44:	2b11      	cmp	r3, #17
 8009e46:	d1d8      	bne.n	8009dfa <LoopProcRS485_3ch+0x7e>
 8009e48:	e7a4      	b.n	8009d94 <LoopProcRS485_3ch+0x18>
 8009e4a:	2101      	movs	r1, #1
 8009e4c:	4a1f      	ldr	r2, [pc, #124]	; (8009ecc <LoopProcRS485_3ch+0x150>)
 8009e4e:	9303      	str	r3, [sp, #12]
 8009e50:	6011      	str	r1, [r2, #0]
 8009e52:	4b1d      	ldr	r3, [pc, #116]	; (8009ec8 <LoopProcRS485_3ch+0x14c>)
 8009e54:	4a1e      	ldr	r2, [pc, #120]	; (8009ed0 <LoopProcRS485_3ch+0x154>)
 8009e56:	601f      	str	r7, [r3, #0]
 8009e58:	6014      	str	r4, [r2, #0]
 8009e5a:	f7fb fbcb 	bl	80055f4 <HAL_GetTick>
 8009e5e:	4a1d      	ldr	r2, [pc, #116]	; (8009ed4 <LoopProcRS485_3ch+0x158>)
 8009e60:	4601      	mov	r1, r0
 8009e62:	481d      	ldr	r0, [pc, #116]	; (8009ed8 <LoopProcRS485_3ch+0x15c>)
 8009e64:	f001 f9c0 	bl	800b1e8 <iprintf>
 8009e68:	2c00      	cmp	r4, #0
 8009e6a:	9b03      	ldr	r3, [sp, #12]
 8009e6c:	dd0b      	ble.n	8009e86 <LoopProcRS485_3ch+0x10a>
 8009e6e:	18eb      	adds	r3, r5, r3
 8009e70:	4c1a      	ldr	r4, [pc, #104]	; (8009edc <LoopProcRS485_3ch+0x160>)
 8009e72:	9303      	str	r3, [sp, #12]
 8009e74:	7829      	ldrb	r1, [r5, #0]
 8009e76:	4620      	mov	r0, r4
 8009e78:	f001 f9b6 	bl	800b1e8 <iprintf>
 8009e7c:	9a03      	ldr	r2, [sp, #12]
 8009e7e:	42aa      	cmp	r2, r5
 8009e80:	f105 0501 	add.w	r5, r5, #1
 8009e84:	d1f6      	bne.n	8009e74 <LoopProcRS485_3ch+0xf8>
 8009e86:	200a      	movs	r0, #10
 8009e88:	f001 f9c6 	bl	800b218 <putchar>
 8009e8c:	2300      	movs	r3, #0
 8009e8e:	6033      	str	r3, [r6, #0]
 8009e90:	e780      	b.n	8009d94 <LoopProcRS485_3ch+0x18>
 8009e92:	4a0d      	ldr	r2, [pc, #52]	; (8009ec8 <LoopProcRS485_3ch+0x14c>)
 8009e94:	2400      	movs	r4, #0
 8009e96:	6017      	str	r7, [r2, #0]
 8009e98:	2203      	movs	r2, #3
 8009e9a:	490d      	ldr	r1, [pc, #52]	; (8009ed0 <LoopProcRS485_3ch+0x154>)
 8009e9c:	4807      	ldr	r0, [pc, #28]	; (8009ebc <LoopProcRS485_3ch+0x140>)
 8009e9e:	6809      	ldr	r1, [r1, #0]
 8009ea0:	601c      	str	r4, [r3, #0]
 8009ea2:	b005      	add	sp, #20
 8009ea4:	e8bd 4ff0 	ldmia.w	sp!, {r4, r5, r6, r7, r8, r9, sl, fp, lr}
 8009ea8:	f7ff bedc 	b.w	8009c64 <ProcessFrame>
 8009eac:	20000918 	.word	0x20000918
 8009eb0:	200006c8 	.word	0x200006c8
 8009eb4:	200006d0 	.word	0x200006d0
 8009eb8:	20000514 	.word	0x20000514
 8009ebc:	20000520 	.word	0x20000520
 8009ec0:	0800e030 	.word	0x0800e030
 8009ec4:	0800dfbc 	.word	0x0800dfbc
 8009ec8:	200006b8 	.word	0x200006b8
 8009ecc:	200006a4 	.word	0x200006a4
 8009ed0:	200006b0 	.word	0x200006b0
 8009ed4:	0800dfb4 	.word	0x0800dfb4
 8009ed8:	0800ded0 	.word	0x0800ded0
 8009edc:	0800dedc 	.word	0x0800dedc

08009ee0 <LoopProcRS485_5ch>:
 8009ee0:	e92d 4ff0 	stmdb	sp!, {r4, r5, r6, r7, r8, r9, sl, fp, lr}
 8009ee4:	b085      	sub	sp, #20
 8009ee6:	f7fb fb85 	bl	80055f4 <HAL_GetTick>
 8009eea:	4607      	mov	r7, r0
 8009eec:	f8df 8120 	ldr.w	r8, [pc, #288]	; 800a010 <LoopProcRS485_5ch+0x130>
 8009ef0:	f8df a120 	ldr.w	sl, [pc, #288]	; 800a014 <LoopProcRS485_5ch+0x134>
 8009ef4:	f8df 9120 	ldr.w	r9, [pc, #288]	; 800a018 <LoopProcRS485_5ch+0x138>
 8009ef8:	4640      	mov	r0, r8
 8009efa:	f7fe fc0f 	bl	800871c <qcount>
 8009efe:	2800      	cmp	r0, #0
 8009f00:	dd34      	ble.n	8009f6c <LoopProcRS485_5ch+0x8c>
 8009f02:	f8d9 3000 	ldr.w	r3, [r9]
 8009f06:	f8ca 7000 	str.w	r7, [sl]
 8009f0a:	1afb      	subs	r3, r7, r3
 8009f0c:	2b04      	cmp	r3, #4
 8009f0e:	dc39      	bgt.n	8009f84 <LoopProcRS485_5ch+0xa4>
 8009f10:	463b      	mov	r3, r7
 8009f12:	4e42      	ldr	r6, [pc, #264]	; (800a01c <LoopProcRS485_5ch+0x13c>)
 8009f14:	4640      	mov	r0, r8
 8009f16:	f8c9 3000 	str.w	r3, [r9]
 8009f1a:	f7fe fc25 	bl	8008768 <qget>
 8009f1e:	6833      	ldr	r3, [r6, #0]
 8009f20:	4d3f      	ldr	r5, [pc, #252]	; (800a020 <LoopProcRS485_5ch+0x140>)
 8009f22:	1c5c      	adds	r4, r3, #1
 8009f24:	2c02      	cmp	r4, #2
 8009f26:	6034      	str	r4, [r6, #0]
 8009f28:	54e8      	strb	r0, [r5, r3]
 8009f2a:	d034      	beq.n	8009f96 <LoopProcRS485_5ch+0xb6>
 8009f2c:	2c03      	cmp	r4, #3
 8009f2e:	d03a      	beq.n	8009fa6 <LoopProcRS485_5ch+0xc6>
 8009f30:	2c01      	cmp	r4, #1
 8009f32:	d034      	beq.n	8009f9e <LoopProcRS485_5ch+0xbe>
 8009f34:	2c0d      	cmp	r4, #13
 8009f36:	d9df      	bls.n	8009ef8 <LoopProcRS485_5ch+0x18>
 8009f38:	7aea      	ldrb	r2, [r5, #11]
 8009f3a:	2a03      	cmp	r2, #3
 8009f3c:	d037      	beq.n	8009fae <LoopProcRS485_5ch+0xce>
 8009f3e:	f7fb fb59 	bl	80055f4 <HAL_GetTick>
 8009f42:	230e      	movs	r3, #14
 8009f44:	9301      	str	r3, [sp, #4]
 8009f46:	6833      	ldr	r3, [r6, #0]
 8009f48:	4601      	mov	r1, r0
 8009f4a:	9300      	str	r3, [sp, #0]
 8009f4c:	4a35      	ldr	r2, [pc, #212]	; (800a024 <LoopProcRS485_5ch+0x144>)
 8009f4e:	f240 239e 	movw	r3, #670	; 0x29e
 8009f52:	4835      	ldr	r0, [pc, #212]	; (800a028 <LoopProcRS485_5ch+0x148>)
 8009f54:	f001 f948 	bl	800b1e8 <iprintf>
 8009f58:	4640      	mov	r0, r8
 8009f5a:	f7fe fbdb 	bl	8008714 <init_queue>
 8009f5e:	2300      	movs	r3, #0
 8009f60:	4640      	mov	r0, r8
 8009f62:	6033      	str	r3, [r6, #0]
 8009f64:	f7fe fbda 	bl	800871c <qcount>
 8009f68:	2800      	cmp	r0, #0
 8009f6a:	dcca      	bgt.n	8009f02 <LoopProcRS485_5ch+0x22>
 8009f6c:	4b2f      	ldr	r3, [pc, #188]	; (800a02c <LoopProcRS485_5ch+0x14c>)
 8009f6e:	681b      	ldr	r3, [r3, #0]
 8009f70:	1afb      	subs	r3, r7, r3
 8009f72:	2b09      	cmp	r3, #9
 8009f74:	dd03      	ble.n	8009f7e <LoopProcRS485_5ch+0x9e>
 8009f76:	4b2e      	ldr	r3, [pc, #184]	; (800a030 <LoopProcRS485_5ch+0x150>)
 8009f78:	681a      	ldr	r2, [r3, #0]
 8009f7a:	2a01      	cmp	r2, #1
 8009f7c:	d03b      	beq.n	8009ff6 <LoopProcRS485_5ch+0x116>
 8009f7e:	b005      	add	sp, #20
 8009f80:	e8bd 8ff0 	ldmia.w	sp!, {r4, r5, r6, r7, r8, r9, sl, fp, pc}
 8009f84:	2300      	movs	r3, #0
 8009f86:	4e25      	ldr	r6, [pc, #148]	; (800a01c <LoopProcRS485_5ch+0x13c>)
 8009f88:	2043      	movs	r0, #67	; 0x43
 8009f8a:	6033      	str	r3, [r6, #0]
 8009f8c:	f001 f944 	bl	800b218 <putchar>
 8009f90:	f8da 3000 	ldr.w	r3, [sl]
 8009f94:	e7be      	b.n	8009f14 <LoopProcRS485_5ch+0x34>
 8009f96:	786b      	ldrb	r3, [r5, #1]
 8009f98:	2b22      	cmp	r3, #34	; 0x22
 8009f9a:	d1e0      	bne.n	8009f5e <LoopProcRS485_5ch+0x7e>
 8009f9c:	e7ac      	b.n	8009ef8 <LoopProcRS485_5ch+0x18>
 8009f9e:	782b      	ldrb	r3, [r5, #0]
 8009fa0:	2b02      	cmp	r3, #2
 8009fa2:	d1dc      	bne.n	8009f5e <LoopProcRS485_5ch+0x7e>
 8009fa4:	e7a8      	b.n	8009ef8 <LoopProcRS485_5ch+0x18>
 8009fa6:	78ab      	ldrb	r3, [r5, #2]
 8009fa8:	2b11      	cmp	r3, #17
 8009faa:	d1d8      	bne.n	8009f5e <LoopProcRS485_5ch+0x7e>
 8009fac:	e7a4      	b.n	8009ef8 <LoopProcRS485_5ch+0x18>
 8009fae:	2101      	movs	r1, #1
 8009fb0:	4a1f      	ldr	r2, [pc, #124]	; (800a030 <LoopProcRS485_5ch+0x150>)
 8009fb2:	9303      	str	r3, [sp, #12]
 8009fb4:	6011      	str	r1, [r2, #0]
 8009fb6:	4b1d      	ldr	r3, [pc, #116]	; (800a02c <LoopProcRS485_5ch+0x14c>)
 8009fb8:	4a1e      	ldr	r2, [pc, #120]	; (800a034 <LoopProcRS485_5ch+0x154>)
 8009fba:	601f      	str	r7, [r3, #0]
 8009fbc:	6014      	str	r4, [r2, #0]
 8009fbe:	f7fb fb19 	bl	80055f4 <HAL_GetTick>
 8009fc2:	4a1d      	ldr	r2, [pc, #116]	; (800a038 <LoopProcRS485_5ch+0x158>)
 8009fc4:	4601      	mov	r1, r0
 8009fc6:	481d      	ldr	r0, [pc, #116]	; (800a03c <LoopProcRS485_5ch+0x15c>)
 8009fc8:	f001 f90e 	bl	800b1e8 <iprintf>
 8009fcc:	2c00      	cmp	r4, #0
 8009fce:	9b03      	ldr	r3, [sp, #12]
 8009fd0:	dd0b      	ble.n	8009fea <LoopProcRS485_5ch+0x10a>
 8009fd2:	18eb      	adds	r3, r5, r3
 8009fd4:	4c1a      	ldr	r4, [pc, #104]	; (800a040 <LoopProcRS485_5ch+0x160>)
 8009fd6:	9303      	str	r3, [sp, #12]
 8009fd8:	7829      	ldrb	r1, [r5, #0]
 8009fda:	4620      	mov	r0, r4
 8009fdc:	f001 f904 	bl	800b1e8 <iprintf>
 8009fe0:	9a03      	ldr	r2, [sp, #12]
 8009fe2:	42aa      	cmp	r2, r5
 8009fe4:	f105 0501 	add.w	r5, r5, #1
 8009fe8:	d1f6      	bne.n	8009fd8 <LoopProcRS485_5ch+0xf8>
 8009fea:	200a      	movs	r0, #10
 8009fec:	f001 f914 	bl	800b218 <putchar>
 8009ff0:	2300      	movs	r3, #0
 8009ff2:	6033      	str	r3, [r6, #0]
 8009ff4:	e780      	b.n	8009ef8 <LoopProcRS485_5ch+0x18>
 8009ff6:	4a0d      	ldr	r2, [pc, #52]	; (800a02c <LoopProcRS485_5ch+0x14c>)
 8009ff8:	2400      	movs	r4, #0
 8009ffa:	6017      	str	r7, [r2, #0]
 8009ffc:	2205      	movs	r2, #5
 8009ffe:	490d      	ldr	r1, [pc, #52]	; (800a034 <LoopProcRS485_5ch+0x154>)
 800a000:	4807      	ldr	r0, [pc, #28]	; (800a020 <LoopProcRS485_5ch+0x140>)
 800a002:	6809      	ldr	r1, [r1, #0]
 800a004:	601c      	str	r4, [r3, #0]
 800a006:	b005      	add	sp, #20
 800a008:	e8bd 4ff0 	ldmia.w	sp!, {r4, r5, r6, r7, r8, r9, sl, fp, lr}
 800a00c:	f7ff be2a 	b.w	8009c64 <ProcessFrame>
 800a010:	20000a20 	.word	0x20000a20
 800a014:	200006c4 	.word	0x200006c4
 800a018:	200006cc 	.word	0x200006cc
 800a01c:	2000051c 	.word	0x2000051c
 800a020:	20000620 	.word	0x20000620
 800a024:	0800e054 	.word	0x0800e054
 800a028:	0800dff0 	.word	0x0800dff0
 800a02c:	200006c0 	.word	0x200006c0
 800a030:	200006ac 	.word	0x200006ac
 800a034:	200006b4 	.word	0x200006b4
 800a038:	0800dfb4 	.word	0x0800dfb4
 800a03c:	0800ded0 	.word	0x0800ded0
 800a040:	0800dedc 	.word	0x0800dedc

0800a044 <LoopProcRFM_2ch>:
 800a044:	e92d 4ff8 	stmdb	sp!, {r3, r4, r5, r6, r7, r8, r9, sl, fp, lr}
 800a048:	f7fb fad4 	bl	80055f4 <HAL_GetTick>
 800a04c:	4680      	mov	r8, r0
 800a04e:	4f39      	ldr	r7, [pc, #228]	; (800a134 <LoopProcRFM_2ch+0xf0>)
 800a050:	f8df 90e4 	ldr.w	r9, [pc, #228]	; 800a138 <LoopProcRFM_2ch+0xf4>
 800a054:	4e39      	ldr	r6, [pc, #228]	; (800a13c <LoopProcRFM_2ch+0xf8>)
 800a056:	f8df a0e8 	ldr.w	sl, [pc, #232]	; 800a140 <LoopProcRFM_2ch+0xfc>
 800a05a:	4638      	mov	r0, r7
 800a05c:	f7fe fb5e 	bl	800871c <qcount>
 800a060:	2800      	cmp	r0, #0
 800a062:	dd23      	ble.n	800a0ac <LoopProcRFM_2ch+0x68>
 800a064:	f8d9 3000 	ldr.w	r3, [r9]
 800a068:	eba8 0303 	sub.w	r3, r8, r3
 800a06c:	2b04      	cmp	r3, #4
 800a06e:	dd29      	ble.n	800a0c4 <LoopProcRFM_2ch+0x80>
 800a070:	2300      	movs	r3, #0
 800a072:	4638      	mov	r0, r7
 800a074:	6033      	str	r3, [r6, #0]
 800a076:	f8c9 8000 	str.w	r8, [r9]
 800a07a:	4d32      	ldr	r5, [pc, #200]	; (800a144 <LoopProcRFM_2ch+0x100>)
 800a07c:	f7fe fb74 	bl	8008768 <qget>
 800a080:	6833      	ldr	r3, [r6, #0]
 800a082:	f103 0b01 	add.w	fp, r3, #1
 800a086:	f1bb 0f06 	cmp.w	fp, #6
 800a08a:	f8c6 b000 	str.w	fp, [r6]
 800a08e:	54e8      	strb	r0, [r5, r3]
 800a090:	d9e3      	bls.n	800a05a <LoopProcRFM_2ch+0x16>
 800a092:	682b      	ldr	r3, [r5, #0]
 800a094:	4553      	cmp	r3, sl
 800a096:	d01d      	beq.n	800a0d4 <LoopProcRFM_2ch+0x90>
 800a098:	4638      	mov	r0, r7
 800a09a:	f7fe fb3b 	bl	8008714 <init_queue>
 800a09e:	2300      	movs	r3, #0
 800a0a0:	4638      	mov	r0, r7
 800a0a2:	6033      	str	r3, [r6, #0]
 800a0a4:	f7fe fb3a 	bl	800871c <qcount>
 800a0a8:	2800      	cmp	r0, #0
 800a0aa:	dcdb      	bgt.n	800a064 <LoopProcRFM_2ch+0x20>
 800a0ac:	4a26      	ldr	r2, [pc, #152]	; (800a148 <LoopProcRFM_2ch+0x104>)
 800a0ae:	6813      	ldr	r3, [r2, #0]
 800a0b0:	eba8 0303 	sub.w	r3, r8, r3
 800a0b4:	2b09      	cmp	r3, #9
 800a0b6:	dd03      	ble.n	800a0c0 <LoopProcRFM_2ch+0x7c>
 800a0b8:	4b24      	ldr	r3, [pc, #144]	; (800a14c <LoopProcRFM_2ch+0x108>)
 800a0ba:	6819      	ldr	r1, [r3, #0]
 800a0bc:	2901      	cmp	r1, #1
 800a0be:	d033      	beq.n	800a128 <LoopProcRFM_2ch+0xe4>
 800a0c0:	e8bd 8ff8 	ldmia.w	sp!, {r3, r4, r5, r6, r7, r8, r9, sl, fp, pc}
 800a0c4:	4638      	mov	r0, r7
 800a0c6:	f8c9 8000 	str.w	r8, [r9]
 800a0ca:	4d1e      	ldr	r5, [pc, #120]	; (800a144 <LoopProcRFM_2ch+0x100>)
 800a0cc:	f7fe fb4c 	bl	8008768 <qget>
 800a0d0:	6833      	ldr	r3, [r6, #0]
 800a0d2:	e7d6      	b.n	800a082 <LoopProcRFM_2ch+0x3e>
 800a0d4:	f644 625f 	movw	r2, #20063	; 0x4e5f
 800a0d8:	4b1d      	ldr	r3, [pc, #116]	; (800a150 <LoopProcRFM_2ch+0x10c>)
 800a0da:	8819      	ldrh	r1, [r3, #0]
 800a0dc:	4291      	cmp	r1, r2
 800a0de:	d1db      	bne.n	800a098 <LoopProcRFM_2ch+0x54>
 800a0e0:	789b      	ldrb	r3, [r3, #2]
 800a0e2:	2b47      	cmp	r3, #71	; 0x47
 800a0e4:	d1d8      	bne.n	800a098 <LoopProcRFM_2ch+0x54>
 800a0e6:	4a1b      	ldr	r2, [pc, #108]	; (800a154 <LoopProcRFM_2ch+0x110>)
 800a0e8:	7813      	ldrb	r3, [r2, #0]
 800a0ea:	2b05      	cmp	r3, #5
 800a0ec:	d801      	bhi.n	800a0f2 <LoopProcRFM_2ch+0xae>
 800a0ee:	3301      	adds	r3, #1
 800a0f0:	7013      	strb	r3, [r2, #0]
 800a0f2:	f7fb fa7f 	bl	80055f4 <HAL_GetTick>
 800a0f6:	4a18      	ldr	r2, [pc, #96]	; (800a158 <LoopProcRFM_2ch+0x114>)
 800a0f8:	4601      	mov	r1, r0
 800a0fa:	4818      	ldr	r0, [pc, #96]	; (800a15c <LoopProcRFM_2ch+0x118>)
 800a0fc:	f001 f874 	bl	800b1e8 <iprintf>
 800a100:	f1bb 0f00 	cmp.w	fp, #0
 800a104:	dd0a      	ble.n	800a11c <LoopProcRFM_2ch+0xd8>
 800a106:	445d      	add	r5, fp
 800a108:	4c0e      	ldr	r4, [pc, #56]	; (800a144 <LoopProcRFM_2ch+0x100>)
 800a10a:	f8df b054 	ldr.w	fp, [pc, #84]	; 800a160 <LoopProcRFM_2ch+0x11c>
 800a10e:	f814 1b01 	ldrb.w	r1, [r4], #1
 800a112:	4658      	mov	r0, fp
 800a114:	f001 f868 	bl	800b1e8 <iprintf>
 800a118:	42ac      	cmp	r4, r5
 800a11a:	d1f8      	bne.n	800a10e <LoopProcRFM_2ch+0xca>
 800a11c:	200a      	movs	r0, #10
 800a11e:	f001 f87b 	bl	800b218 <putchar>
 800a122:	2300      	movs	r3, #0
 800a124:	6033      	str	r3, [r6, #0]
 800a126:	e798      	b.n	800a05a <LoopProcRFM_2ch+0x16>
 800a128:	2100      	movs	r1, #0
 800a12a:	f8c2 8000 	str.w	r8, [r2]
 800a12e:	6019      	str	r1, [r3, #0]
 800a130:	e8bd 8ff8 	ldmia.w	sp!, {r3, r4, r5, r6, r7, r8, r9, sl, fp, pc}
 800a134:	20000810 	.word	0x20000810
 800a138:	200006d4 	.word	0x200006d4
 800a13c:	20000518 	.word	0x20000518
 800a140:	49535352 	.word	0x49535352
 800a144:	200005a0 	.word	0x200005a0
 800a148:	200006bc 	.word	0x200006bc
 800a14c:	200006a8 	.word	0x200006a8
 800a150:	200005a4 	.word	0x200005a4
 800a154:	20000415 	.word	0x20000415
 800a158:	0800dfb4 	.word	0x0800dfb4
 800a15c:	0800ded0 	.word	0x0800ded0
 800a160:	0800dedc 	.word	0x0800dedc

0800a164 <cmd_sd>:
 800a164:	b510      	push	{r4, lr}
 800a166:	2400      	movs	r4, #0
 800a168:	b084      	sub	sp, #16
 800a16a:	f240 320f 	movw	r2, #783	; 0x30f
 800a16e:	4907      	ldr	r1, [pc, #28]	; (800a18c <cmd_sd+0x28>)
 800a170:	4807      	ldr	r0, [pc, #28]	; (800a190 <cmd_sd+0x2c>)
 800a172:	f001 f839 	bl	800b1e8 <iprintf>
 800a176:	4668      	mov	r0, sp
 800a178:	2103      	movs	r1, #3
 800a17a:	e9cd 4400 	strd	r4, r4, [sp]
 800a17e:	e9cd 4402 	strd	r4, r4, [sp, #8]
 800a182:	f7ff fc37 	bl	80099f4 <SendSD_3>
 800a186:	4620      	mov	r0, r4
 800a188:	b004      	add	sp, #16
 800a18a:	bd10      	pop	{r4, pc}
 800a18c:	0800e028 	.word	0x0800e028
 800a190:	0800db20 	.word	0x0800db20

0800a194 <cmd_sd2>:
 800a194:	b510      	push	{r4, lr}
 800a196:	2400      	movs	r4, #0
 800a198:	b084      	sub	sp, #16
 800a19a:	f240 321d 	movw	r2, #797	; 0x31d
 800a19e:	4907      	ldr	r1, [pc, #28]	; (800a1bc <cmd_sd2+0x28>)
 800a1a0:	4807      	ldr	r0, [pc, #28]	; (800a1c0 <cmd_sd2+0x2c>)
 800a1a2:	f001 f821 	bl	800b1e8 <iprintf>
 800a1a6:	4668      	mov	r0, sp
 800a1a8:	2105      	movs	r1, #5
 800a1aa:	e9cd 4400 	strd	r4, r4, [sp]
 800a1ae:	e9cd 4402 	strd	r4, r4, [sp, #8]
 800a1b2:	f7ff fd03 	bl	8009bbc <SendSD_5>
 800a1b6:	4620      	mov	r0, r4
 800a1b8:	b004      	add	sp, #16
 800a1ba:	bd10      	pop	{r4, pc}
 800a1bc:	0800e020 	.word	0x0800e020
 800a1c0:	0800db20 	.word	0x0800db20

0800a1c4 <rts_high>:
 800a1c4:	b510      	push	{r4, lr}
 800a1c6:	4604      	mov	r4, r0
 800a1c8:	f7fe fa70 	bl	80086ac <HAL_HalfDuplex_EnableTransmitter>
 800a1cc:	4a0b      	ldr	r2, [pc, #44]	; (800a1fc <rts_high+0x38>)
 800a1ce:	6823      	ldr	r3, [r4, #0]
 800a1d0:	4293      	cmp	r3, r2
 800a1d2:	d003      	beq.n	800a1dc <rts_high+0x18>
 800a1d4:	4a0a      	ldr	r2, [pc, #40]	; (800a200 <rts_high+0x3c>)
 800a1d6:	4293      	cmp	r3, r2
 800a1d8:	d009      	beq.n	800a1ee <rts_high+0x2a>
 800a1da:	bd10      	pop	{r4, pc}
 800a1dc:	2201      	movs	r2, #1
 800a1de:	2108      	movs	r1, #8
 800a1e0:	4808      	ldr	r0, [pc, #32]	; (800a204 <rts_high+0x40>)
 800a1e2:	f7fc f9a1 	bl	8006528 <HAL_GPIO_WritePin>
 800a1e6:	6823      	ldr	r3, [r4, #0]
 800a1e8:	4a05      	ldr	r2, [pc, #20]	; (800a200 <rts_high+0x3c>)
 800a1ea:	4293      	cmp	r3, r2
 800a1ec:	d1f5      	bne.n	800a1da <rts_high+0x16>
 800a1ee:	e8bd 4010 	ldmia.w	sp!, {r4, lr}
 800a1f2:	2201      	movs	r2, #1
 800a1f4:	4804      	ldr	r0, [pc, #16]	; (800a208 <rts_high+0x44>)
 800a1f6:	4611      	mov	r1, r2
 800a1f8:	f7fc b996 	b.w	8006528 <HAL_GPIO_WritePin>
 800a1fc:	40004800 	.word	0x40004800
 800a200:	40005000 	.word	0x40005000
 800a204:	40011000 	.word	0x40011000
 800a208:	40010800 	.word	0x40010800

0800a20c <rts_low>:
 800a20c:	4a10      	ldr	r2, [pc, #64]	; (800a250 <rts_low+0x44>)
 800a20e:	6803      	ldr	r3, [r0, #0]
 800a210:	b510      	push	{r4, lr}
 800a212:	4293      	cmp	r3, r2
 800a214:	4604      	mov	r4, r0
 800a216:	d007      	beq.n	800a228 <rts_low+0x1c>
 800a218:	4a0e      	ldr	r2, [pc, #56]	; (800a254 <rts_low+0x48>)
 800a21a:	4293      	cmp	r3, r2
 800a21c:	d00d      	beq.n	800a23a <rts_low+0x2e>
 800a21e:	4620      	mov	r0, r4
 800a220:	e8bd 4010 	ldmia.w	sp!, {r4, lr}
 800a224:	f7fe ba5c 	b.w	80086e0 <HAL_HalfDuplex_EnableReceiver>
 800a228:	2200      	movs	r2, #0
 800a22a:	2108      	movs	r1, #8
 800a22c:	480a      	ldr	r0, [pc, #40]	; (800a258 <rts_low+0x4c>)
 800a22e:	f7fc f97b 	bl	8006528 <HAL_GPIO_WritePin>
 800a232:	6823      	ldr	r3, [r4, #0]
 800a234:	4a07      	ldr	r2, [pc, #28]	; (800a254 <rts_low+0x48>)
 800a236:	4293      	cmp	r3, r2
 800a238:	d1f1      	bne.n	800a21e <rts_low+0x12>
 800a23a:	4808      	ldr	r0, [pc, #32]	; (800a25c <rts_low+0x50>)
 800a23c:	2200      	movs	r2, #0
 800a23e:	2101      	movs	r1, #1
 800a240:	f7fc f972 	bl	8006528 <HAL_GPIO_WritePin>
 800a244:	4620      	mov	r0, r4
 800a246:	e8bd 4010 	ldmia.w	sp!, {r4, lr}
 800a24a:	f7fe ba49 	b.w	80086e0 <HAL_HalfDuplex_EnableReceiver>
 800a24e:	bf00      	nop
 800a250:	40004800 	.word	0x40004800
 800a254:	40005000 	.word	0x40005000
 800a258:	40011000 	.word	0x40011000
 800a25c:	40010800 	.word	0x40010800

0800a260 <__io_putchar>:
 800a260:	b510      	push	{r4, lr}
 800a262:	4c0d      	ldr	r4, [pc, #52]	; (800a298 <__io_putchar+0x38>)
 800a264:	b082      	sub	sp, #8
 800a266:	6821      	ldr	r1, [r4, #0]
 800a268:	9001      	str	r0, [sp, #4]
 800a26a:	b149      	cbz	r1, 800a280 <__io_putchar+0x20>
 800a26c:	4608      	mov	r0, r1
 800a26e:	f64f 73ff 	movw	r3, #65535	; 0xffff
 800a272:	2201      	movs	r2, #1
 800a274:	a901      	add	r1, sp, #4
 800a276:	f7fd ffa1 	bl	80081bc <HAL_UART_Transmit>
 800a27a:	9801      	ldr	r0, [sp, #4]
 800a27c:	280a      	cmp	r0, #10
 800a27e:	d001      	beq.n	800a284 <__io_putchar+0x24>
 800a280:	b002      	add	sp, #8
 800a282:	bd10      	pop	{r4, pc}
 800a284:	f64f 73ff 	movw	r3, #65535	; 0xffff
 800a288:	2201      	movs	r2, #1
 800a28a:	4904      	ldr	r1, [pc, #16]	; (800a29c <__io_putchar+0x3c>)
 800a28c:	6820      	ldr	r0, [r4, #0]
 800a28e:	f7fd ff95 	bl	80081bc <HAL_UART_Transmit>
 800a292:	9801      	ldr	r0, [sp, #4]
 800a294:	b002      	add	sp, #8
 800a296:	bd10      	pop	{r4, pc}
 800a298:	20000b28 	.word	0x20000b28
 800a29c:	0800dd60 	.word	0x0800dd60

0800a2a0 <__io_getchar>:
 800a2a0:	b508      	push	{r3, lr}
 800a2a2:	4805      	ldr	r0, [pc, #20]	; (800a2b8 <__io_getchar+0x18>)
 800a2a4:	f7fe fa3a 	bl	800871c <qcount>
 800a2a8:	b118      	cbz	r0, 800a2b2 <__io_getchar+0x12>
 800a2aa:	4803      	ldr	r0, [pc, #12]	; (800a2b8 <__io_getchar+0x18>)
 800a2ac:	f7fe fa5c 	bl	8008768 <qget>
 800a2b0:	bd08      	pop	{r3, pc}
 800a2b2:	f04f 30ff 	mov.w	r0, #4294967295
 800a2b6:	bd08      	pop	{r3, pc}
 800a2b8:	20000708 	.word	0x20000708

0800a2bc <HAL_UART_RxCpltCallback>:
 800a2bc:	4a30      	ldr	r2, [pc, #192]	; (800a380 <HAL_UART_RxCpltCallback+0xc4>)
 800a2be:	6803      	ldr	r3, [r0, #0]
 800a2c0:	b570      	push	{r4, r5, r6, lr}
 800a2c2:	4293      	cmp	r3, r2
 800a2c4:	4604      	mov	r4, r0
 800a2c6:	d030      	beq.n	800a32a <HAL_UART_RxCpltCallback+0x6e>
 800a2c8:	4a2e      	ldr	r2, [pc, #184]	; (800a384 <HAL_UART_RxCpltCallback+0xc8>)
 800a2ca:	4293      	cmp	r3, r2
 800a2cc:	d019      	beq.n	800a302 <HAL_UART_RxCpltCallback+0x46>
 800a2ce:	4a2e      	ldr	r2, [pc, #184]	; (800a388 <HAL_UART_RxCpltCallback+0xcc>)
 800a2d0:	4293      	cmp	r3, r2
 800a2d2:	d02e      	beq.n	800a332 <HAL_UART_RxCpltCallback+0x76>
 800a2d4:	4a2d      	ldr	r2, [pc, #180]	; (800a38c <HAL_UART_RxCpltCallback+0xd0>)
 800a2d6:	4293      	cmp	r3, r2
 800a2d8:	d12a      	bne.n	800a330 <HAL_UART_RxCpltCallback+0x74>
 800a2da:	4b2d      	ldr	r3, [pc, #180]	; (800a390 <HAL_UART_RxCpltCallback+0xd4>)
 800a2dc:	681b      	ldr	r3, [r3, #0]
 800a2de:	b33b      	cbz	r3, 800a330 <HAL_UART_RxCpltCallback+0x74>
 800a2e0:	f7fb f988 	bl	80055f4 <HAL_GetTick>
 800a2e4:	4606      	mov	r6, r0
 800a2e6:	4d2b      	ldr	r5, [pc, #172]	; (800a394 <HAL_UART_RxCpltCallback+0xd8>)
 800a2e8:	4b2b      	ldr	r3, [pc, #172]	; (800a398 <HAL_UART_RxCpltCallback+0xdc>)
 800a2ea:	4629      	mov	r1, r5
 800a2ec:	4620      	mov	r0, r4
 800a2ee:	2201      	movs	r2, #1
 800a2f0:	601e      	str	r6, [r3, #0]
 800a2f2:	f7fe f86d 	bl	80083d0 <HAL_UART_Receive_IT>
 800a2f6:	7829      	ldrb	r1, [r5, #0]
 800a2f8:	4828      	ldr	r0, [pc, #160]	; (800a39c <HAL_UART_RxCpltCallback+0xe0>)
 800a2fa:	e8bd 4070 	ldmia.w	sp!, {r4, r5, r6, lr}
 800a2fe:	f7fe ba1b 	b.w	8008738 <qput>
 800a302:	4b27      	ldr	r3, [pc, #156]	; (800a3a0 <HAL_UART_RxCpltCallback+0xe4>)
 800a304:	681b      	ldr	r3, [r3, #0]
 800a306:	b19b      	cbz	r3, 800a330 <HAL_UART_RxCpltCallback+0x74>
 800a308:	f7fb f974 	bl	80055f4 <HAL_GetTick>
 800a30c:	4606      	mov	r6, r0
 800a30e:	4d25      	ldr	r5, [pc, #148]	; (800a3a4 <HAL_UART_RxCpltCallback+0xe8>)
 800a310:	4b25      	ldr	r3, [pc, #148]	; (800a3a8 <HAL_UART_RxCpltCallback+0xec>)
 800a312:	4629      	mov	r1, r5
 800a314:	4620      	mov	r0, r4
 800a316:	2201      	movs	r2, #1
 800a318:	601e      	str	r6, [r3, #0]
 800a31a:	f7fe f859 	bl	80083d0 <HAL_UART_Receive_IT>
 800a31e:	7829      	ldrb	r1, [r5, #0]
 800a320:	4822      	ldr	r0, [pc, #136]	; (800a3ac <HAL_UART_RxCpltCallback+0xf0>)
 800a322:	e8bd 4070 	ldmia.w	sp!, {r4, r5, r6, lr}
 800a326:	f7fe ba07 	b.w	8008738 <qput>
 800a32a:	4b21      	ldr	r3, [pc, #132]	; (800a3b0 <HAL_UART_RxCpltCallback+0xf4>)
 800a32c:	681b      	ldr	r3, [r3, #0]
 800a32e:	b9ab      	cbnz	r3, 800a35c <HAL_UART_RxCpltCallback+0xa0>
 800a330:	bd70      	pop	{r4, r5, r6, pc}
 800a332:	4b20      	ldr	r3, [pc, #128]	; (800a3b4 <HAL_UART_RxCpltCallback+0xf8>)
 800a334:	681b      	ldr	r3, [r3, #0]
 800a336:	2b00      	cmp	r3, #0
 800a338:	d0fa      	beq.n	800a330 <HAL_UART_RxCpltCallback+0x74>
 800a33a:	f7fb f95b 	bl	80055f4 <HAL_GetTick>
 800a33e:	4606      	mov	r6, r0
 800a340:	4d1d      	ldr	r5, [pc, #116]	; (800a3b8 <HAL_UART_RxCpltCallback+0xfc>)
 800a342:	4b1e      	ldr	r3, [pc, #120]	; (800a3bc <HAL_UART_RxCpltCallback+0x100>)
 800a344:	4629      	mov	r1, r5
 800a346:	4620      	mov	r0, r4
 800a348:	2201      	movs	r2, #1
 800a34a:	601e      	str	r6, [r3, #0]
 800a34c:	f7fe f840 	bl	80083d0 <HAL_UART_Receive_IT>
 800a350:	7829      	ldrb	r1, [r5, #0]
 800a352:	481b      	ldr	r0, [pc, #108]	; (800a3c0 <HAL_UART_RxCpltCallback+0x104>)
 800a354:	e8bd 4070 	ldmia.w	sp!, {r4, r5, r6, lr}
 800a358:	f7fe b9ee 	b.w	8008738 <qput>
 800a35c:	f7fb f94a 	bl	80055f4 <HAL_GetTick>
 800a360:	4606      	mov	r6, r0
 800a362:	4d18      	ldr	r5, [pc, #96]	; (800a3c4 <HAL_UART_RxCpltCallback+0x108>)
 800a364:	4b18      	ldr	r3, [pc, #96]	; (800a3c8 <HAL_UART_RxCpltCallback+0x10c>)
 800a366:	4629      	mov	r1, r5
 800a368:	4620      	mov	r0, r4
 800a36a:	2201      	movs	r2, #1
 800a36c:	601e      	str	r6, [r3, #0]
 800a36e:	f7fe f82f 	bl	80083d0 <HAL_UART_Receive_IT>
 800a372:	7829      	ldrb	r1, [r5, #0]
 800a374:	4815      	ldr	r0, [pc, #84]	; (800a3cc <HAL_UART_RxCpltCallback+0x110>)
 800a376:	e8bd 4070 	ldmia.w	sp!, {r4, r5, r6, lr}
 800a37a:	f7fe b9dd 	b.w	8008738 <qput>
 800a37e:	bf00      	nop
 800a380:	40013800 	.word	0x40013800
 800a384:	40004400 	.word	0x40004400
 800a388:	40004800 	.word	0x40004800
 800a38c:	40005000 	.word	0x40005000
 800a390:	20000b34 	.word	0x20000b34
 800a394:	200006f0 	.word	0x200006f0
 800a398:	20000704 	.word	0x20000704
 800a39c:	20000a20 	.word	0x20000a20
 800a3a0:	20000b2c 	.word	0x20000b2c
 800a3a4:	200006e0 	.word	0x200006e0
 800a3a8:	200006fc 	.word	0x200006fc
 800a3ac:	20000810 	.word	0x20000810
 800a3b0:	20000b28 	.word	0x20000b28
 800a3b4:	20000b30 	.word	0x20000b30
 800a3b8:	200006e8 	.word	0x200006e8
 800a3bc:	20000700 	.word	0x20000700
 800a3c0:	20000918 	.word	0x20000918
 800a3c4:	200006d8 	.word	0x200006d8
 800a3c8:	200006f8 	.word	0x200006f8
 800a3cc:	20000708 	.word	0x20000708

0800a3d0 <checkSerial>:
 800a3d0:	6803      	ldr	r3, [r0, #0]
 800a3d2:	681b      	ldr	r3, [r3, #0]
 800a3d4:	071b      	lsls	r3, r3, #28
 800a3d6:	d400      	bmi.n	800a3da <checkSerial+0xa>
 800a3d8:	4770      	bx	lr
 800a3da:	b530      	push	{r4, r5, lr}
 800a3dc:	b085      	sub	sp, #20
 800a3de:	4604      	mov	r4, r0
 800a3e0:	f7fd fe7e 	bl	80080e0 <HAL_UART_Init>
 800a3e4:	bb30      	cbnz	r0, 800a434 <checkSerial+0x64>
 800a3e6:	2201      	movs	r2, #1
 800a3e8:	f10d 010f 	add.w	r1, sp, #15
 800a3ec:	4620      	mov	r0, r4
 800a3ee:	f7fd ffef 	bl	80083d0 <HAL_UART_Receive_IT>
 800a3f2:	4814      	ldr	r0, [pc, #80]	; (800a444 <checkSerial+0x74>)
 800a3f4:	f000 ff92 	bl	800b31c <puts>
 800a3f8:	6821      	ldr	r1, [r4, #0]
 800a3fa:	4813      	ldr	r0, [pc, #76]	; (800a448 <checkSerial+0x78>)
 800a3fc:	f000 fef4 	bl	800b1e8 <iprintf>
 800a400:	6820      	ldr	r0, [r4, #0]
 800a402:	6be1      	ldr	r1, [r4, #60]	; 0x3c
 800a404:	f894 2039 	ldrb.w	r2, [r4, #57]	; 0x39
 800a408:	f894 303a 	ldrb.w	r3, [r4, #58]	; 0x3a
 800a40c:	6805      	ldr	r5, [r0, #0]
 800a40e:	6840      	ldr	r0, [r0, #4]
 800a410:	e9cd 5000 	strd	r5, r0, [sp]
 800a414:	480d      	ldr	r0, [pc, #52]	; (800a44c <checkSerial+0x7c>)
 800a416:	f000 fee7 	bl	800b1e8 <iprintf>
 800a41a:	6820      	ldr	r0, [r4, #0]
 800a41c:	6881      	ldr	r1, [r0, #8]
 800a41e:	68c2      	ldr	r2, [r0, #12]
 800a420:	6903      	ldr	r3, [r0, #16]
 800a422:	6944      	ldr	r4, [r0, #20]
 800a424:	6980      	ldr	r0, [r0, #24]
 800a426:	e9cd 4000 	strd	r4, r0, [sp]
 800a42a:	4809      	ldr	r0, [pc, #36]	; (800a450 <checkSerial+0x80>)
 800a42c:	f000 fedc 	bl	800b1e8 <iprintf>
 800a430:	b005      	add	sp, #20
 800a432:	bd30      	pop	{r4, r5, pc}
 800a434:	f240 121d 	movw	r2, #285	; 0x11d
 800a438:	4906      	ldr	r1, [pc, #24]	; (800a454 <checkSerial+0x84>)
 800a43a:	4807      	ldr	r0, [pc, #28]	; (800a458 <checkSerial+0x88>)
 800a43c:	f000 fed4 	bl	800b1e8 <iprintf>
 800a440:	e7d1      	b.n	800a3e6 <checkSerial+0x16>
 800a442:	bf00      	nop
 800a444:	0800e07c 	.word	0x0800e07c
 800a448:	0800e098 	.word	0x0800e098
 800a44c:	0800e0ac 	.word	0x0800e0ac
 800a450:	0800e0e4 	.word	0x0800e0e4
 800a454:	0800e068 	.word	0x0800e068
 800a458:	0800db20 	.word	0x0800db20

0800a45c <SerialInitQueue>:
 800a45c:	b508      	push	{r3, lr}
 800a45e:	4807      	ldr	r0, [pc, #28]	; (800a47c <SerialInitQueue+0x20>)
 800a460:	f7fe f958 	bl	8008714 <init_queue>
 800a464:	4806      	ldr	r0, [pc, #24]	; (800a480 <SerialInitQueue+0x24>)
 800a466:	f7fe f955 	bl	8008714 <init_queue>
 800a46a:	4806      	ldr	r0, [pc, #24]	; (800a484 <SerialInitQueue+0x28>)
 800a46c:	f7fe f952 	bl	8008714 <init_queue>
 800a470:	e8bd 4008 	ldmia.w	sp!, {r3, lr}
 800a474:	4804      	ldr	r0, [pc, #16]	; (800a488 <SerialInitQueue+0x2c>)
 800a476:	f7fe b94d 	b.w	8008714 <init_queue>
 800a47a:	bf00      	nop
 800a47c:	20000708 	.word	0x20000708
 800a480:	20000810 	.word	0x20000810
 800a484:	20000918 	.word	0x20000918
 800a488:	20000a20 	.word	0x20000a20

0800a48c <SerialInit>:
 800a48c:	e92d 47f0 	stmdb	sp!, {r4, r5, r6, r7, r8, r9, sl, lr}
 800a490:	461e      	mov	r6, r3
 800a492:	460c      	mov	r4, r1
 800a494:	4692      	mov	sl, r2
 800a496:	4605      	mov	r5, r0
 800a498:	481b      	ldr	r0, [pc, #108]	; (800a508 <SerialInit+0x7c>)
 800a49a:	f7fe f93b 	bl	8008714 <init_queue>
 800a49e:	481b      	ldr	r0, [pc, #108]	; (800a50c <SerialInit+0x80>)
 800a4a0:	f7fe f938 	bl	8008714 <init_queue>
 800a4a4:	481a      	ldr	r0, [pc, #104]	; (800a510 <SerialInit+0x84>)
 800a4a6:	f7fe f935 	bl	8008714 <init_queue>
 800a4aa:	481a      	ldr	r0, [pc, #104]	; (800a514 <SerialInit+0x88>)
 800a4ac:	f7fe f932 	bl	8008714 <init_queue>
 800a4b0:	f8df 9064 	ldr.w	r9, [pc, #100]	; 800a518 <SerialInit+0x8c>
 800a4b4:	f8df 8064 	ldr.w	r8, [pc, #100]	; 800a51c <SerialInit+0x90>
 800a4b8:	4f19      	ldr	r7, [pc, #100]	; (800a520 <SerialInit+0x94>)
 800a4ba:	4b1a      	ldr	r3, [pc, #104]	; (800a524 <SerialInit+0x98>)
 800a4bc:	f8c8 a000 	str.w	sl, [r8]
 800a4c0:	603e      	str	r6, [r7, #0]
 800a4c2:	f8c9 4000 	str.w	r4, [r9]
 800a4c6:	601d      	str	r5, [r3, #0]
 800a4c8:	b135      	cbz	r5, 800a4d8 <SerialInit+0x4c>
 800a4ca:	2201      	movs	r2, #1
 800a4cc:	4628      	mov	r0, r5
 800a4ce:	4916      	ldr	r1, [pc, #88]	; (800a528 <SerialInit+0x9c>)
 800a4d0:	f7fd ff7e 	bl	80083d0 <HAL_UART_Receive_IT>
 800a4d4:	f8d9 4000 	ldr.w	r4, [r9]
 800a4d8:	b124      	cbz	r4, 800a4e4 <SerialInit+0x58>
 800a4da:	2201      	movs	r2, #1
 800a4dc:	4620      	mov	r0, r4
 800a4de:	4913      	ldr	r1, [pc, #76]	; (800a52c <SerialInit+0xa0>)
 800a4e0:	f7fd ff76 	bl	80083d0 <HAL_UART_Receive_IT>
 800a4e4:	f8d8 0000 	ldr.w	r0, [r8]
 800a4e8:	b118      	cbz	r0, 800a4f2 <SerialInit+0x66>
 800a4ea:	2201      	movs	r2, #1
 800a4ec:	4910      	ldr	r1, [pc, #64]	; (800a530 <SerialInit+0xa4>)
 800a4ee:	f7fd ff6f 	bl	80083d0 <HAL_UART_Receive_IT>
 800a4f2:	6838      	ldr	r0, [r7, #0]
 800a4f4:	b128      	cbz	r0, 800a502 <SerialInit+0x76>
 800a4f6:	e8bd 47f0 	ldmia.w	sp!, {r4, r5, r6, r7, r8, r9, sl, lr}
 800a4fa:	2201      	movs	r2, #1
 800a4fc:	490d      	ldr	r1, [pc, #52]	; (800a534 <SerialInit+0xa8>)
 800a4fe:	f7fd bf67 	b.w	80083d0 <HAL_UART_Receive_IT>
 800a502:	e8bd 87f0 	ldmia.w	sp!, {r4, r5, r6, r7, r8, r9, sl, pc}
 800a506:	bf00      	nop
 800a508:	20000708 	.word	0x20000708
 800a50c:	20000810 	.word	0x20000810
 800a510:	20000918 	.word	0x20000918
 800a514:	20000a20 	.word	0x20000a20
 800a518:	20000b2c 	.word	0x20000b2c
 800a51c:	20000b30 	.word	0x20000b30
 800a520:	20000b34 	.word	0x20000b34
 800a524:	20000b28 	.word	0x20000b28
 800a528:	200006d8 	.word	0x200006d8
 800a52c:	200006e0 	.word	0x200006e0
 800a530:	200006e8 	.word	0x200006e8
 800a534:	200006f0 	.word	0x200006f0

0800a538 <input_check>:
 800a538:	4801      	ldr	r0, [pc, #4]	; (800a540 <input_check+0x8>)
 800a53a:	f7fe b8ef 	b.w	800871c <qcount>
 800a53e:	bf00      	nop
 800a540:	20000708 	.word	0x20000708

0800a544 <Cal_CRC16>:
 800a544:	eb00 0c01 	add.w	ip, r0, r1
 800a548:	4560      	cmp	r0, ip
 800a54a:	f080 808c 	bcs.w	800a666 <Cal_CRC16+0x122>
 800a54e:	2300      	movs	r3, #0
 800a550:	f241 0121 	movw	r1, #4129	; 0x1021
 800a554:	f810 2b01 	ldrb.w	r2, [r0], #1
 800a558:	f442 7280 	orr.w	r2, r2, #256	; 0x100
 800a55c:	0052      	lsls	r2, r2, #1
 800a55e:	005b      	lsls	r3, r3, #1
 800a560:	f412 7f80 	tst.w	r2, #256	; 0x100
 800a564:	bf18      	it	ne
 800a566:	3301      	addne	r3, #1
 800a568:	f413 3f80 	tst.w	r3, #65536	; 0x10000
 800a56c:	bf18      	it	ne
 800a56e:	404b      	eorne	r3, r1
 800a570:	f412 3f80 	tst.w	r2, #65536	; 0x10000
 800a574:	d0f2      	beq.n	800a55c <Cal_CRC16+0x18>
 800a576:	4584      	cmp	ip, r0
 800a578:	b29b      	uxth	r3, r3
 800a57a:	d1eb      	bne.n	800a554 <Cal_CRC16+0x10>
 800a57c:	0059      	lsls	r1, r3, #1
 800a57e:	0bdb      	lsrs	r3, r3, #15
 800a580:	bf1c      	itt	ne
 800a582:	f481 5181 	eorne.w	r1, r1, #4128	; 0x1020
 800a586:	f081 0101 	eorne.w	r1, r1, #1
 800a58a:	004a      	lsls	r2, r1, #1
 800a58c:	0409      	lsls	r1, r1, #16
 800a58e:	d503      	bpl.n	800a598 <Cal_CRC16+0x54>
 800a590:	f482 5281 	eor.w	r2, r2, #4128	; 0x1020
 800a594:	f082 0201 	eor.w	r2, r2, #1
 800a598:	0053      	lsls	r3, r2, #1
 800a59a:	0412      	lsls	r2, r2, #16
 800a59c:	bf44      	itt	mi
 800a59e:	f483 5381 	eormi.w	r3, r3, #4128	; 0x1020
 800a5a2:	f083 0301 	eormi.w	r3, r3, #1
 800a5a6:	005a      	lsls	r2, r3, #1
 800a5a8:	041b      	lsls	r3, r3, #16
 800a5aa:	bf44      	itt	mi
 800a5ac:	f482 5281 	eormi.w	r2, r2, #4128	; 0x1020
 800a5b0:	f082 0201 	eormi.w	r2, r2, #1
 800a5b4:	0053      	lsls	r3, r2, #1
 800a5b6:	0410      	lsls	r0, r2, #16
 800a5b8:	bf44      	itt	mi
 800a5ba:	f483 5381 	eormi.w	r3, r3, #4128	; 0x1020
 800a5be:	f083 0301 	eormi.w	r3, r3, #1
 800a5c2:	005a      	lsls	r2, r3, #1
 800a5c4:	0419      	lsls	r1, r3, #16
 800a5c6:	bf44      	itt	mi
 800a5c8:	f482 5281 	eormi.w	r2, r2, #4128	; 0x1020
 800a5cc:	f082 0201 	eormi.w	r2, r2, #1
 800a5d0:	0053      	lsls	r3, r2, #1
 800a5d2:	0412      	lsls	r2, r2, #16
 800a5d4:	bf44      	itt	mi
 800a5d6:	f483 5381 	eormi.w	r3, r3, #4128	; 0x1020
 800a5da:	f083 0301 	eormi.w	r3, r3, #1
 800a5de:	005a      	lsls	r2, r3, #1
 800a5e0:	041b      	lsls	r3, r3, #16
 800a5e2:	bf48      	it	mi
 800a5e4:	f482 5281 	eormi.w	r2, r2, #4128	; 0x1020
 800a5e8:	4b20      	ldr	r3, [pc, #128]	; (800a66c <Cal_CRC16+0x128>)
 800a5ea:	bf48      	it	mi
 800a5ec:	f082 0201 	eormi.w	r2, r2, #1
 800a5f0:	ea03 0342 	and.w	r3, r3, r2, lsl #1
 800a5f4:	0410      	lsls	r0, r2, #16
 800a5f6:	bf44      	itt	mi
 800a5f8:	f483 5381 	eormi.w	r3, r3, #4128	; 0x1020
 800a5fc:	f083 0301 	eormi.w	r3, r3, #1
 800a600:	005a      	lsls	r2, r3, #1
 800a602:	0419      	lsls	r1, r3, #16
 800a604:	bf44      	itt	mi
 800a606:	f482 5281 	eormi.w	r2, r2, #4128	; 0x1020
 800a60a:	f082 0201 	eormi.w	r2, r2, #1
 800a60e:	0053      	lsls	r3, r2, #1
 800a610:	0412      	lsls	r2, r2, #16
 800a612:	bf44      	itt	mi
 800a614:	f483 5381 	eormi.w	r3, r3, #4128	; 0x1020
 800a618:	f083 0301 	eormi.w	r3, r3, #1
 800a61c:	005a      	lsls	r2, r3, #1
 800a61e:	041b      	lsls	r3, r3, #16
 800a620:	bf44      	itt	mi
 800a622:	f482 5281 	eormi.w	r2, r2, #4128	; 0x1020
 800a626:	f082 0201 	eormi.w	r2, r2, #1
 800a62a:	0053      	lsls	r3, r2, #1
 800a62c:	0410      	lsls	r0, r2, #16
 800a62e:	bf44      	itt	mi
 800a630:	f483 5381 	eormi.w	r3, r3, #4128	; 0x1020
 800a634:	f083 0301 	eormi.w	r3, r3, #1
 800a638:	005a      	lsls	r2, r3, #1
 800a63a:	0419      	lsls	r1, r3, #16
 800a63c:	bf44      	itt	mi
 800a63e:	f482 5281 	eormi.w	r2, r2, #4128	; 0x1020
 800a642:	f082 0201 	eormi.w	r2, r2, #1
 800a646:	0053      	lsls	r3, r2, #1
 800a648:	0412      	lsls	r2, r2, #16
 800a64a:	bf44      	itt	mi
 800a64c:	f483 5381 	eormi.w	r3, r3, #4128	; 0x1020
 800a650:	f083 0301 	eormi.w	r3, r3, #1
 800a654:	0058      	lsls	r0, r3, #1
 800a656:	041b      	lsls	r3, r3, #16
 800a658:	bf44      	itt	mi
 800a65a:	f480 5081 	eormi.w	r0, r0, #4128	; 0x1020
 800a65e:	f080 0001 	eormi.w	r0, r0, #1
 800a662:	b280      	uxth	r0, r0
 800a664:	4770      	bx	lr
 800a666:	2200      	movs	r2, #0
 800a668:	e796      	b.n	800a598 <Cal_CRC16+0x54>
 800a66a:	bf00      	nop
 800a66c:	0001fffe 	.word	0x0001fffe

0800a670 <Ymodem_Receive>:
 800a670:	e92d 4ff0 	stmdb	sp!, {r4, r5, r6, r7, r8, r9, sl, fp, lr}
 800a674:	f04f 0900 	mov.w	r9, #0
 800a678:	464f      	mov	r7, r9
 800a67a:	f8df a1c4 	ldr.w	sl, [pc, #452]	; 800a840 <Ymodem_Receive+0x1d0>
 800a67e:	4b71      	ldr	r3, [pc, #452]	; (800a844 <Ymodem_Receive+0x1d4>)
 800a680:	b08d      	sub	sp, #52	; 0x34
 800a682:	4c71      	ldr	r4, [pc, #452]	; (800a848 <Ymodem_Receive+0x1d8>)
 800a684:	9303      	str	r3, [sp, #12]
 800a686:	f10a 0b02 	add.w	fp, sl, #2
 800a68a:	9002      	str	r0, [sp, #8]
 800a68c:	f04f 0900 	mov.w	r9, #0
 800a690:	464d      	mov	r5, r9
 800a692:	f44f 737a 	mov.w	r3, #1000	; 0x3e8
 800a696:	2201      	movs	r2, #1
 800a698:	6820      	ldr	r0, [r4, #0]
 800a69a:	f10d 011b 	add.w	r1, sp, #27
 800a69e:	f7fd fe15 	bl	80082cc <HAL_UART_Receive>
 800a6a2:	2800      	cmp	r0, #0
 800a6a4:	f040 80a1 	bne.w	800a7ea <Ymodem_Receive+0x17a>
 800a6a8:	f89d 301b 	ldrb.w	r3, [sp, #27]
 800a6ac:	2b18      	cmp	r3, #24
 800a6ae:	d811      	bhi.n	800a6d4 <Ymodem_Receive+0x64>
 800a6b0:	b1a3      	cbz	r3, 800a6dc <Ymodem_Receive+0x6c>
 800a6b2:	1e5a      	subs	r2, r3, #1
 800a6b4:	2a17      	cmp	r2, #23
 800a6b6:	d811      	bhi.n	800a6dc <Ymodem_Receive+0x6c>
 800a6b8:	e8df f002 	tbb	[pc, r2]
 800a6bc:	1e10255c 	.word	0x1e10255c
 800a6c0:	10101010 	.word	0x10101010
 800a6c4:	10101010 	.word	0x10101010
 800a6c8:	10101010 	.word	0x10101010
 800a6cc:	10101010 	.word	0x10101010
 800a6d0:	72101010 	.word	0x72101010
 800a6d4:	f003 02df 	and.w	r2, r3, #223	; 0xdf
 800a6d8:	2a41      	cmp	r2, #65	; 0x41
 800a6da:	d079      	beq.n	800a7d0 <Ymodem_Receive+0x160>
 800a6dc:	f88a 3000 	strb.w	r3, [sl]
 800a6e0:	b107      	cbz	r7, 800a6e4 <Ymodem_Receive+0x74>
 800a6e2:	3501      	adds	r5, #1
 800a6e4:	2d05      	cmp	r5, #5
 800a6e6:	f240 8083 	bls.w	800a7f0 <Ymodem_Receive+0x180>
 800a6ea:	2018      	movs	r0, #24
 800a6ec:	f7fe fe76 	bl	80093dc <Serial_PutByte>
 800a6f0:	2018      	movs	r0, #24
 800a6f2:	f7fe fe73 	bl	80093dc <Serial_PutByte>
 800a6f6:	e7cc      	b.n	800a692 <Ymodem_Receive+0x22>
 800a6f8:	2304      	movs	r3, #4
 800a6fa:	2006      	movs	r0, #6
 800a6fc:	f88a 3000 	strb.w	r3, [sl]
 800a700:	f7fe fe6c 	bl	80093dc <Serial_PutByte>
 800a704:	e7c2      	b.n	800a68c <Ymodem_Receive+0x1c>
 800a706:	2302      	movs	r3, #2
 800a708:	f44f 7280 	mov.w	r2, #256	; 0x100
 800a70c:	f240 4105 	movw	r1, #1029	; 0x405
 800a710:	f240 4604 	movw	r6, #1028	; 0x404
 800a714:	e9cd 2100 	strd	r2, r1, [sp]
 800a718:	f88a 3000 	strb.w	r3, [sl]
 800a71c:	4632      	mov	r2, r6
 800a71e:	f44f 737a 	mov.w	r3, #1000	; 0x3e8
 800a722:	4659      	mov	r1, fp
 800a724:	6820      	ldr	r0, [r4, #0]
 800a726:	f44f 6880 	mov.w	r8, #1024	; 0x400
 800a72a:	f7fd fdcf 	bl	80082cc <HAL_UART_Receive>
 800a72e:	bba0      	cbnz	r0, 800a79a <Ymodem_Receive+0x12a>
 800a730:	f89a 1003 	ldrb.w	r1, [sl, #3]
 800a734:	f89a 2002 	ldrb.w	r2, [sl, #2]
 800a738:	43c9      	mvns	r1, r1
 800a73a:	b2c9      	uxtb	r1, r1
 800a73c:	428a      	cmp	r2, r1
 800a73e:	d1cf      	bne.n	800a6e0 <Ymodem_Receive+0x70>
 800a740:	9b01      	ldr	r3, [sp, #4]
 800a742:	f81a 1006 	ldrb.w	r1, [sl, r6]
 800a746:	f81a 6003 	ldrb.w	r6, [sl, r3]
 800a74a:	e9cd 2004 	strd	r2, r0, [sp, #16]
 800a74e:	eb06 2601 	add.w	r6, r6, r1, lsl #8
 800a752:	483e      	ldr	r0, [pc, #248]	; (800a84c <Ymodem_Receive+0x1dc>)
 800a754:	4641      	mov	r1, r8
 800a756:	f7ff fef5 	bl	800a544 <Cal_CRC16>
 800a75a:	e9dd 2304 	ldrd	r2, r3, [sp, #16]
 800a75e:	4286      	cmp	r6, r0
 800a760:	d1be      	bne.n	800a6e0 <Ymodem_Receive+0x70>
 800a762:	454a      	cmp	r2, r9
 800a764:	9301      	str	r3, [sp, #4]
 800a766:	d047      	beq.n	800a7f8 <Ymodem_Receive+0x188>
 800a768:	2015      	movs	r0, #21
 800a76a:	f7fe fe37 	bl	80093dc <Serial_PutByte>
 800a76e:	9b01      	ldr	r3, [sp, #4]
 800a770:	461d      	mov	r5, r3
 800a772:	e78e      	b.n	800a692 <Ymodem_Receive+0x22>
 800a774:	2301      	movs	r3, #1
 800a776:	2220      	movs	r2, #32
 800a778:	2085      	movs	r0, #133	; 0x85
 800a77a:	2684      	movs	r6, #132	; 0x84
 800a77c:	e9cd 2000 	strd	r2, r0, [sp]
 800a780:	f88a 3000 	strb.w	r3, [sl]
 800a784:	4632      	mov	r2, r6
 800a786:	f44f 737a 	mov.w	r3, #1000	; 0x3e8
 800a78a:	4659      	mov	r1, fp
 800a78c:	6820      	ldr	r0, [r4, #0]
 800a78e:	f04f 0880 	mov.w	r8, #128	; 0x80
 800a792:	f7fd fd9b 	bl	80082cc <HAL_UART_Receive>
 800a796:	2800      	cmp	r0, #0
 800a798:	d0ca      	beq.n	800a730 <Ymodem_Receive+0xc0>
 800a79a:	2802      	cmp	r0, #2
 800a79c:	d01a      	beq.n	800a7d4 <Ymodem_Receive+0x164>
 800a79e:	e79f      	b.n	800a6e0 <Ymodem_Receive+0x70>
 800a7a0:	f44f 737a 	mov.w	r3, #1000	; 0x3e8
 800a7a4:	2201      	movs	r2, #1
 800a7a6:	6820      	ldr	r0, [r4, #0]
 800a7a8:	f10d 011b 	add.w	r1, sp, #27
 800a7ac:	f7fd fd8e 	bl	80082cc <HAL_UART_Receive>
 800a7b0:	f89d 301b 	ldrb.w	r3, [sp, #27]
 800a7b4:	2800      	cmp	r0, #0
 800a7b6:	d191      	bne.n	800a6dc <Ymodem_Receive+0x6c>
 800a7b8:	2b18      	cmp	r3, #24
 800a7ba:	d18f      	bne.n	800a6dc <Ymodem_Receive+0x6c>
 800a7bc:	4a20      	ldr	r2, [pc, #128]	; (800a840 <Ymodem_Receive+0x1d0>)
 800a7be:	2006      	movs	r0, #6
 800a7c0:	7013      	strb	r3, [r2, #0]
 800a7c2:	2602      	movs	r6, #2
 800a7c4:	f7fe fe0a 	bl	80093dc <Serial_PutByte>
 800a7c8:	4630      	mov	r0, r6
 800a7ca:	b00d      	add	sp, #52	; 0x34
 800a7cc:	e8bd 8ff0 	ldmia.w	sp!, {r4, r5, r6, r7, r8, r9, sl, fp, pc}
 800a7d0:	4a1b      	ldr	r2, [pc, #108]	; (800a840 <Ymodem_Receive+0x1d0>)
 800a7d2:	7013      	strb	r3, [r2, #0]
 800a7d4:	2602      	movs	r6, #2
 800a7d6:	2018      	movs	r0, #24
 800a7d8:	f7fe fe00 	bl	80093dc <Serial_PutByte>
 800a7dc:	2018      	movs	r0, #24
 800a7de:	f7fe fdfd 	bl	80093dc <Serial_PutByte>
 800a7e2:	4630      	mov	r0, r6
 800a7e4:	b00d      	add	sp, #52	; 0x34
 800a7e6:	e8bd 8ff0 	ldmia.w	sp!, {r4, r5, r6, r7, r8, r9, sl, fp, pc}
 800a7ea:	2802      	cmp	r0, #2
 800a7ec:	d0f2      	beq.n	800a7d4 <Ymodem_Receive+0x164>
 800a7ee:	e777      	b.n	800a6e0 <Ymodem_Receive+0x70>
 800a7f0:	2043      	movs	r0, #67	; 0x43
 800a7f2:	f7fe fdf3 	bl	80093dc <Serial_PutByte>
 800a7f6:	e74c      	b.n	800a692 <Ymodem_Receive+0x22>
 800a7f8:	f1b9 0f00 	cmp.w	r9, #0
 800a7fc:	d106      	bne.n	800a80c <Ymodem_Receive+0x19c>
 800a7fe:	f89a 6004 	ldrb.w	r6, [sl, #4]
 800a802:	b9c6      	cbnz	r6, 800a836 <Ymodem_Receive+0x1c6>
 800a804:	2006      	movs	r0, #6
 800a806:	f7fe fde9 	bl	80093dc <Serial_PutByte>
 800a80a:	e7dd      	b.n	800a7c8 <Ymodem_Receive+0x158>
 800a80c:	9e03      	ldr	r6, [sp, #12]
 800a80e:	9a00      	ldr	r2, [sp, #0]
 800a810:	4630      	mov	r0, r6
 800a812:	490e      	ldr	r1, [pc, #56]	; (800a84c <Ymodem_Receive+0x1dc>)
 800a814:	f7fe fac8 	bl	8008da8 <FLASH_If_Write>
 800a818:	4605      	mov	r5, r0
 800a81a:	2800      	cmp	r0, #0
 800a81c:	f040 80a0 	bne.w	800a960 <Ymodem_Receive+0x2f0>
 800a820:	2006      	movs	r0, #6
 800a822:	4446      	add	r6, r8
 800a824:	f109 0901 	add.w	r9, r9, #1
 800a828:	9603      	str	r6, [sp, #12]
 800a82a:	2701      	movs	r7, #1
 800a82c:	f7fe fdd6 	bl	80093dc <Serial_PutByte>
 800a830:	fa5f f989 	uxtb.w	r9, r9
 800a834:	e72d      	b.n	800a692 <Ymodem_Receive+0x22>
 800a836:	4806      	ldr	r0, [pc, #24]	; (800a850 <Ymodem_Receive+0x1e0>)
 800a838:	4b06      	ldr	r3, [pc, #24]	; (800a854 <Ymodem_Receive+0x1e4>)
 800a83a:	4602      	mov	r2, r0
 800a83c:	e00f      	b.n	800a85e <Ymodem_Receive+0x1ee>
 800a83e:	bf00      	nop
 800a840:	20000b38 	.word	0x20000b38
 800a844:	08024000 	.word	0x08024000
 800a848:	20000130 	.word	0x20000130
 800a84c:	20000b3c 	.word	0x20000b3c
 800a850:	200004c4 	.word	0x200004c4
 800a854:	20000b3d 	.word	0x20000b3d
 800a858:	f1b9 0f40 	cmp.w	r9, #64	; 0x40
 800a85c:	d008      	beq.n	800a870 <Ymodem_Receive+0x200>
 800a85e:	4619      	mov	r1, r3
 800a860:	f802 6b01 	strb.w	r6, [r2], #1
 800a864:	f813 6b01 	ldrb.w	r6, [r3], #1
 800a868:	f109 0901 	add.w	r9, r9, #1
 800a86c:	2e00      	cmp	r6, #0
 800a86e:	d1f3      	bne.n	800a858 <Ymodem_Receive+0x1e8>
 800a870:	2300      	movs	r3, #0
 800a872:	784a      	ldrb	r2, [r1, #1]
 800a874:	f800 3009 	strb.w	r3, [r0, r9]
 800a878:	2a20      	cmp	r2, #32
 800a87a:	d053      	beq.n	800a924 <Ymodem_Receive+0x2b4>
 800a87c:	788b      	ldrb	r3, [r1, #2]
 800a87e:	f88d 2020 	strb.w	r2, [sp, #32]
 800a882:	2b20      	cmp	r3, #32
 800a884:	f000 8095 	beq.w	800a9b2 <Ymodem_Receive+0x342>
 800a888:	f88d 3021 	strb.w	r3, [sp, #33]	; 0x21
 800a88c:	78cb      	ldrb	r3, [r1, #3]
 800a88e:	2b20      	cmp	r3, #32
 800a890:	f000 8091 	beq.w	800a9b6 <Ymodem_Receive+0x346>
 800a894:	f88d 3022 	strb.w	r3, [sp, #34]	; 0x22
 800a898:	790b      	ldrb	r3, [r1, #4]
 800a89a:	2b20      	cmp	r3, #32
 800a89c:	f000 808d 	beq.w	800a9ba <Ymodem_Receive+0x34a>
 800a8a0:	f88d 3023 	strb.w	r3, [sp, #35]	; 0x23
 800a8a4:	794b      	ldrb	r3, [r1, #5]
 800a8a6:	2b20      	cmp	r3, #32
 800a8a8:	f000 808f 	beq.w	800a9ca <Ymodem_Receive+0x35a>
 800a8ac:	f88d 3024 	strb.w	r3, [sp, #36]	; 0x24
 800a8b0:	798b      	ldrb	r3, [r1, #6]
 800a8b2:	2b20      	cmp	r3, #32
 800a8b4:	f000 8087 	beq.w	800a9c6 <Ymodem_Receive+0x356>
 800a8b8:	f88d 3025 	strb.w	r3, [sp, #37]	; 0x25
 800a8bc:	79cb      	ldrb	r3, [r1, #7]
 800a8be:	2b20      	cmp	r3, #32
 800a8c0:	d07f      	beq.n	800a9c2 <Ymodem_Receive+0x352>
 800a8c2:	f88d 3026 	strb.w	r3, [sp, #38]	; 0x26
 800a8c6:	7a0b      	ldrb	r3, [r1, #8]
 800a8c8:	2b20      	cmp	r3, #32
 800a8ca:	f000 8084 	beq.w	800a9d6 <Ymodem_Receive+0x366>
 800a8ce:	f88d 3027 	strb.w	r3, [sp, #39]	; 0x27
 800a8d2:	7a4b      	ldrb	r3, [r1, #9]
 800a8d4:	2b20      	cmp	r3, #32
 800a8d6:	d07c      	beq.n	800a9d2 <Ymodem_Receive+0x362>
 800a8d8:	f88d 3028 	strb.w	r3, [sp, #40]	; 0x28
 800a8dc:	7a8b      	ldrb	r3, [r1, #10]
 800a8de:	2b20      	cmp	r3, #32
 800a8e0:	d075      	beq.n	800a9ce <Ymodem_Receive+0x35e>
 800a8e2:	f88d 3029 	strb.w	r3, [sp, #41]	; 0x29
 800a8e6:	7acb      	ldrb	r3, [r1, #11]
 800a8e8:	2b20      	cmp	r3, #32
 800a8ea:	d076      	beq.n	800a9da <Ymodem_Receive+0x36a>
 800a8ec:	f88d 302a 	strb.w	r3, [sp, #42]	; 0x2a
 800a8f0:	7b0b      	ldrb	r3, [r1, #12]
 800a8f2:	2b20      	cmp	r3, #32
 800a8f4:	d077      	beq.n	800a9e6 <Ymodem_Receive+0x376>
 800a8f6:	f88d 302b 	strb.w	r3, [sp, #43]	; 0x2b
 800a8fa:	7b4b      	ldrb	r3, [r1, #13]
 800a8fc:	2b20      	cmp	r3, #32
 800a8fe:	d070      	beq.n	800a9e2 <Ymodem_Receive+0x372>
 800a900:	f88d 302c 	strb.w	r3, [sp, #44]	; 0x2c
 800a904:	7b8b      	ldrb	r3, [r1, #14]
 800a906:	2b20      	cmp	r3, #32
 800a908:	d069      	beq.n	800a9de <Ymodem_Receive+0x36e>
 800a90a:	f88d 302d 	strb.w	r3, [sp, #45]	; 0x2d
 800a90e:	7bcb      	ldrb	r3, [r1, #15]
 800a910:	2b20      	cmp	r3, #32
 800a912:	d054      	beq.n	800a9be <Ymodem_Receive+0x34e>
 800a914:	f88d 302e 	strb.w	r3, [sp, #46]	; 0x2e
 800a918:	7c0b      	ldrb	r3, [r1, #16]
 800a91a:	2b20      	cmp	r3, #32
 800a91c:	d065      	beq.n	800a9ea <Ymodem_Receive+0x37a>
 800a91e:	f88d 302f 	strb.w	r3, [sp, #47]	; 0x2f
 800a922:	2310      	movs	r3, #16
 800a924:	2500      	movs	r5, #0
 800a926:	3330      	adds	r3, #48	; 0x30
 800a928:	446b      	add	r3, sp
 800a92a:	f803 5c10 	strb.w	r5, [r3, #-16]
 800a92e:	a907      	add	r1, sp, #28
 800a930:	a808      	add	r0, sp, #32
 800a932:	f7fe fc2d 	bl	8009190 <Str2Int>
 800a936:	f243 0301 	movw	r3, #12289	; 0x3001
 800a93a:	9a02      	ldr	r2, [sp, #8]
 800a93c:	6812      	ldr	r2, [r2, #0]
 800a93e:	429a      	cmp	r2, r3
 800a940:	d816      	bhi.n	800a970 <Ymodem_Receive+0x300>
 800a942:	2701      	movs	r7, #1
 800a944:	482a      	ldr	r0, [pc, #168]	; (800a9f0 <Ymodem_Receive+0x380>)
 800a946:	f7fe fa11 	bl	8008d6c <FLASH_If_Erase>
 800a94a:	9b07      	ldr	r3, [sp, #28]
 800a94c:	9a02      	ldr	r2, [sp, #8]
 800a94e:	2006      	movs	r0, #6
 800a950:	6013      	str	r3, [r2, #0]
 800a952:	f7fe fd43 	bl	80093dc <Serial_PutByte>
 800a956:	2043      	movs	r0, #67	; 0x43
 800a958:	f7fe fd40 	bl	80093dc <Serial_PutByte>
 800a95c:	46b9      	mov	r9, r7
 800a95e:	e698      	b.n	800a692 <Ymodem_Receive+0x22>
 800a960:	2018      	movs	r0, #24
 800a962:	f7fe fd3b 	bl	80093dc <Serial_PutByte>
 800a966:	2018      	movs	r0, #24
 800a968:	f7fe fd38 	bl	80093dc <Serial_PutByte>
 800a96c:	2604      	movs	r6, #4
 800a96e:	e72b      	b.n	800a7c8 <Ymodem_Receive+0x158>
 800a970:	2518      	movs	r5, #24
 800a972:	f10d 011b 	add.w	r1, sp, #27
 800a976:	f44f 1380 	mov.w	r3, #1048576	; 0x100000
 800a97a:	2201      	movs	r2, #1
 800a97c:	6820      	ldr	r0, [r4, #0]
 800a97e:	f88d 501b 	strb.w	r5, [sp, #27]
 800a982:	f7fd fc1b 	bl	80081bc <HAL_UART_Transmit>
 800a986:	f10d 011b 	add.w	r1, sp, #27
 800a98a:	f44f 1380 	mov.w	r3, #1048576	; 0x100000
 800a98e:	2201      	movs	r2, #1
 800a990:	6820      	ldr	r0, [r4, #0]
 800a992:	f7fd fc13 	bl	80081bc <HAL_UART_Transmit>
 800a996:	4816      	ldr	r0, [pc, #88]	; (800a9f0 <Ymodem_Receive+0x380>)
 800a998:	f7fe f9e8 	bl	8008d6c <FLASH_If_Erase>
 800a99c:	9b07      	ldr	r3, [sp, #28]
 800a99e:	9a02      	ldr	r2, [sp, #8]
 800a9a0:	2006      	movs	r0, #6
 800a9a2:	6013      	str	r3, [r2, #0]
 800a9a4:	f7fe fd1a 	bl	80093dc <Serial_PutByte>
 800a9a8:	2043      	movs	r0, #67	; 0x43
 800a9aa:	2605      	movs	r6, #5
 800a9ac:	f7fe fd16 	bl	80093dc <Serial_PutByte>
 800a9b0:	e70a      	b.n	800a7c8 <Ymodem_Receive+0x158>
 800a9b2:	2301      	movs	r3, #1
 800a9b4:	e7b6      	b.n	800a924 <Ymodem_Receive+0x2b4>
 800a9b6:	2302      	movs	r3, #2
 800a9b8:	e7b4      	b.n	800a924 <Ymodem_Receive+0x2b4>
 800a9ba:	2303      	movs	r3, #3
 800a9bc:	e7b2      	b.n	800a924 <Ymodem_Receive+0x2b4>
 800a9be:	230e      	movs	r3, #14
 800a9c0:	e7b0      	b.n	800a924 <Ymodem_Receive+0x2b4>
 800a9c2:	2306      	movs	r3, #6
 800a9c4:	e7ae      	b.n	800a924 <Ymodem_Receive+0x2b4>
 800a9c6:	2305      	movs	r3, #5
 800a9c8:	e7ac      	b.n	800a924 <Ymodem_Receive+0x2b4>
 800a9ca:	2304      	movs	r3, #4
 800a9cc:	e7aa      	b.n	800a924 <Ymodem_Receive+0x2b4>
 800a9ce:	2309      	movs	r3, #9
 800a9d0:	e7a8      	b.n	800a924 <Ymodem_Receive+0x2b4>
 800a9d2:	2308      	movs	r3, #8
 800a9d4:	e7a6      	b.n	800a924 <Ymodem_Receive+0x2b4>
 800a9d6:	2307      	movs	r3, #7
 800a9d8:	e7a4      	b.n	800a924 <Ymodem_Receive+0x2b4>
 800a9da:	230a      	movs	r3, #10
 800a9dc:	e7a2      	b.n	800a924 <Ymodem_Receive+0x2b4>
 800a9de:	230d      	movs	r3, #13
 800a9e0:	e7a0      	b.n	800a924 <Ymodem_Receive+0x2b4>
 800a9e2:	230c      	movs	r3, #12
 800a9e4:	e79e      	b.n	800a924 <Ymodem_Receive+0x2b4>
 800a9e6:	230b      	movs	r3, #11
 800a9e8:	e79c      	b.n	800a924 <Ymodem_Receive+0x2b4>
 800a9ea:	230f      	movs	r3, #15
 800a9ec:	e79a      	b.n	800a924 <Ymodem_Receive+0x2b4>
 800a9ee:	bf00      	nop
 800a9f0:	08020000 	.word	0x08020000

0800a9f4 <Ymodem_Transmit>:
 800a9f4:	e92d 4ff0 	stmdb	sp!, {r4, r5, r6, r7, r8, r9, sl, fp, lr}
 800a9f8:	460b      	mov	r3, r1
 800a9fa:	2401      	movs	r4, #1
 800a9fc:	21ff      	movs	r1, #255	; 0xff
 800a9fe:	f8df 81dc 	ldr.w	r8, [pc, #476]	; 800abdc <Ymodem_Transmit+0x1e8>
 800aa02:	b089      	sub	sp, #36	; 0x24
 800aa04:	f8a8 4001 	strh.w	r4, [r8, #1]
 800aa08:	f888 1003 	strb.w	r1, [r8, #3]
 800aa0c:	7819      	ldrb	r1, [r3, #0]
 800aa0e:	e9cd 2000 	strd	r2, r0, [sp]
 800aa12:	2900      	cmp	r1, #0
 800aa14:	f000 8300 	beq.w	800b018 <Ymodem_Transmit+0x624>
 800aa18:	2200      	movs	r2, #0
 800aa1a:	f108 0003 	add.w	r0, r8, #3
 800aa1e:	e002      	b.n	800aa26 <Ymodem_Transmit+0x32>
 800aa20:	2a40      	cmp	r2, #64	; 0x40
 800aa22:	f000 82fc 	beq.w	800b01e <Ymodem_Transmit+0x62a>
 800aa26:	f800 1f01 	strb.w	r1, [r0, #1]!
 800aa2a:	f813 1f01 	ldrb.w	r1, [r3, #1]!
 800aa2e:	4614      	mov	r4, r2
 800aa30:	3201      	adds	r2, #1
 800aa32:	2900      	cmp	r1, #0
 800aa34:	d1f4      	bne.n	800aa20 <Ymodem_Transmit+0x2c>
 800aa36:	1d63      	adds	r3, r4, #5
 800aa38:	3406      	adds	r4, #6
 800aa3a:	2200      	movs	r2, #0
 800aa3c:	9900      	ldr	r1, [sp, #0]
 800aa3e:	a805      	add	r0, sp, #20
 800aa40:	f808 2003 	strb.w	r2, [r8, r3]
 800aa44:	f7fe fa94 	bl	8008f70 <Int2Str>
 800aa48:	f89d 3014 	ldrb.w	r3, [sp, #20]
 800aa4c:	2b00      	cmp	r3, #0
 800aa4e:	f000 82e9 	beq.w	800b024 <Ymodem_Transmit+0x630>
 800aa52:	f808 3004 	strb.w	r3, [r8, r4]
 800aa56:	f89d 3015 	ldrb.w	r3, [sp, #21]
 800aa5a:	1c60      	adds	r0, r4, #1
 800aa5c:	b373      	cbz	r3, 800aabc <Ymodem_Transmit+0xc8>
 800aa5e:	f808 3000 	strb.w	r3, [r8, r0]
 800aa62:	f89d 3016 	ldrb.w	r3, [sp, #22]
 800aa66:	1ca0      	adds	r0, r4, #2
 800aa68:	b343      	cbz	r3, 800aabc <Ymodem_Transmit+0xc8>
 800aa6a:	f808 3000 	strb.w	r3, [r8, r0]
 800aa6e:	f89d 3017 	ldrb.w	r3, [sp, #23]
 800aa72:	1ce0      	adds	r0, r4, #3
 800aa74:	b313      	cbz	r3, 800aabc <Ymodem_Transmit+0xc8>
 800aa76:	f808 3000 	strb.w	r3, [r8, r0]
 800aa7a:	f89d 3018 	ldrb.w	r3, [sp, #24]
 800aa7e:	1d20      	adds	r0, r4, #4
 800aa80:	b1e3      	cbz	r3, 800aabc <Ymodem_Transmit+0xc8>
 800aa82:	f808 3000 	strb.w	r3, [r8, r0]
 800aa86:	f89d 3019 	ldrb.w	r3, [sp, #25]
 800aa8a:	1d60      	adds	r0, r4, #5
 800aa8c:	b1b3      	cbz	r3, 800aabc <Ymodem_Transmit+0xc8>
 800aa8e:	f808 3000 	strb.w	r3, [r8, r0]
 800aa92:	f89d 301a 	ldrb.w	r3, [sp, #26]
 800aa96:	1da0      	adds	r0, r4, #6
 800aa98:	b183      	cbz	r3, 800aabc <Ymodem_Transmit+0xc8>
 800aa9a:	f808 3000 	strb.w	r3, [r8, r0]
 800aa9e:	f89d 301b 	ldrb.w	r3, [sp, #27]
 800aaa2:	1de0      	adds	r0, r4, #7
 800aaa4:	b153      	cbz	r3, 800aabc <Ymodem_Transmit+0xc8>
 800aaa6:	f808 3000 	strb.w	r3, [r8, r0]
 800aaaa:	f89d 301c 	ldrb.w	r3, [sp, #28]
 800aaae:	f104 0008 	add.w	r0, r4, #8
 800aab2:	b11b      	cbz	r3, 800aabc <Ymodem_Transmit+0xc8>
 800aab4:	f808 3000 	strb.w	r3, [r8, r0]
 800aab8:	f104 0009 	add.w	r0, r4, #9
 800aabc:	2500      	movs	r5, #0
 800aabe:	f241 0421 	movw	r4, #4129	; 0x1021
 800aac2:	1c43      	adds	r3, r0, #1
 800aac4:	2b84      	cmp	r3, #132	; 0x84
 800aac6:	f1c0 0284 	rsb	r2, r0, #132	; 0x84
 800aaca:	f04f 0100 	mov.w	r1, #0
 800aace:	bf88      	it	hi
 800aad0:	2201      	movhi	r2, #1
 800aad2:	4440      	add	r0, r8
 800aad4:	f000 fb80 	bl	800b1d8 <memset>
 800aad8:	4b41      	ldr	r3, [pc, #260]	; (800abe0 <Ymodem_Transmit+0x1ec>)
 800aada:	4e42      	ldr	r6, [pc, #264]	; (800abe4 <Ymodem_Transmit+0x1f0>)
 800aadc:	1edf      	subs	r7, r3, #3
 800aade:	f44f 1380 	mov.w	r3, #1048576	; 0x100000
 800aae2:	4639      	mov	r1, r7
 800aae4:	2283      	movs	r2, #131	; 0x83
 800aae6:	6830      	ldr	r0, [r6, #0]
 800aae8:	f7fd fb68 	bl	80081bc <HAL_UART_Transmit>
 800aaec:	2300      	movs	r3, #0
 800aaee:	493c      	ldr	r1, [pc, #240]	; (800abe0 <Ymodem_Transmit+0x1ec>)
 800aaf0:	f811 2b01 	ldrb.w	r2, [r1], #1
 800aaf4:	f442 7280 	orr.w	r2, r2, #256	; 0x100
 800aaf8:	0052      	lsls	r2, r2, #1
 800aafa:	005b      	lsls	r3, r3, #1
 800aafc:	05d0      	lsls	r0, r2, #23
 800aafe:	bf48      	it	mi
 800ab00:	3301      	addmi	r3, #1
 800ab02:	03d8      	lsls	r0, r3, #15
 800ab04:	bf48      	it	mi
 800ab06:	4063      	eormi	r3, r4
 800ab08:	03d0      	lsls	r0, r2, #15
 800ab0a:	d5f5      	bpl.n	800aaf8 <Ymodem_Transmit+0x104>
 800ab0c:	4a36      	ldr	r2, [pc, #216]	; (800abe8 <Ymodem_Transmit+0x1f4>)
 800ab0e:	b29b      	uxth	r3, r3
 800ab10:	4291      	cmp	r1, r2
 800ab12:	d1ed      	bne.n	800aaf0 <Ymodem_Transmit+0xfc>
 800ab14:	0059      	lsls	r1, r3, #1
 800ab16:	0bdb      	lsrs	r3, r3, #15
 800ab18:	bf18      	it	ne
 800ab1a:	4061      	eorne	r1, r4
 800ab1c:	004a      	lsls	r2, r1, #1
 800ab1e:	0409      	lsls	r1, r1, #16
 800ab20:	bf48      	it	mi
 800ab22:	4062      	eormi	r2, r4
 800ab24:	0053      	lsls	r3, r2, #1
 800ab26:	0412      	lsls	r2, r2, #16
 800ab28:	bf48      	it	mi
 800ab2a:	4063      	eormi	r3, r4
 800ab2c:	005a      	lsls	r2, r3, #1
 800ab2e:	041b      	lsls	r3, r3, #16
 800ab30:	bf48      	it	mi
 800ab32:	4062      	eormi	r2, r4
 800ab34:	0053      	lsls	r3, r2, #1
 800ab36:	0410      	lsls	r0, r2, #16
 800ab38:	bf48      	it	mi
 800ab3a:	4063      	eormi	r3, r4
 800ab3c:	005a      	lsls	r2, r3, #1
 800ab3e:	0419      	lsls	r1, r3, #16
 800ab40:	bf48      	it	mi
 800ab42:	4062      	eormi	r2, r4
 800ab44:	0053      	lsls	r3, r2, #1
 800ab46:	0412      	lsls	r2, r2, #16
 800ab48:	bf48      	it	mi
 800ab4a:	4063      	eormi	r3, r4
 800ab4c:	005a      	lsls	r2, r3, #1
 800ab4e:	041b      	lsls	r3, r3, #16
 800ab50:	4b26      	ldr	r3, [pc, #152]	; (800abec <Ymodem_Transmit+0x1f8>)
 800ab52:	bf48      	it	mi
 800ab54:	4062      	eormi	r2, r4
 800ab56:	ea03 0342 	and.w	r3, r3, r2, lsl #1
 800ab5a:	0410      	lsls	r0, r2, #16
 800ab5c:	bf48      	it	mi
 800ab5e:	4063      	eormi	r3, r4
 800ab60:	005a      	lsls	r2, r3, #1
 800ab62:	0419      	lsls	r1, r3, #16
 800ab64:	bf48      	it	mi
 800ab66:	4062      	eormi	r2, r4
 800ab68:	0053      	lsls	r3, r2, #1
 800ab6a:	0412      	lsls	r2, r2, #16
 800ab6c:	bf48      	it	mi
 800ab6e:	4063      	eormi	r3, r4
 800ab70:	005a      	lsls	r2, r3, #1
 800ab72:	041b      	lsls	r3, r3, #16
 800ab74:	bf48      	it	mi
 800ab76:	4062      	eormi	r2, r4
 800ab78:	0053      	lsls	r3, r2, #1
 800ab7a:	0410      	lsls	r0, r2, #16
 800ab7c:	bf48      	it	mi
 800ab7e:	4063      	eormi	r3, r4
 800ab80:	005a      	lsls	r2, r3, #1
 800ab82:	0419      	lsls	r1, r3, #16
 800ab84:	bf48      	it	mi
 800ab86:	4062      	eormi	r2, r4
 800ab88:	0053      	lsls	r3, r2, #1
 800ab8a:	0412      	lsls	r2, r2, #16
 800ab8c:	bf48      	it	mi
 800ab8e:	4063      	eormi	r3, r4
 800ab90:	ea4f 0943 	mov.w	r9, r3, lsl #1
 800ab94:	041b      	lsls	r3, r3, #16
 800ab96:	bf48      	it	mi
 800ab98:	ea89 0904 	eormi.w	r9, r9, r4
 800ab9c:	f3c9 2007 	ubfx	r0, r9, #8, #8
 800aba0:	f7fe fc1c 	bl	80093dc <Serial_PutByte>
 800aba4:	fa5f f089 	uxtb.w	r0, r9
 800aba8:	f7fe fc18 	bl	80093dc <Serial_PutByte>
 800abac:	f44f 1380 	mov.w	r3, #1048576	; 0x100000
 800abb0:	2201      	movs	r2, #1
 800abb2:	6830      	ldr	r0, [r6, #0]
 800abb4:	a905      	add	r1, sp, #20
 800abb6:	f7fd fb89 	bl	80082cc <HAL_UART_Receive>
 800abba:	b968      	cbnz	r0, 800abd8 <Ymodem_Transmit+0x1e4>
 800abbc:	f89d 3014 	ldrb.w	r3, [sp, #20]
 800abc0:	2b06      	cmp	r3, #6
 800abc2:	d015      	beq.n	800abf0 <Ymodem_Transmit+0x1fc>
 800abc4:	2b18      	cmp	r3, #24
 800abc6:	f000 820d 	beq.w	800afe4 <Ymodem_Transmit+0x5f0>
 800abca:	2d04      	cmp	r5, #4
 800abcc:	d987      	bls.n	800aade <Ymodem_Transmit+0xea>
 800abce:	2401      	movs	r4, #1
 800abd0:	4620      	mov	r0, r4
 800abd2:	b009      	add	sp, #36	; 0x24
 800abd4:	e8bd 8ff0 	ldmia.w	sp!, {r4, r5, r6, r7, r8, r9, sl, fp, pc}
 800abd8:	3501      	adds	r5, #1
 800abda:	e7f6      	b.n	800abca <Ymodem_Transmit+0x1d6>
 800abdc:	20000b38 	.word	0x20000b38
 800abe0:	20000b3c 	.word	0x20000b3c
 800abe4:	20000130 	.word	0x20000130
 800abe8:	20000bbc 	.word	0x20000bbc
 800abec:	0001fffe 	.word	0x0001fffe
 800abf0:	2d04      	cmp	r5, #4
 800abf2:	d8ec      	bhi.n	800abce <Ymodem_Transmit+0x1da>
 800abf4:	9b00      	ldr	r3, [sp, #0]
 800abf6:	2b00      	cmp	r3, #0
 800abf8:	f000 80f1 	beq.w	800adde <Ymodem_Transmit+0x3ea>
 800abfc:	2301      	movs	r3, #1
 800abfe:	f241 0421 	movw	r4, #4129	; 0x1021
 800ac02:	f8df a254 	ldr.w	sl, [pc, #596]	; 800ae58 <Ymodem_Transmit+0x464>
 800ac06:	9302      	str	r3, [sp, #8]
 800ac08:	9a00      	ldr	r2, [sp, #0]
 800ac0a:	f89d 3008 	ldrb.w	r3, [sp, #8]
 800ac0e:	f5b2 6f80 	cmp.w	r2, #1024	; 0x400
 800ac12:	f080 8114 	bcs.w	800ae3e <Ymodem_Transmit+0x44a>
 800ac16:	2a80      	cmp	r2, #128	; 0x80
 800ac18:	bf28      	it	cs
 800ac1a:	2280      	movcs	r2, #128	; 0x80
 800ac1c:	4694      	mov	ip, r2
 800ac1e:	2780      	movs	r7, #128	; 0x80
 800ac20:	2201      	movs	r2, #1
 800ac22:	f10c 0004 	add.w	r0, ip, #4
 800ac26:	f888 3002 	strb.w	r3, [r8, #2]
 800ac2a:	43db      	mvns	r3, r3
 800ac2c:	f888 2001 	strb.w	r2, [r8, #1]
 800ac30:	9a01      	ldr	r2, [sp, #4]
 800ac32:	498a      	ldr	r1, [pc, #552]	; (800ae5c <Ymodem_Transmit+0x468>)
 800ac34:	f888 3003 	strb.w	r3, [r8, #3]
 800ac38:	1c53      	adds	r3, r2, #1
 800ac3a:	1acb      	subs	r3, r1, r3
 800ac3c:	2b02      	cmp	r3, #2
 800ac3e:	f240 81c5 	bls.w	800afcc <Ymodem_Transmit+0x5d8>
 800ac42:	1f43      	subs	r3, r0, #5
 800ac44:	2b07      	cmp	r3, #7
 800ac46:	f240 81c1 	bls.w	800afcc <Ymodem_Transmit+0x5d8>
 800ac4a:	f1a0 0e04 	sub.w	lr, r0, #4
 800ac4e:	f02e 0503 	bic.w	r5, lr, #3
 800ac52:	4613      	mov	r3, r2
 800ac54:	4415      	add	r5, r2
 800ac56:	460a      	mov	r2, r1
 800ac58:	f853 1b04 	ldr.w	r1, [r3], #4
 800ac5c:	429d      	cmp	r5, r3
 800ac5e:	f842 1b04 	str.w	r1, [r2], #4
 800ac62:	d1f9      	bne.n	800ac58 <Ymodem_Transmit+0x264>
 800ac64:	f02e 0303 	bic.w	r3, lr, #3
 800ac68:	9d01      	ldr	r5, [sp, #4]
 800ac6a:	4573      	cmp	r3, lr
 800ac6c:	eb05 0203 	add.w	r2, r5, r3
 800ac70:	f103 0104 	add.w	r1, r3, #4
 800ac74:	d00e      	beq.n	800ac94 <Ymodem_Transmit+0x2a0>
 800ac76:	5ced      	ldrb	r5, [r5, r3]
 800ac78:	f808 5001 	strb.w	r5, [r8, r1]
 800ac7c:	1d59      	adds	r1, r3, #5
 800ac7e:	4288      	cmp	r0, r1
 800ac80:	d908      	bls.n	800ac94 <Ymodem_Transmit+0x2a0>
 800ac82:	7855      	ldrb	r5, [r2, #1]
 800ac84:	3306      	adds	r3, #6
 800ac86:	4298      	cmp	r0, r3
 800ac88:	f808 5001 	strb.w	r5, [r8, r1]
 800ac8c:	d902      	bls.n	800ac94 <Ymodem_Transmit+0x2a0>
 800ac8e:	7892      	ldrb	r2, [r2, #2]
 800ac90:	f808 2003 	strb.w	r2, [r8, r3]
 800ac94:	45bc      	cmp	ip, r7
 800ac96:	d807      	bhi.n	800aca8 <Ymodem_Transmit+0x2b4>
 800ac98:	1d3a      	adds	r2, r7, #4
 800ac9a:	4290      	cmp	r0, r2
 800ac9c:	d204      	bcs.n	800aca8 <Ymodem_Transmit+0x2b4>
 800ac9e:	1a12      	subs	r2, r2, r0
 800aca0:	211a      	movs	r1, #26
 800aca2:	4440      	add	r0, r8
 800aca4:	f000 fa98 	bl	800b1d8 <memset>
 800aca8:	9b00      	ldr	r3, [sp, #0]
 800acaa:	f240 4903 	movw	r9, #1027	; 0x403
 800acae:	f5b3 6f80 	cmp.w	r3, #1024	; 0x400
 800acb2:	f04f 0300 	mov.w	r3, #0
 800acb6:	bf2c      	ite	cs
 800acb8:	f44f 6280 	movcs.w	r2, #1024	; 0x400
 800acbc:	2280      	movcc	r2, #128	; 0x80
 800acbe:	f04f 0705 	mov.w	r7, #5
 800acc2:	bf38      	it	cc
 800acc4:	f04f 0983 	movcc.w	r9, #131	; 0x83
 800acc8:	f88d 3014 	strb.w	r3, [sp, #20]
 800accc:	4b63      	ldr	r3, [pc, #396]	; (800ae5c <Ymodem_Transmit+0x468>)
 800acce:	9203      	str	r2, [sp, #12]
 800acd0:	189d      	adds	r5, r3, r2
 800acd2:	f44f 1380 	mov.w	r3, #1048576	; 0x100000
 800acd6:	4651      	mov	r1, sl
 800acd8:	464a      	mov	r2, r9
 800acda:	6830      	ldr	r0, [r6, #0]
 800acdc:	f7fd fa6e 	bl	80081bc <HAL_UART_Transmit>
 800ace0:	2300      	movs	r3, #0
 800ace2:	495e      	ldr	r1, [pc, #376]	; (800ae5c <Ymodem_Transmit+0x468>)
 800ace4:	f811 2b01 	ldrb.w	r2, [r1], #1
 800ace8:	f442 7280 	orr.w	r2, r2, #256	; 0x100
 800acec:	0052      	lsls	r2, r2, #1
 800acee:	005b      	lsls	r3, r3, #1
 800acf0:	05d0      	lsls	r0, r2, #23
 800acf2:	bf48      	it	mi
 800acf4:	3301      	addmi	r3, #1
 800acf6:	03d8      	lsls	r0, r3, #15
 800acf8:	bf48      	it	mi
 800acfa:	4063      	eormi	r3, r4
 800acfc:	03d0      	lsls	r0, r2, #15
 800acfe:	d5f5      	bpl.n	800acec <Ymodem_Transmit+0x2f8>
 800ad00:	42a9      	cmp	r1, r5
 800ad02:	b29b      	uxth	r3, r3
 800ad04:	d3ee      	bcc.n	800ace4 <Ymodem_Transmit+0x2f0>
 800ad06:	0059      	lsls	r1, r3, #1
 800ad08:	0bdb      	lsrs	r3, r3, #15
 800ad0a:	bf18      	it	ne
 800ad0c:	4061      	eorne	r1, r4
 800ad0e:	004a      	lsls	r2, r1, #1
 800ad10:	0409      	lsls	r1, r1, #16
 800ad12:	bf48      	it	mi
 800ad14:	4062      	eormi	r2, r4
 800ad16:	0053      	lsls	r3, r2, #1
 800ad18:	0412      	lsls	r2, r2, #16
 800ad1a:	bf48      	it	mi
 800ad1c:	4063      	eormi	r3, r4
 800ad1e:	005a      	lsls	r2, r3, #1
 800ad20:	041b      	lsls	r3, r3, #16
 800ad22:	bf48      	it	mi
 800ad24:	4062      	eormi	r2, r4
 800ad26:	0053      	lsls	r3, r2, #1
 800ad28:	0410      	lsls	r0, r2, #16
 800ad2a:	bf48      	it	mi
 800ad2c:	4063      	eormi	r3, r4
 800ad2e:	005a      	lsls	r2, r3, #1
 800ad30:	0419      	lsls	r1, r3, #16
 800ad32:	bf48      	it	mi
 800ad34:	4062      	eormi	r2, r4
 800ad36:	0053      	lsls	r3, r2, #1
 800ad38:	0412      	lsls	r2, r2, #16
 800ad3a:	bf48      	it	mi
 800ad3c:	4063      	eormi	r3, r4
 800ad3e:	005a      	lsls	r2, r3, #1
 800ad40:	041b      	lsls	r3, r3, #16
 800ad42:	4b47      	ldr	r3, [pc, #284]	; (800ae60 <Ymodem_Transmit+0x46c>)
 800ad44:	bf48      	it	mi
 800ad46:	4062      	eormi	r2, r4
 800ad48:	ea03 0342 	and.w	r3, r3, r2, lsl #1
 800ad4c:	0410      	lsls	r0, r2, #16
 800ad4e:	bf48      	it	mi
 800ad50:	4063      	eormi	r3, r4
 800ad52:	005a      	lsls	r2, r3, #1
 800ad54:	0419      	lsls	r1, r3, #16
 800ad56:	bf48      	it	mi
 800ad58:	4062      	eormi	r2, r4
 800ad5a:	0053      	lsls	r3, r2, #1
 800ad5c:	0412      	lsls	r2, r2, #16
 800ad5e:	bf48      	it	mi
 800ad60:	4063      	eormi	r3, r4
 800ad62:	005a      	lsls	r2, r3, #1
 800ad64:	041b      	lsls	r3, r3, #16
 800ad66:	bf48      	it	mi
 800ad68:	4062      	eormi	r2, r4
 800ad6a:	0053      	lsls	r3, r2, #1
 800ad6c:	0410      	lsls	r0, r2, #16
 800ad6e:	bf48      	it	mi
 800ad70:	4063      	eormi	r3, r4
 800ad72:	005a      	lsls	r2, r3, #1
 800ad74:	0419      	lsls	r1, r3, #16
 800ad76:	bf48      	it	mi
 800ad78:	4062      	eormi	r2, r4
 800ad7a:	0053      	lsls	r3, r2, #1
 800ad7c:	0412      	lsls	r2, r2, #16
 800ad7e:	bf48      	it	mi
 800ad80:	4063      	eormi	r3, r4
 800ad82:	ea4f 0b43 	mov.w	fp, r3, lsl #1
 800ad86:	041b      	lsls	r3, r3, #16
 800ad88:	bf48      	it	mi
 800ad8a:	ea8b 0b04 	eormi.w	fp, fp, r4
 800ad8e:	f3cb 2007 	ubfx	r0, fp, #8, #8
 800ad92:	f7fe fb23 	bl	80093dc <Serial_PutByte>
 800ad96:	fa5f f08b 	uxtb.w	r0, fp
 800ad9a:	f7fe fb1f 	bl	80093dc <Serial_PutByte>
 800ad9e:	f44f 1380 	mov.w	r3, #1048576	; 0x100000
 800ada2:	2201      	movs	r2, #1
 800ada4:	6830      	ldr	r0, [r6, #0]
 800ada6:	a905      	add	r1, sp, #20
 800ada8:	f7fd fa90 	bl	80082cc <HAL_UART_Receive>
 800adac:	b918      	cbnz	r0, 800adb6 <Ymodem_Transmit+0x3c2>
 800adae:	f89d 3014 	ldrb.w	r3, [sp, #20]
 800adb2:	2b06      	cmp	r3, #6
 800adb4:	d003      	beq.n	800adbe <Ymodem_Transmit+0x3ca>
 800adb6:	3f01      	subs	r7, #1
 800adb8:	f43f af09 	beq.w	800abce <Ymodem_Transmit+0x1da>
 800adbc:	e789      	b.n	800acd2 <Ymodem_Transmit+0x2de>
 800adbe:	9a03      	ldr	r2, [sp, #12]
 800adc0:	9900      	ldr	r1, [sp, #0]
 800adc2:	428a      	cmp	r2, r1
 800adc4:	d20b      	bcs.n	800adde <Ymodem_Transmit+0x3ea>
 800adc6:	9b01      	ldr	r3, [sp, #4]
 800adc8:	4413      	add	r3, r2
 800adca:	9301      	str	r3, [sp, #4]
 800adcc:	9b02      	ldr	r3, [sp, #8]
 800adce:	2b0c      	cmp	r3, #12
 800add0:	d03c      	beq.n	800ae4c <Ymodem_Transmit+0x458>
 800add2:	3301      	adds	r3, #1
 800add4:	9302      	str	r3, [sp, #8]
 800add6:	1a8b      	subs	r3, r1, r2
 800add8:	9300      	str	r3, [sp, #0]
 800adda:	f47f af15 	bne.w	800ac08 <Ymodem_Transmit+0x214>
 800adde:	2300      	movs	r3, #0
 800ade0:	461d      	mov	r5, r3
 800ade2:	f88d 3014 	strb.w	r3, [sp, #20]
 800ade6:	2004      	movs	r0, #4
 800ade8:	f7fe faf8 	bl	80093dc <Serial_PutByte>
 800adec:	f44f 1380 	mov.w	r3, #1048576	; 0x100000
 800adf0:	2201      	movs	r2, #1
 800adf2:	6830      	ldr	r0, [r6, #0]
 800adf4:	a905      	add	r1, sp, #20
 800adf6:	f7fd fa69 	bl	80082cc <HAL_UART_Receive>
 800adfa:	4604      	mov	r4, r0
 800adfc:	b9d0      	cbnz	r0, 800ae34 <Ymodem_Transmit+0x440>
 800adfe:	f89d 3014 	ldrb.w	r3, [sp, #20]
 800ae02:	2b06      	cmp	r3, #6
 800ae04:	d02e      	beq.n	800ae64 <Ymodem_Transmit+0x470>
 800ae06:	2b18      	cmp	r3, #24
 800ae08:	d1ed      	bne.n	800ade6 <Ymodem_Transmit+0x3f2>
 800ae0a:	f44f 1380 	mov.w	r3, #1048576	; 0x100000
 800ae0e:	2201      	movs	r2, #1
 800ae10:	6830      	ldr	r0, [r6, #0]
 800ae12:	a905      	add	r1, sp, #20
 800ae14:	f7fd fa5a 	bl	80082cc <HAL_UART_Receive>
 800ae18:	2800      	cmp	r0, #0
 800ae1a:	d1e4      	bne.n	800ade6 <Ymodem_Transmit+0x3f2>
 800ae1c:	f89d 3014 	ldrb.w	r3, [sp, #20]
 800ae20:	2b18      	cmp	r3, #24
 800ae22:	d1e0      	bne.n	800ade6 <Ymodem_Transmit+0x3f2>
 800ae24:	2002      	movs	r0, #2
 800ae26:	f7fa fbeb 	bl	8005600 <HAL_Delay>
 800ae2a:	6833      	ldr	r3, [r6, #0]
 800ae2c:	2402      	movs	r4, #2
 800ae2e:	681b      	ldr	r3, [r3, #0]
 800ae30:	685b      	ldr	r3, [r3, #4]
 800ae32:	e6cd      	b.n	800abd0 <Ymodem_Transmit+0x1dc>
 800ae34:	3501      	adds	r5, #1
 800ae36:	2d05      	cmp	r5, #5
 800ae38:	f43f aec9 	beq.w	800abce <Ymodem_Transmit+0x1da>
 800ae3c:	e7d3      	b.n	800ade6 <Ymodem_Transmit+0x3f2>
 800ae3e:	f44f 6c80 	mov.w	ip, #1024	; 0x400
 800ae42:	f240 4004 	movw	r0, #1028	; 0x404
 800ae46:	2202      	movs	r2, #2
 800ae48:	4667      	mov	r7, ip
 800ae4a:	e6ec      	b.n	800ac26 <Ymodem_Transmit+0x232>
 800ae4c:	2405      	movs	r4, #5
 800ae4e:	4620      	mov	r0, r4
 800ae50:	b009      	add	sp, #36	; 0x24
 800ae52:	e8bd 8ff0 	ldmia.w	sp!, {r4, r5, r6, r7, r8, r9, sl, fp, pc}
 800ae56:	bf00      	nop
 800ae58:	20000b39 	.word	0x20000b39
 800ae5c:	20000b3c 	.word	0x20000b3c
 800ae60:	0001fffe 	.word	0x0001fffe
 800ae64:	23ff      	movs	r3, #255	; 0xff
 800ae66:	2501      	movs	r5, #1
 800ae68:	4601      	mov	r1, r0
 800ae6a:	2280      	movs	r2, #128	; 0x80
 800ae6c:	486e      	ldr	r0, [pc, #440]	; (800b028 <Ymodem_Transmit+0x634>)
 800ae6e:	f888 3003 	strb.w	r3, [r8, #3]
 800ae72:	f8a8 5001 	strh.w	r5, [r8, #1]
 800ae76:	f000 f9af 	bl	800b1d8 <memset>
 800ae7a:	f44f 1380 	mov.w	r3, #1048576	; 0x100000
 800ae7e:	496b      	ldr	r1, [pc, #428]	; (800b02c <Ymodem_Transmit+0x638>)
 800ae80:	2283      	movs	r2, #131	; 0x83
 800ae82:	6830      	ldr	r0, [r6, #0]
 800ae84:	f7fd f99a 	bl	80081bc <HAL_UART_Transmit>
 800ae88:	4623      	mov	r3, r4
 800ae8a:	f241 0021 	movw	r0, #4129	; 0x1021
 800ae8e:	4966      	ldr	r1, [pc, #408]	; (800b028 <Ymodem_Transmit+0x634>)
 800ae90:	f811 2b01 	ldrb.w	r2, [r1], #1
 800ae94:	f442 7280 	orr.w	r2, r2, #256	; 0x100
 800ae98:	0052      	lsls	r2, r2, #1
 800ae9a:	005b      	lsls	r3, r3, #1
 800ae9c:	05d5      	lsls	r5, r2, #23
 800ae9e:	bf48      	it	mi
 800aea0:	3301      	addmi	r3, #1
 800aea2:	03df      	lsls	r7, r3, #15
 800aea4:	bf48      	it	mi
 800aea6:	4043      	eormi	r3, r0
 800aea8:	03d5      	lsls	r5, r2, #15
 800aeaa:	d5f5      	bpl.n	800ae98 <Ymodem_Transmit+0x4a4>
 800aeac:	4a60      	ldr	r2, [pc, #384]	; (800b030 <Ymodem_Transmit+0x63c>)
 800aeae:	b29b      	uxth	r3, r3
 800aeb0:	4291      	cmp	r1, r2
 800aeb2:	d1ed      	bne.n	800ae90 <Ymodem_Transmit+0x49c>
 800aeb4:	0059      	lsls	r1, r3, #1
 800aeb6:	0bdb      	lsrs	r3, r3, #15
 800aeb8:	bf1c      	itt	ne
 800aeba:	f481 5181 	eorne.w	r1, r1, #4128	; 0x1020
 800aebe:	f081 0101 	eorne.w	r1, r1, #1
 800aec2:	004a      	lsls	r2, r1, #1
 800aec4:	0409      	lsls	r1, r1, #16
 800aec6:	bf44      	itt	mi
 800aec8:	f482 5281 	eormi.w	r2, r2, #4128	; 0x1020
 800aecc:	f082 0201 	eormi.w	r2, r2, #1
 800aed0:	0053      	lsls	r3, r2, #1
 800aed2:	0412      	lsls	r2, r2, #16
 800aed4:	bf44      	itt	mi
 800aed6:	f483 5381 	eormi.w	r3, r3, #4128	; 0x1020
 800aeda:	f083 0301 	eormi.w	r3, r3, #1
 800aede:	005a      	lsls	r2, r3, #1
 800aee0:	041b      	lsls	r3, r3, #16
 800aee2:	bf44      	itt	mi
 800aee4:	f482 5281 	eormi.w	r2, r2, #4128	; 0x1020
 800aee8:	f082 0201 	eormi.w	r2, r2, #1
 800aeec:	0053      	lsls	r3, r2, #1
 800aeee:	0417      	lsls	r7, r2, #16
 800aef0:	bf44      	itt	mi
 800aef2:	f483 5381 	eormi.w	r3, r3, #4128	; 0x1020
 800aef6:	f083 0301 	eormi.w	r3, r3, #1
 800aefa:	005a      	lsls	r2, r3, #1
 800aefc:	041d      	lsls	r5, r3, #16
 800aefe:	bf44      	itt	mi
 800af00:	f482 5281 	eormi.w	r2, r2, #4128	; 0x1020
 800af04:	f082 0201 	eormi.w	r2, r2, #1
 800af08:	0053      	lsls	r3, r2, #1
 800af0a:	0410      	lsls	r0, r2, #16
 800af0c:	bf44      	itt	mi
 800af0e:	f483 5381 	eormi.w	r3, r3, #4128	; 0x1020
 800af12:	f083 0301 	eormi.w	r3, r3, #1
 800af16:	005a      	lsls	r2, r3, #1
 800af18:	0419      	lsls	r1, r3, #16
 800af1a:	bf48      	it	mi
 800af1c:	f482 5281 	eormi.w	r2, r2, #4128	; 0x1020
 800af20:	4b44      	ldr	r3, [pc, #272]	; (800b034 <Ymodem_Transmit+0x640>)
 800af22:	bf48      	it	mi
 800af24:	f082 0201 	eormi.w	r2, r2, #1
 800af28:	ea03 0342 	and.w	r3, r3, r2, lsl #1
 800af2c:	0412      	lsls	r2, r2, #16
 800af2e:	bf44      	itt	mi
 800af30:	f483 5381 	eormi.w	r3, r3, #4128	; 0x1020
 800af34:	f083 0301 	eormi.w	r3, r3, #1
 800af38:	005a      	lsls	r2, r3, #1
 800af3a:	041b      	lsls	r3, r3, #16
 800af3c:	bf44      	itt	mi
 800af3e:	f482 5281 	eormi.w	r2, r2, #4128	; 0x1020
 800af42:	f082 0201 	eormi.w	r2, r2, #1
 800af46:	0053      	lsls	r3, r2, #1
 800af48:	0417      	lsls	r7, r2, #16
 800af4a:	bf44      	itt	mi
 800af4c:	f483 5381 	eormi.w	r3, r3, #4128	; 0x1020
 800af50:	f083 0301 	eormi.w	r3, r3, #1
 800af54:	005a      	lsls	r2, r3, #1
 800af56:	041d      	lsls	r5, r3, #16
 800af58:	bf44      	itt	mi
 800af5a:	f482 5281 	eormi.w	r2, r2, #4128	; 0x1020
 800af5e:	f082 0201 	eormi.w	r2, r2, #1
 800af62:	0053      	lsls	r3, r2, #1
 800af64:	0410      	lsls	r0, r2, #16
 800af66:	bf44      	itt	mi
 800af68:	f483 5381 	eormi.w	r3, r3, #4128	; 0x1020
 800af6c:	f083 0301 	eormi.w	r3, r3, #1
 800af70:	005a      	lsls	r2, r3, #1
 800af72:	0419      	lsls	r1, r3, #16
 800af74:	bf44      	itt	mi
 800af76:	f482 5281 	eormi.w	r2, r2, #4128	; 0x1020
 800af7a:	f082 0201 	eormi.w	r2, r2, #1
 800af7e:	0053      	lsls	r3, r2, #1
 800af80:	0412      	lsls	r2, r2, #16
 800af82:	bf44      	itt	mi
 800af84:	f483 5381 	eormi.w	r3, r3, #4128	; 0x1020
 800af88:	f083 0301 	eormi.w	r3, r3, #1
 800af8c:	005d      	lsls	r5, r3, #1
 800af8e:	041b      	lsls	r3, r3, #16
 800af90:	bf44      	itt	mi
 800af92:	f485 5581 	eormi.w	r5, r5, #4128	; 0x1020
 800af96:	f085 0501 	eormi.w	r5, r5, #1
 800af9a:	f3c5 2007 	ubfx	r0, r5, #8, #8
 800af9e:	f7fe fa1d 	bl	80093dc <Serial_PutByte>
 800afa2:	b2e8      	uxtb	r0, r5
 800afa4:	f7fe fa1a 	bl	80093dc <Serial_PutByte>
 800afa8:	f44f 1380 	mov.w	r3, #1048576	; 0x100000
 800afac:	2201      	movs	r2, #1
 800afae:	6830      	ldr	r0, [r6, #0]
 800afb0:	a905      	add	r1, sp, #20
 800afb2:	f7fd f98b 	bl	80082cc <HAL_UART_Receive>
 800afb6:	2800      	cmp	r0, #0
 800afb8:	f47f ae0a 	bne.w	800abd0 <Ymodem_Transmit+0x1dc>
 800afbc:	f89d 2014 	ldrb.w	r2, [sp, #20]
 800afc0:	2a18      	cmp	r2, #24
 800afc2:	bf18      	it	ne
 800afc4:	4604      	movne	r4, r0
 800afc6:	f47f ae03 	bne.w	800abd0 <Ymodem_Transmit+0x1dc>
 800afca:	e72b      	b.n	800ae24 <Ymodem_Transmit+0x430>
 800afcc:	9a01      	ldr	r2, [sp, #4]
 800afce:	1f01      	subs	r1, r0, #4
 800afd0:	4613      	mov	r3, r2
 800afd2:	4411      	add	r1, r2
 800afd4:	4a18      	ldr	r2, [pc, #96]	; (800b038 <Ymodem_Transmit+0x644>)
 800afd6:	f813 5b01 	ldrb.w	r5, [r3], #1
 800afda:	4299      	cmp	r1, r3
 800afdc:	f802 5f01 	strb.w	r5, [r2, #1]!
 800afe0:	d1f9      	bne.n	800afd6 <Ymodem_Transmit+0x5e2>
 800afe2:	e657      	b.n	800ac94 <Ymodem_Transmit+0x2a0>
 800afe4:	f44f 1380 	mov.w	r3, #1048576	; 0x100000
 800afe8:	2201      	movs	r2, #1
 800afea:	6830      	ldr	r0, [r6, #0]
 800afec:	a905      	add	r1, sp, #20
 800afee:	f7fd f96d 	bl	80082cc <HAL_UART_Receive>
 800aff2:	2800      	cmp	r0, #0
 800aff4:	f47f ade9 	bne.w	800abca <Ymodem_Transmit+0x1d6>
 800aff8:	f89d 3014 	ldrb.w	r3, [sp, #20]
 800affc:	2b18      	cmp	r3, #24
 800affe:	f47f ade4 	bne.w	800abca <Ymodem_Transmit+0x1d6>
 800b002:	2002      	movs	r0, #2
 800b004:	f7fa fafc 	bl	8005600 <HAL_Delay>
 800b008:	6833      	ldr	r3, [r6, #0]
 800b00a:	2d04      	cmp	r5, #4
 800b00c:	681b      	ldr	r3, [r3, #0]
 800b00e:	685b      	ldr	r3, [r3, #4]
 800b010:	f63f addd 	bhi.w	800abce <Ymodem_Transmit+0x1da>
 800b014:	2402      	movs	r4, #2
 800b016:	e5db      	b.n	800abd0 <Ymodem_Transmit+0x1dc>
 800b018:	2405      	movs	r4, #5
 800b01a:	2304      	movs	r3, #4
 800b01c:	e50d      	b.n	800aa3a <Ymodem_Transmit+0x46>
 800b01e:	2445      	movs	r4, #69	; 0x45
 800b020:	2344      	movs	r3, #68	; 0x44
 800b022:	e50a      	b.n	800aa3a <Ymodem_Transmit+0x46>
 800b024:	4620      	mov	r0, r4
 800b026:	e549      	b.n	800aabc <Ymodem_Transmit+0xc8>
 800b028:	20000b3c 	.word	0x20000b3c
 800b02c:	20000b39 	.word	0x20000b39
 800b030:	20000bbc 	.word	0x20000bbc
 800b034:	0001fffe 	.word	0x0001fffe
 800b038:	20000b3b 	.word	0x20000b3b

0800b03c <cmd_ymodem>:
 800b03c:	b530      	push	{r4, r5, lr}
 800b03e:	2802      	cmp	r0, #2
 800b040:	b083      	sub	sp, #12
 800b042:	d047      	beq.n	800b0d4 <cmd_ymodem+0x98>
 800b044:	2803      	cmp	r0, #3
 800b046:	d147      	bne.n	800b0d8 <cmd_ymodem+0x9c>
 800b048:	688d      	ldr	r5, [r1, #8]
 800b04a:	2300      	movs	r3, #0
 800b04c:	684c      	ldr	r4, [r1, #4]
 800b04e:	461a      	mov	r2, r3
 800b050:	4619      	mov	r1, r3
 800b052:	4618      	mov	r0, r3
 800b054:	f7ff fa1a 	bl	800a48c <SerialInit>
 800b058:	482f      	ldr	r0, [pc, #188]	; (800b118 <cmd_ymodem+0xdc>)
 800b05a:	f7fe f9d1 	bl	8009400 <SetYmodemUart>
 800b05e:	4b2f      	ldr	r3, [pc, #188]	; (800b11c <cmd_ymodem+0xe0>)
 800b060:	6818      	ldr	r0, [r3, #0]
 800b062:	f7fd fae7 	bl	8008634 <HAL_UART_AbortReceive_IT>
 800b066:	f44f 707a 	mov.w	r0, #1000	; 0x3e8
 800b06a:	f7fa fac9 	bl	8005600 <HAL_Delay>
 800b06e:	4620      	mov	r0, r4
 800b070:	492b      	ldr	r1, [pc, #172]	; (800b120 <cmd_ymodem+0xe4>)
 800b072:	f7f9 f8d7 	bl	8004224 <strcmp>
 800b076:	2800      	cmp	r0, #0
 800b078:	d041      	beq.n	800b0fe <cmd_ymodem+0xc2>
 800b07a:	7823      	ldrb	r3, [r4, #0]
 800b07c:	2b75      	cmp	r3, #117	; 0x75
 800b07e:	d017      	beq.n	800b0b0 <cmd_ymodem+0x74>
 800b080:	4623      	mov	r3, r4
 800b082:	f240 22e6 	movw	r2, #742	; 0x2e6
 800b086:	4927      	ldr	r1, [pc, #156]	; (800b124 <cmd_ymodem+0xe8>)
 800b088:	4827      	ldr	r0, [pc, #156]	; (800b128 <cmd_ymodem+0xec>)
 800b08a:	f000 f8ad 	bl	800b1e8 <iprintf>
 800b08e:	2400      	movs	r4, #0
 800b090:	4a26      	ldr	r2, [pc, #152]	; (800b12c <cmd_ymodem+0xf0>)
 800b092:	4927      	ldr	r1, [pc, #156]	; (800b130 <cmd_ymodem+0xf4>)
 800b094:	4b27      	ldr	r3, [pc, #156]	; (800b134 <cmd_ymodem+0xf8>)
 800b096:	4820      	ldr	r0, [pc, #128]	; (800b118 <cmd_ymodem+0xdc>)
 800b098:	f7ff f9f8 	bl	800a48c <SerialInit>
 800b09c:	4623      	mov	r3, r4
 800b09e:	f240 22f1 	movw	r2, #753	; 0x2f1
 800b0a2:	4920      	ldr	r1, [pc, #128]	; (800b124 <cmd_ymodem+0xe8>)
 800b0a4:	4824      	ldr	r0, [pc, #144]	; (800b138 <cmd_ymodem+0xfc>)
 800b0a6:	b003      	add	sp, #12
 800b0a8:	e8bd 4030 	ldmia.w	sp!, {r4, r5, lr}
 800b0ac:	f000 b89c 	b.w	800b1e8 <iprintf>
 800b0b0:	7863      	ldrb	r3, [r4, #1]
 800b0b2:	2b70      	cmp	r3, #112	; 0x70
 800b0b4:	d1e4      	bne.n	800b080 <cmd_ymodem+0x44>
 800b0b6:	78a3      	ldrb	r3, [r4, #2]
 800b0b8:	2b00      	cmp	r3, #0
 800b0ba:	d1e1      	bne.n	800b080 <cmd_ymodem+0x44>
 800b0bc:	4623      	mov	r3, r4
 800b0be:	f44f 7238 	mov.w	r2, #736	; 0x2e0
 800b0c2:	4918      	ldr	r1, [pc, #96]	; (800b124 <cmd_ymodem+0xe8>)
 800b0c4:	481d      	ldr	r0, [pc, #116]	; (800b13c <cmd_ymodem+0x100>)
 800b0c6:	9500      	str	r5, [sp, #0]
 800b0c8:	f000 f88e 	bl	800b1e8 <iprintf>
 800b0cc:	f7fe fa0e 	bl	80094ec <SerialUpload>
 800b0d0:	4604      	mov	r4, r0
 800b0d2:	e7dd      	b.n	800b090 <cmd_ymodem+0x54>
 800b0d4:	4d1a      	ldr	r5, [pc, #104]	; (800b140 <cmd_ymodem+0x104>)
 800b0d6:	e7b8      	b.n	800b04a <cmd_ymodem+0xe>
 800b0d8:	2300      	movs	r3, #0
 800b0da:	461a      	mov	r2, r3
 800b0dc:	4619      	mov	r1, r3
 800b0de:	4618      	mov	r0, r3
 800b0e0:	f7ff f9d4 	bl	800a48c <SerialInit>
 800b0e4:	480c      	ldr	r0, [pc, #48]	; (800b118 <cmd_ymodem+0xdc>)
 800b0e6:	f7fe f98b 	bl	8009400 <SetYmodemUart>
 800b0ea:	4b0c      	ldr	r3, [pc, #48]	; (800b11c <cmd_ymodem+0xe0>)
 800b0ec:	4d14      	ldr	r5, [pc, #80]	; (800b140 <cmd_ymodem+0x104>)
 800b0ee:	6818      	ldr	r0, [r3, #0]
 800b0f0:	f7fd faa0 	bl	8008634 <HAL_UART_AbortReceive_IT>
 800b0f4:	f44f 707a 	mov.w	r0, #1000	; 0x3e8
 800b0f8:	4c09      	ldr	r4, [pc, #36]	; (800b120 <cmd_ymodem+0xe4>)
 800b0fa:	f7fa fa81 	bl	8005600 <HAL_Delay>
 800b0fe:	4623      	mov	r3, r4
 800b100:	f240 22da 	movw	r2, #730	; 0x2da
 800b104:	4907      	ldr	r1, [pc, #28]	; (800b124 <cmd_ymodem+0xe8>)
 800b106:	480d      	ldr	r0, [pc, #52]	; (800b13c <cmd_ymodem+0x100>)
 800b108:	9500      	str	r5, [sp, #0]
 800b10a:	f000 f86d 	bl	800b1e8 <iprintf>
 800b10e:	f7fe f97d 	bl	800940c <SerialDownload>
 800b112:	4604      	mov	r4, r0
 800b114:	e7bc      	b.n	800b090 <cmd_ymodem+0x54>
 800b116:	bf00      	nop
 800b118:	200002d0 	.word	0x200002d0
 800b11c:	20000130 	.word	0x20000130
 800b120:	0800e11c 	.word	0x0800e11c
 800b124:	0800e178 	.word	0x0800e178
 800b128:	0800e144 	.word	0x0800e144
 800b12c:	20000350 	.word	0x20000350
 800b130:	20000310 	.word	0x20000310
 800b134:	20000390 	.word	0x20000390
 800b138:	0800e160 	.word	0x0800e160
 800b13c:	0800e124 	.word	0x0800e124
 800b140:	0800e118 	.word	0x0800e118

0800b144 <__errno>:
 800b144:	4b01      	ldr	r3, [pc, #4]	; (800b14c <__errno+0x8>)
 800b146:	6818      	ldr	r0, [r3, #0]
 800b148:	4770      	bx	lr
 800b14a:	bf00      	nop
 800b14c:	20000140 	.word	0x20000140

0800b150 <getchar>:
 800b150:	4b07      	ldr	r3, [pc, #28]	; (800b170 <getchar+0x20>)
 800b152:	b510      	push	{r4, lr}
 800b154:	681c      	ldr	r4, [r3, #0]
 800b156:	b124      	cbz	r4, 800b162 <getchar+0x12>
 800b158:	69a3      	ldr	r3, [r4, #24]
 800b15a:	b913      	cbnz	r3, 800b162 <getchar+0x12>
 800b15c:	4620      	mov	r0, r4
 800b15e:	f000 fd0b 	bl	800bb78 <__sinit>
 800b162:	4620      	mov	r0, r4
 800b164:	6861      	ldr	r1, [r4, #4]
 800b166:	e8bd 4010 	ldmia.w	sp!, {r4, lr}
 800b16a:	f000 bdbf 	b.w	800bcec <_getc_r>
 800b16e:	bf00      	nop
 800b170:	20000140 	.word	0x20000140

0800b174 <__libc_init_array>:
 800b174:	b570      	push	{r4, r5, r6, lr}
 800b176:	2600      	movs	r6, #0
 800b178:	4d0c      	ldr	r5, [pc, #48]	; (800b1ac <__libc_init_array+0x38>)
 800b17a:	4c0d      	ldr	r4, [pc, #52]	; (800b1b0 <__libc_init_array+0x3c>)
 800b17c:	1b64      	subs	r4, r4, r5
 800b17e:	10a4      	asrs	r4, r4, #2
 800b180:	42a6      	cmp	r6, r4
 800b182:	d109      	bne.n	800b198 <__libc_init_array+0x24>
 800b184:	f002 f95e 	bl	800d444 <_init>
 800b188:	2600      	movs	r6, #0
 800b18a:	4d0a      	ldr	r5, [pc, #40]	; (800b1b4 <__libc_init_array+0x40>)
 800b18c:	4c0a      	ldr	r4, [pc, #40]	; (800b1b8 <__libc_init_array+0x44>)
 800b18e:	1b64      	subs	r4, r4, r5
 800b190:	10a4      	asrs	r4, r4, #2
 800b192:	42a6      	cmp	r6, r4
 800b194:	d105      	bne.n	800b1a2 <__libc_init_array+0x2e>
 800b196:	bd70      	pop	{r4, r5, r6, pc}
 800b198:	f855 3b04 	ldr.w	r3, [r5], #4
 800b19c:	4798      	blx	r3
 800b19e:	3601      	adds	r6, #1
 800b1a0:	e7ee      	b.n	800b180 <__libc_init_array+0xc>
 800b1a2:	f855 3b04 	ldr.w	r3, [r5], #4
 800b1a6:	4798      	blx	r3
 800b1a8:	3601      	adds	r6, #1
 800b1aa:	e7f2      	b.n	800b192 <__libc_init_array+0x1e>
 800b1ac:	0800e33c 	.word	0x0800e33c
 800b1b0:	0800e33c 	.word	0x0800e33c
 800b1b4:	0800e33c 	.word	0x0800e33c
 800b1b8:	0800e340 	.word	0x0800e340

0800b1bc <memcpy>:
 800b1bc:	440a      	add	r2, r1
 800b1be:	4291      	cmp	r1, r2
 800b1c0:	f100 33ff 	add.w	r3, r0, #4294967295
 800b1c4:	d100      	bne.n	800b1c8 <memcpy+0xc>
 800b1c6:	4770      	bx	lr
 800b1c8:	b510      	push	{r4, lr}
 800b1ca:	f811 4b01 	ldrb.w	r4, [r1], #1
 800b1ce:	4291      	cmp	r1, r2
 800b1d0:	f803 4f01 	strb.w	r4, [r3, #1]!
 800b1d4:	d1f9      	bne.n	800b1ca <memcpy+0xe>
 800b1d6:	bd10      	pop	{r4, pc}

0800b1d8 <memset>:
 800b1d8:	4603      	mov	r3, r0
 800b1da:	4402      	add	r2, r0
 800b1dc:	4293      	cmp	r3, r2
 800b1de:	d100      	bne.n	800b1e2 <memset+0xa>
 800b1e0:	4770      	bx	lr
 800b1e2:	f803 1b01 	strb.w	r1, [r3], #1
 800b1e6:	e7f9      	b.n	800b1dc <memset+0x4>

0800b1e8 <iprintf>:
 800b1e8:	b40f      	push	{r0, r1, r2, r3}
 800b1ea:	4b0a      	ldr	r3, [pc, #40]	; (800b214 <iprintf+0x2c>)
 800b1ec:	b513      	push	{r0, r1, r4, lr}
 800b1ee:	681c      	ldr	r4, [r3, #0]
 800b1f0:	b124      	cbz	r4, 800b1fc <iprintf+0x14>
 800b1f2:	69a3      	ldr	r3, [r4, #24]
 800b1f4:	b913      	cbnz	r3, 800b1fc <iprintf+0x14>
 800b1f6:	4620      	mov	r0, r4
 800b1f8:	f000 fcbe 	bl	800bb78 <__sinit>
 800b1fc:	ab05      	add	r3, sp, #20
 800b1fe:	4620      	mov	r0, r4
 800b200:	9a04      	ldr	r2, [sp, #16]
 800b202:	68a1      	ldr	r1, [r4, #8]
 800b204:	9301      	str	r3, [sp, #4]
 800b206:	f001 fa69 	bl	800c6dc <_vfiprintf_r>
 800b20a:	b002      	add	sp, #8
 800b20c:	e8bd 4010 	ldmia.w	sp!, {r4, lr}
 800b210:	b004      	add	sp, #16
 800b212:	4770      	bx	lr
 800b214:	20000140 	.word	0x20000140

0800b218 <putchar>:
 800b218:	b538      	push	{r3, r4, r5, lr}
 800b21a:	4b08      	ldr	r3, [pc, #32]	; (800b23c <putchar+0x24>)
 800b21c:	4605      	mov	r5, r0
 800b21e:	681c      	ldr	r4, [r3, #0]
 800b220:	b124      	cbz	r4, 800b22c <putchar+0x14>
 800b222:	69a3      	ldr	r3, [r4, #24]
 800b224:	b913      	cbnz	r3, 800b22c <putchar+0x14>
 800b226:	4620      	mov	r0, r4
 800b228:	f000 fca6 	bl	800bb78 <__sinit>
 800b22c:	4629      	mov	r1, r5
 800b22e:	4620      	mov	r0, r4
 800b230:	68a2      	ldr	r2, [r4, #8]
 800b232:	e8bd 4038 	ldmia.w	sp!, {r3, r4, r5, lr}
 800b236:	f001 be69 	b.w	800cf0c <_putc_r>
 800b23a:	bf00      	nop
 800b23c:	20000140 	.word	0x20000140

0800b240 <_puts_r>:
 800b240:	b570      	push	{r4, r5, r6, lr}
 800b242:	460e      	mov	r6, r1
 800b244:	4605      	mov	r5, r0
 800b246:	b118      	cbz	r0, 800b250 <_puts_r+0x10>
 800b248:	6983      	ldr	r3, [r0, #24]
 800b24a:	b90b      	cbnz	r3, 800b250 <_puts_r+0x10>
 800b24c:	f000 fc94 	bl	800bb78 <__sinit>
 800b250:	69ab      	ldr	r3, [r5, #24]
 800b252:	68ac      	ldr	r4, [r5, #8]
 800b254:	b913      	cbnz	r3, 800b25c <_puts_r+0x1c>
 800b256:	4628      	mov	r0, r5
 800b258:	f000 fc8e 	bl	800bb78 <__sinit>
 800b25c:	4b2c      	ldr	r3, [pc, #176]	; (800b310 <_puts_r+0xd0>)
 800b25e:	429c      	cmp	r4, r3
 800b260:	d120      	bne.n	800b2a4 <_puts_r+0x64>
 800b262:	686c      	ldr	r4, [r5, #4]
 800b264:	6e63      	ldr	r3, [r4, #100]	; 0x64
 800b266:	07db      	lsls	r3, r3, #31
 800b268:	d405      	bmi.n	800b276 <_puts_r+0x36>
 800b26a:	89a3      	ldrh	r3, [r4, #12]
 800b26c:	0598      	lsls	r0, r3, #22
 800b26e:	d402      	bmi.n	800b276 <_puts_r+0x36>
 800b270:	6da0      	ldr	r0, [r4, #88]	; 0x58
 800b272:	f000 fd7c 	bl	800bd6e <__retarget_lock_acquire_recursive>
 800b276:	89a3      	ldrh	r3, [r4, #12]
 800b278:	0719      	lsls	r1, r3, #28
 800b27a:	d51d      	bpl.n	800b2b8 <_puts_r+0x78>
 800b27c:	6923      	ldr	r3, [r4, #16]
 800b27e:	b1db      	cbz	r3, 800b2b8 <_puts_r+0x78>
 800b280:	3e01      	subs	r6, #1
 800b282:	68a3      	ldr	r3, [r4, #8]
 800b284:	f816 1f01 	ldrb.w	r1, [r6, #1]!
 800b288:	3b01      	subs	r3, #1
 800b28a:	60a3      	str	r3, [r4, #8]
 800b28c:	bb39      	cbnz	r1, 800b2de <_puts_r+0x9e>
 800b28e:	2b00      	cmp	r3, #0
 800b290:	da38      	bge.n	800b304 <_puts_r+0xc4>
 800b292:	4622      	mov	r2, r4
 800b294:	210a      	movs	r1, #10
 800b296:	4628      	mov	r0, r5
 800b298:	f000 fa64 	bl	800b764 <__swbuf_r>
 800b29c:	3001      	adds	r0, #1
 800b29e:	d011      	beq.n	800b2c4 <_puts_r+0x84>
 800b2a0:	250a      	movs	r5, #10
 800b2a2:	e011      	b.n	800b2c8 <_puts_r+0x88>
 800b2a4:	4b1b      	ldr	r3, [pc, #108]	; (800b314 <_puts_r+0xd4>)
 800b2a6:	429c      	cmp	r4, r3
 800b2a8:	d101      	bne.n	800b2ae <_puts_r+0x6e>
 800b2aa:	68ac      	ldr	r4, [r5, #8]
 800b2ac:	e7da      	b.n	800b264 <_puts_r+0x24>
 800b2ae:	4b1a      	ldr	r3, [pc, #104]	; (800b318 <_puts_r+0xd8>)
 800b2b0:	429c      	cmp	r4, r3
 800b2b2:	bf08      	it	eq
 800b2b4:	68ec      	ldreq	r4, [r5, #12]
 800b2b6:	e7d5      	b.n	800b264 <_puts_r+0x24>
 800b2b8:	4621      	mov	r1, r4
 800b2ba:	4628      	mov	r0, r5
 800b2bc:	f000 fab6 	bl	800b82c <__swsetup_r>
 800b2c0:	2800      	cmp	r0, #0
 800b2c2:	d0dd      	beq.n	800b280 <_puts_r+0x40>
 800b2c4:	f04f 35ff 	mov.w	r5, #4294967295
 800b2c8:	6e63      	ldr	r3, [r4, #100]	; 0x64
 800b2ca:	07da      	lsls	r2, r3, #31
 800b2cc:	d405      	bmi.n	800b2da <_puts_r+0x9a>
 800b2ce:	89a3      	ldrh	r3, [r4, #12]
 800b2d0:	059b      	lsls	r3, r3, #22
 800b2d2:	d402      	bmi.n	800b2da <_puts_r+0x9a>
 800b2d4:	6da0      	ldr	r0, [r4, #88]	; 0x58
 800b2d6:	f000 fd4b 	bl	800bd70 <__retarget_lock_release_recursive>
 800b2da:	4628      	mov	r0, r5
 800b2dc:	bd70      	pop	{r4, r5, r6, pc}
 800b2de:	2b00      	cmp	r3, #0
 800b2e0:	da04      	bge.n	800b2ec <_puts_r+0xac>
 800b2e2:	69a2      	ldr	r2, [r4, #24]
 800b2e4:	429a      	cmp	r2, r3
 800b2e6:	dc06      	bgt.n	800b2f6 <_puts_r+0xb6>
 800b2e8:	290a      	cmp	r1, #10
 800b2ea:	d004      	beq.n	800b2f6 <_puts_r+0xb6>
 800b2ec:	6823      	ldr	r3, [r4, #0]
 800b2ee:	1c5a      	adds	r2, r3, #1
 800b2f0:	6022      	str	r2, [r4, #0]
 800b2f2:	7019      	strb	r1, [r3, #0]
 800b2f4:	e7c5      	b.n	800b282 <_puts_r+0x42>
 800b2f6:	4622      	mov	r2, r4
 800b2f8:	4628      	mov	r0, r5
 800b2fa:	f000 fa33 	bl	800b764 <__swbuf_r>
 800b2fe:	3001      	adds	r0, #1
 800b300:	d1bf      	bne.n	800b282 <_puts_r+0x42>
 800b302:	e7df      	b.n	800b2c4 <_puts_r+0x84>
 800b304:	250a      	movs	r5, #10
 800b306:	6823      	ldr	r3, [r4, #0]
 800b308:	1c5a      	adds	r2, r3, #1
 800b30a:	6022      	str	r2, [r4, #0]
 800b30c:	701d      	strb	r5, [r3, #0]
 800b30e:	e7db      	b.n	800b2c8 <_puts_r+0x88>
 800b310:	0800e2ac 	.word	0x0800e2ac
 800b314:	0800e2cc 	.word	0x0800e2cc
 800b318:	0800e28c 	.word	0x0800e28c

0800b31c <puts>:
 800b31c:	4b02      	ldr	r3, [pc, #8]	; (800b328 <puts+0xc>)
 800b31e:	4601      	mov	r1, r0
 800b320:	6818      	ldr	r0, [r3, #0]
 800b322:	f7ff bf8d 	b.w	800b240 <_puts_r>
 800b326:	bf00      	nop
 800b328:	20000140 	.word	0x20000140

0800b32c <setbuf>:
 800b32c:	2900      	cmp	r1, #0
 800b32e:	f44f 6380 	mov.w	r3, #1024	; 0x400
 800b332:	bf0c      	ite	eq
 800b334:	2202      	moveq	r2, #2
 800b336:	2200      	movne	r2, #0
 800b338:	f000 b800 	b.w	800b33c <setvbuf>

0800b33c <setvbuf>:
 800b33c:	e92d 43f7 	stmdb	sp!, {r0, r1, r2, r4, r5, r6, r7, r8, r9, lr}
 800b340:	461d      	mov	r5, r3
 800b342:	4b5d      	ldr	r3, [pc, #372]	; (800b4b8 <setvbuf+0x17c>)
 800b344:	4604      	mov	r4, r0
 800b346:	681f      	ldr	r7, [r3, #0]
 800b348:	460e      	mov	r6, r1
 800b34a:	4690      	mov	r8, r2
 800b34c:	b127      	cbz	r7, 800b358 <setvbuf+0x1c>
 800b34e:	69bb      	ldr	r3, [r7, #24]
 800b350:	b913      	cbnz	r3, 800b358 <setvbuf+0x1c>
 800b352:	4638      	mov	r0, r7
 800b354:	f000 fc10 	bl	800bb78 <__sinit>
 800b358:	4b58      	ldr	r3, [pc, #352]	; (800b4bc <setvbuf+0x180>)
 800b35a:	429c      	cmp	r4, r3
 800b35c:	d167      	bne.n	800b42e <setvbuf+0xf2>
 800b35e:	687c      	ldr	r4, [r7, #4]
 800b360:	f1b8 0f02 	cmp.w	r8, #2
 800b364:	d006      	beq.n	800b374 <setvbuf+0x38>
 800b366:	f1b8 0f01 	cmp.w	r8, #1
 800b36a:	f200 809f 	bhi.w	800b4ac <setvbuf+0x170>
 800b36e:	2d00      	cmp	r5, #0
 800b370:	f2c0 809c 	blt.w	800b4ac <setvbuf+0x170>
 800b374:	6e63      	ldr	r3, [r4, #100]	; 0x64
 800b376:	07db      	lsls	r3, r3, #31
 800b378:	d405      	bmi.n	800b386 <setvbuf+0x4a>
 800b37a:	89a3      	ldrh	r3, [r4, #12]
 800b37c:	0598      	lsls	r0, r3, #22
 800b37e:	d402      	bmi.n	800b386 <setvbuf+0x4a>
 800b380:	6da0      	ldr	r0, [r4, #88]	; 0x58
 800b382:	f000 fcf4 	bl	800bd6e <__retarget_lock_acquire_recursive>
 800b386:	4621      	mov	r1, r4
 800b388:	4638      	mov	r0, r7
 800b38a:	f000 fb4f 	bl	800ba2c <_fflush_r>
 800b38e:	6b61      	ldr	r1, [r4, #52]	; 0x34
 800b390:	b141      	cbz	r1, 800b3a4 <setvbuf+0x68>
 800b392:	f104 0344 	add.w	r3, r4, #68	; 0x44
 800b396:	4299      	cmp	r1, r3
 800b398:	d002      	beq.n	800b3a0 <setvbuf+0x64>
 800b39a:	4638      	mov	r0, r7
 800b39c:	f000 fd6a 	bl	800be74 <_free_r>
 800b3a0:	2300      	movs	r3, #0
 800b3a2:	6363      	str	r3, [r4, #52]	; 0x34
 800b3a4:	2300      	movs	r3, #0
 800b3a6:	61a3      	str	r3, [r4, #24]
 800b3a8:	6063      	str	r3, [r4, #4]
 800b3aa:	89a3      	ldrh	r3, [r4, #12]
 800b3ac:	0619      	lsls	r1, r3, #24
 800b3ae:	d503      	bpl.n	800b3b8 <setvbuf+0x7c>
 800b3b0:	4638      	mov	r0, r7
 800b3b2:	6921      	ldr	r1, [r4, #16]
 800b3b4:	f000 fd5e 	bl	800be74 <_free_r>
 800b3b8:	89a3      	ldrh	r3, [r4, #12]
 800b3ba:	f1b8 0f02 	cmp.w	r8, #2
 800b3be:	f423 634a 	bic.w	r3, r3, #3232	; 0xca0
 800b3c2:	f023 0303 	bic.w	r3, r3, #3
 800b3c6:	81a3      	strh	r3, [r4, #12]
 800b3c8:	d06c      	beq.n	800b4a4 <setvbuf+0x168>
 800b3ca:	ab01      	add	r3, sp, #4
 800b3cc:	466a      	mov	r2, sp
 800b3ce:	4621      	mov	r1, r4
 800b3d0:	4638      	mov	r0, r7
 800b3d2:	f000 fce1 	bl	800bd98 <__swhatbuf_r>
 800b3d6:	89a3      	ldrh	r3, [r4, #12]
 800b3d8:	4318      	orrs	r0, r3
 800b3da:	81a0      	strh	r0, [r4, #12]
 800b3dc:	2d00      	cmp	r5, #0
 800b3de:	d130      	bne.n	800b442 <setvbuf+0x106>
 800b3e0:	9d00      	ldr	r5, [sp, #0]
 800b3e2:	4628      	mov	r0, r5
 800b3e4:	f000 fd3e 	bl	800be64 <malloc>
 800b3e8:	4606      	mov	r6, r0
 800b3ea:	2800      	cmp	r0, #0
 800b3ec:	d155      	bne.n	800b49a <setvbuf+0x15e>
 800b3ee:	f8dd 9000 	ldr.w	r9, [sp]
 800b3f2:	45a9      	cmp	r9, r5
 800b3f4:	d14a      	bne.n	800b48c <setvbuf+0x150>
 800b3f6:	f04f 35ff 	mov.w	r5, #4294967295
 800b3fa:	2200      	movs	r2, #0
 800b3fc:	60a2      	str	r2, [r4, #8]
 800b3fe:	f104 0247 	add.w	r2, r4, #71	; 0x47
 800b402:	6022      	str	r2, [r4, #0]
 800b404:	6122      	str	r2, [r4, #16]
 800b406:	2201      	movs	r2, #1
 800b408:	f9b4 300c 	ldrsh.w	r3, [r4, #12]
 800b40c:	6162      	str	r2, [r4, #20]
 800b40e:	6e62      	ldr	r2, [r4, #100]	; 0x64
 800b410:	f043 0302 	orr.w	r3, r3, #2
 800b414:	07d2      	lsls	r2, r2, #31
 800b416:	81a3      	strh	r3, [r4, #12]
 800b418:	d405      	bmi.n	800b426 <setvbuf+0xea>
 800b41a:	f413 7f00 	tst.w	r3, #512	; 0x200
 800b41e:	d102      	bne.n	800b426 <setvbuf+0xea>
 800b420:	6da0      	ldr	r0, [r4, #88]	; 0x58
 800b422:	f000 fca5 	bl	800bd70 <__retarget_lock_release_recursive>
 800b426:	4628      	mov	r0, r5
 800b428:	b003      	add	sp, #12
 800b42a:	e8bd 83f0 	ldmia.w	sp!, {r4, r5, r6, r7, r8, r9, pc}
 800b42e:	4b24      	ldr	r3, [pc, #144]	; (800b4c0 <setvbuf+0x184>)
 800b430:	429c      	cmp	r4, r3
 800b432:	d101      	bne.n	800b438 <setvbuf+0xfc>
 800b434:	68bc      	ldr	r4, [r7, #8]
 800b436:	e793      	b.n	800b360 <setvbuf+0x24>
 800b438:	4b22      	ldr	r3, [pc, #136]	; (800b4c4 <setvbuf+0x188>)
 800b43a:	429c      	cmp	r4, r3
 800b43c:	bf08      	it	eq
 800b43e:	68fc      	ldreq	r4, [r7, #12]
 800b440:	e78e      	b.n	800b360 <setvbuf+0x24>
 800b442:	2e00      	cmp	r6, #0
 800b444:	d0cd      	beq.n	800b3e2 <setvbuf+0xa6>
 800b446:	69bb      	ldr	r3, [r7, #24]
 800b448:	b913      	cbnz	r3, 800b450 <setvbuf+0x114>
 800b44a:	4638      	mov	r0, r7
 800b44c:	f000 fb94 	bl	800bb78 <__sinit>
 800b450:	f1b8 0f01 	cmp.w	r8, #1
 800b454:	bf08      	it	eq
 800b456:	89a3      	ldrheq	r3, [r4, #12]
 800b458:	e9c4 6504 	strd	r6, r5, [r4, #16]
 800b45c:	bf04      	itt	eq
 800b45e:	f043 0301 	orreq.w	r3, r3, #1
 800b462:	81a3      	strheq	r3, [r4, #12]
 800b464:	89a2      	ldrh	r2, [r4, #12]
 800b466:	6026      	str	r6, [r4, #0]
 800b468:	f012 0308 	ands.w	r3, r2, #8
 800b46c:	d01c      	beq.n	800b4a8 <setvbuf+0x16c>
 800b46e:	07d3      	lsls	r3, r2, #31
 800b470:	bf41      	itttt	mi
 800b472:	2300      	movmi	r3, #0
 800b474:	426d      	negmi	r5, r5
 800b476:	60a3      	strmi	r3, [r4, #8]
 800b478:	61a5      	strmi	r5, [r4, #24]
 800b47a:	bf58      	it	pl
 800b47c:	60a5      	strpl	r5, [r4, #8]
 800b47e:	6e65      	ldr	r5, [r4, #100]	; 0x64
 800b480:	f015 0501 	ands.w	r5, r5, #1
 800b484:	d115      	bne.n	800b4b2 <setvbuf+0x176>
 800b486:	f412 7f00 	tst.w	r2, #512	; 0x200
 800b48a:	e7c8      	b.n	800b41e <setvbuf+0xe2>
 800b48c:	4648      	mov	r0, r9
 800b48e:	f000 fce9 	bl	800be64 <malloc>
 800b492:	4606      	mov	r6, r0
 800b494:	2800      	cmp	r0, #0
 800b496:	d0ae      	beq.n	800b3f6 <setvbuf+0xba>
 800b498:	464d      	mov	r5, r9
 800b49a:	89a3      	ldrh	r3, [r4, #12]
 800b49c:	f043 0380 	orr.w	r3, r3, #128	; 0x80
 800b4a0:	81a3      	strh	r3, [r4, #12]
 800b4a2:	e7d0      	b.n	800b446 <setvbuf+0x10a>
 800b4a4:	2500      	movs	r5, #0
 800b4a6:	e7a8      	b.n	800b3fa <setvbuf+0xbe>
 800b4a8:	60a3      	str	r3, [r4, #8]
 800b4aa:	e7e8      	b.n	800b47e <setvbuf+0x142>
 800b4ac:	f04f 35ff 	mov.w	r5, #4294967295
 800b4b0:	e7b9      	b.n	800b426 <setvbuf+0xea>
 800b4b2:	2500      	movs	r5, #0
 800b4b4:	e7b7      	b.n	800b426 <setvbuf+0xea>
 800b4b6:	bf00      	nop
 800b4b8:	20000140 	.word	0x20000140
 800b4bc:	0800e2ac 	.word	0x0800e2ac
 800b4c0:	0800e2cc 	.word	0x0800e2cc
 800b4c4:	0800e28c 	.word	0x0800e28c

0800b4c8 <siprintf>:
 800b4c8:	b40e      	push	{r1, r2, r3}
 800b4ca:	f06f 4100 	mvn.w	r1, #2147483648	; 0x80000000
 800b4ce:	b500      	push	{lr}
 800b4d0:	b09c      	sub	sp, #112	; 0x70
 800b4d2:	ab1d      	add	r3, sp, #116	; 0x74
 800b4d4:	9002      	str	r0, [sp, #8]
 800b4d6:	9006      	str	r0, [sp, #24]
 800b4d8:	9107      	str	r1, [sp, #28]
 800b4da:	9104      	str	r1, [sp, #16]
 800b4dc:	4808      	ldr	r0, [pc, #32]	; (800b500 <siprintf+0x38>)
 800b4de:	4909      	ldr	r1, [pc, #36]	; (800b504 <siprintf+0x3c>)
 800b4e0:	f853 2b04 	ldr.w	r2, [r3], #4
 800b4e4:	9105      	str	r1, [sp, #20]
 800b4e6:	6800      	ldr	r0, [r0, #0]
 800b4e8:	a902      	add	r1, sp, #8
 800b4ea:	9301      	str	r3, [sp, #4]
 800b4ec:	f000 fdfa 	bl	800c0e4 <_svfiprintf_r>
 800b4f0:	2200      	movs	r2, #0
 800b4f2:	9b02      	ldr	r3, [sp, #8]
 800b4f4:	701a      	strb	r2, [r3, #0]
 800b4f6:	b01c      	add	sp, #112	; 0x70
 800b4f8:	f85d eb04 	ldr.w	lr, [sp], #4
 800b4fc:	b003      	add	sp, #12
 800b4fe:	4770      	bx	lr
 800b500:	20000140 	.word	0x20000140
 800b504:	ffff0208 	.word	0xffff0208

0800b508 <siscanf>:
 800b508:	b40e      	push	{r1, r2, r3}
 800b50a:	f44f 7201 	mov.w	r2, #516	; 0x204
 800b50e:	b530      	push	{r4, r5, lr}
 800b510:	b09c      	sub	sp, #112	; 0x70
 800b512:	ac1f      	add	r4, sp, #124	; 0x7c
 800b514:	f854 5b04 	ldr.w	r5, [r4], #4
 800b518:	f8ad 2014 	strh.w	r2, [sp, #20]
 800b51c:	9002      	str	r0, [sp, #8]
 800b51e:	9006      	str	r0, [sp, #24]
 800b520:	f7f8 fe8a 	bl	8004238 <strlen>
 800b524:	4b0b      	ldr	r3, [pc, #44]	; (800b554 <siscanf+0x4c>)
 800b526:	9003      	str	r0, [sp, #12]
 800b528:	930b      	str	r3, [sp, #44]	; 0x2c
 800b52a:	2300      	movs	r3, #0
 800b52c:	930f      	str	r3, [sp, #60]	; 0x3c
 800b52e:	9314      	str	r3, [sp, #80]	; 0x50
 800b530:	f64f 73ff 	movw	r3, #65535	; 0xffff
 800b534:	9007      	str	r0, [sp, #28]
 800b536:	4808      	ldr	r0, [pc, #32]	; (800b558 <siscanf+0x50>)
 800b538:	f8ad 3016 	strh.w	r3, [sp, #22]
 800b53c:	462a      	mov	r2, r5
 800b53e:	4623      	mov	r3, r4
 800b540:	a902      	add	r1, sp, #8
 800b542:	6800      	ldr	r0, [r0, #0]
 800b544:	9401      	str	r4, [sp, #4]
 800b546:	f000 ff27 	bl	800c398 <__ssvfiscanf_r>
 800b54a:	b01c      	add	sp, #112	; 0x70
 800b54c:	e8bd 4030 	ldmia.w	sp!, {r4, r5, lr}
 800b550:	b003      	add	sp, #12
 800b552:	4770      	bx	lr
 800b554:	0800b57f 	.word	0x0800b57f
 800b558:	20000140 	.word	0x20000140

0800b55c <__sread>:
 800b55c:	b510      	push	{r4, lr}
 800b55e:	460c      	mov	r4, r1
 800b560:	f9b1 100e 	ldrsh.w	r1, [r1, #14]
 800b564:	f001 fd1a 	bl	800cf9c <_read_r>
 800b568:	2800      	cmp	r0, #0
 800b56a:	bfab      	itete	ge
 800b56c:	6d63      	ldrge	r3, [r4, #84]	; 0x54
 800b56e:	89a3      	ldrhlt	r3, [r4, #12]
 800b570:	181b      	addge	r3, r3, r0
 800b572:	f423 5380 	biclt.w	r3, r3, #4096	; 0x1000
 800b576:	bfac      	ite	ge
 800b578:	6563      	strge	r3, [r4, #84]	; 0x54
 800b57a:	81a3      	strhlt	r3, [r4, #12]
 800b57c:	bd10      	pop	{r4, pc}

0800b57e <__seofread>:
 800b57e:	2000      	movs	r0, #0
 800b580:	4770      	bx	lr

0800b582 <__swrite>:
 800b582:	e92d 41f0 	stmdb	sp!, {r4, r5, r6, r7, r8, lr}
 800b586:	461f      	mov	r7, r3
 800b588:	898b      	ldrh	r3, [r1, #12]
 800b58a:	4605      	mov	r5, r0
 800b58c:	05db      	lsls	r3, r3, #23
 800b58e:	460c      	mov	r4, r1
 800b590:	4616      	mov	r6, r2
 800b592:	d505      	bpl.n	800b5a0 <__swrite+0x1e>
 800b594:	2302      	movs	r3, #2
 800b596:	2200      	movs	r2, #0
 800b598:	f9b1 100e 	ldrsh.w	r1, [r1, #14]
 800b59c:	f000 fbea 	bl	800bd74 <_lseek_r>
 800b5a0:	89a3      	ldrh	r3, [r4, #12]
 800b5a2:	4632      	mov	r2, r6
 800b5a4:	f423 5380 	bic.w	r3, r3, #4096	; 0x1000
 800b5a8:	81a3      	strh	r3, [r4, #12]
 800b5aa:	4628      	mov	r0, r5
 800b5ac:	463b      	mov	r3, r7
 800b5ae:	f9b4 100e 	ldrsh.w	r1, [r4, #14]
 800b5b2:	e8bd 41f0 	ldmia.w	sp!, {r4, r5, r6, r7, r8, lr}
 800b5b6:	f000 b927 	b.w	800b808 <_write_r>

0800b5ba <__sseek>:
 800b5ba:	b510      	push	{r4, lr}
 800b5bc:	460c      	mov	r4, r1
 800b5be:	f9b1 100e 	ldrsh.w	r1, [r1, #14]
 800b5c2:	f000 fbd7 	bl	800bd74 <_lseek_r>
 800b5c6:	1c43      	adds	r3, r0, #1
 800b5c8:	89a3      	ldrh	r3, [r4, #12]
 800b5ca:	bf15      	itete	ne
 800b5cc:	6560      	strne	r0, [r4, #84]	; 0x54
 800b5ce:	f423 5380 	biceq.w	r3, r3, #4096	; 0x1000
 800b5d2:	f443 5380 	orrne.w	r3, r3, #4096	; 0x1000
 800b5d6:	81a3      	strheq	r3, [r4, #12]
 800b5d8:	bf18      	it	ne
 800b5da:	81a3      	strhne	r3, [r4, #12]
 800b5dc:	bd10      	pop	{r4, pc}

0800b5de <__sclose>:
 800b5de:	f9b1 100e 	ldrsh.w	r1, [r1, #14]
 800b5e2:	f000 b991 	b.w	800b908 <_close_r>

0800b5e6 <strchr>:
 800b5e6:	4603      	mov	r3, r0
 800b5e8:	b2c9      	uxtb	r1, r1
 800b5ea:	4618      	mov	r0, r3
 800b5ec:	f813 2b01 	ldrb.w	r2, [r3], #1
 800b5f0:	b112      	cbz	r2, 800b5f8 <strchr+0x12>
 800b5f2:	428a      	cmp	r2, r1
 800b5f4:	d1f9      	bne.n	800b5ea <strchr+0x4>
 800b5f6:	4770      	bx	lr
 800b5f8:	2900      	cmp	r1, #0
 800b5fa:	bf18      	it	ne
 800b5fc:	2000      	movne	r0, #0
 800b5fe:	4770      	bx	lr

0800b600 <strcpy>:
 800b600:	4603      	mov	r3, r0
 800b602:	f811 2b01 	ldrb.w	r2, [r1], #1
 800b606:	f803 2b01 	strb.w	r2, [r3], #1
 800b60a:	2a00      	cmp	r2, #0
 800b60c:	d1f9      	bne.n	800b602 <strcpy+0x2>
 800b60e:	4770      	bx	lr

0800b610 <__strtok_r>:
 800b610:	b5f0      	push	{r4, r5, r6, r7, lr}
 800b612:	b908      	cbnz	r0, 800b618 <__strtok_r+0x8>
 800b614:	6810      	ldr	r0, [r2, #0]
 800b616:	b188      	cbz	r0, 800b63c <__strtok_r+0x2c>
 800b618:	4604      	mov	r4, r0
 800b61a:	460f      	mov	r7, r1
 800b61c:	4620      	mov	r0, r4
 800b61e:	f814 5b01 	ldrb.w	r5, [r4], #1
 800b622:	f817 6b01 	ldrb.w	r6, [r7], #1
 800b626:	b91e      	cbnz	r6, 800b630 <__strtok_r+0x20>
 800b628:	b965      	cbnz	r5, 800b644 <__strtok_r+0x34>
 800b62a:	4628      	mov	r0, r5
 800b62c:	6015      	str	r5, [r2, #0]
 800b62e:	e005      	b.n	800b63c <__strtok_r+0x2c>
 800b630:	42b5      	cmp	r5, r6
 800b632:	d1f6      	bne.n	800b622 <__strtok_r+0x12>
 800b634:	2b00      	cmp	r3, #0
 800b636:	d1f0      	bne.n	800b61a <__strtok_r+0xa>
 800b638:	6014      	str	r4, [r2, #0]
 800b63a:	7003      	strb	r3, [r0, #0]
 800b63c:	bdf0      	pop	{r4, r5, r6, r7, pc}
 800b63e:	461c      	mov	r4, r3
 800b640:	e00c      	b.n	800b65c <__strtok_r+0x4c>
 800b642:	b915      	cbnz	r5, 800b64a <__strtok_r+0x3a>
 800b644:	460e      	mov	r6, r1
 800b646:	f814 3b01 	ldrb.w	r3, [r4], #1
 800b64a:	f816 5b01 	ldrb.w	r5, [r6], #1
 800b64e:	42ab      	cmp	r3, r5
 800b650:	d1f7      	bne.n	800b642 <__strtok_r+0x32>
 800b652:	2b00      	cmp	r3, #0
 800b654:	d0f3      	beq.n	800b63e <__strtok_r+0x2e>
 800b656:	2300      	movs	r3, #0
 800b658:	f804 3c01 	strb.w	r3, [r4, #-1]
 800b65c:	6014      	str	r4, [r2, #0]
 800b65e:	e7ed      	b.n	800b63c <__strtok_r+0x2c>

0800b660 <strtok_r>:
 800b660:	2301      	movs	r3, #1
 800b662:	f7ff bfd5 	b.w	800b610 <__strtok_r>
	...

0800b668 <_strtol_l.constprop.0>:
 800b668:	2b01      	cmp	r3, #1
 800b66a:	e92d 47f0 	stmdb	sp!, {r4, r5, r6, r7, r8, r9, sl, lr}
 800b66e:	4680      	mov	r8, r0
 800b670:	d001      	beq.n	800b676 <_strtol_l.constprop.0+0xe>
 800b672:	2b24      	cmp	r3, #36	; 0x24
 800b674:	d906      	bls.n	800b684 <_strtol_l.constprop.0+0x1c>
 800b676:	f7ff fd65 	bl	800b144 <__errno>
 800b67a:	2316      	movs	r3, #22
 800b67c:	6003      	str	r3, [r0, #0]
 800b67e:	2000      	movs	r0, #0
 800b680:	e8bd 87f0 	ldmia.w	sp!, {r4, r5, r6, r7, r8, r9, sl, pc}
 800b684:	460d      	mov	r5, r1
 800b686:	4f35      	ldr	r7, [pc, #212]	; (800b75c <_strtol_l.constprop.0+0xf4>)
 800b688:	4628      	mov	r0, r5
 800b68a:	f815 4b01 	ldrb.w	r4, [r5], #1
 800b68e:	5de6      	ldrb	r6, [r4, r7]
 800b690:	f016 0608 	ands.w	r6, r6, #8
 800b694:	d1f8      	bne.n	800b688 <_strtol_l.constprop.0+0x20>
 800b696:	2c2d      	cmp	r4, #45	; 0x2d
 800b698:	d12f      	bne.n	800b6fa <_strtol_l.constprop.0+0x92>
 800b69a:	2601      	movs	r6, #1
 800b69c:	782c      	ldrb	r4, [r5, #0]
 800b69e:	1c85      	adds	r5, r0, #2
 800b6a0:	2b00      	cmp	r3, #0
 800b6a2:	d057      	beq.n	800b754 <_strtol_l.constprop.0+0xec>
 800b6a4:	2b10      	cmp	r3, #16
 800b6a6:	d109      	bne.n	800b6bc <_strtol_l.constprop.0+0x54>
 800b6a8:	2c30      	cmp	r4, #48	; 0x30
 800b6aa:	d107      	bne.n	800b6bc <_strtol_l.constprop.0+0x54>
 800b6ac:	7828      	ldrb	r0, [r5, #0]
 800b6ae:	f000 00df 	and.w	r0, r0, #223	; 0xdf
 800b6b2:	2858      	cmp	r0, #88	; 0x58
 800b6b4:	d149      	bne.n	800b74a <_strtol_l.constprop.0+0xe2>
 800b6b6:	2310      	movs	r3, #16
 800b6b8:	786c      	ldrb	r4, [r5, #1]
 800b6ba:	3502      	adds	r5, #2
 800b6bc:	2700      	movs	r7, #0
 800b6be:	f106 4e00 	add.w	lr, r6, #2147483648	; 0x80000000
 800b6c2:	f10e 3eff 	add.w	lr, lr, #4294967295
 800b6c6:	fbbe f9f3 	udiv	r9, lr, r3
 800b6ca:	4638      	mov	r0, r7
 800b6cc:	fb03 ea19 	mls	sl, r3, r9, lr
 800b6d0:	f1a4 0c30 	sub.w	ip, r4, #48	; 0x30
 800b6d4:	f1bc 0f09 	cmp.w	ip, #9
 800b6d8:	d814      	bhi.n	800b704 <_strtol_l.constprop.0+0x9c>
 800b6da:	4664      	mov	r4, ip
 800b6dc:	42a3      	cmp	r3, r4
 800b6de:	dd22      	ble.n	800b726 <_strtol_l.constprop.0+0xbe>
 800b6e0:	2f00      	cmp	r7, #0
 800b6e2:	db1d      	blt.n	800b720 <_strtol_l.constprop.0+0xb8>
 800b6e4:	4581      	cmp	r9, r0
 800b6e6:	d31b      	bcc.n	800b720 <_strtol_l.constprop.0+0xb8>
 800b6e8:	d101      	bne.n	800b6ee <_strtol_l.constprop.0+0x86>
 800b6ea:	45a2      	cmp	sl, r4
 800b6ec:	db18      	blt.n	800b720 <_strtol_l.constprop.0+0xb8>
 800b6ee:	2701      	movs	r7, #1
 800b6f0:	fb00 4003 	mla	r0, r0, r3, r4
 800b6f4:	f815 4b01 	ldrb.w	r4, [r5], #1
 800b6f8:	e7ea      	b.n	800b6d0 <_strtol_l.constprop.0+0x68>
 800b6fa:	2c2b      	cmp	r4, #43	; 0x2b
 800b6fc:	bf04      	itt	eq
 800b6fe:	782c      	ldrbeq	r4, [r5, #0]
 800b700:	1c85      	addeq	r5, r0, #2
 800b702:	e7cd      	b.n	800b6a0 <_strtol_l.constprop.0+0x38>
 800b704:	f1a4 0c41 	sub.w	ip, r4, #65	; 0x41
 800b708:	f1bc 0f19 	cmp.w	ip, #25
 800b70c:	d801      	bhi.n	800b712 <_strtol_l.constprop.0+0xaa>
 800b70e:	3c37      	subs	r4, #55	; 0x37
 800b710:	e7e4      	b.n	800b6dc <_strtol_l.constprop.0+0x74>
 800b712:	f1a4 0c61 	sub.w	ip, r4, #97	; 0x61
 800b716:	f1bc 0f19 	cmp.w	ip, #25
 800b71a:	d804      	bhi.n	800b726 <_strtol_l.constprop.0+0xbe>
 800b71c:	3c57      	subs	r4, #87	; 0x57
 800b71e:	e7dd      	b.n	800b6dc <_strtol_l.constprop.0+0x74>
 800b720:	f04f 37ff 	mov.w	r7, #4294967295
 800b724:	e7e6      	b.n	800b6f4 <_strtol_l.constprop.0+0x8c>
 800b726:	2f00      	cmp	r7, #0
 800b728:	da07      	bge.n	800b73a <_strtol_l.constprop.0+0xd2>
 800b72a:	2322      	movs	r3, #34	; 0x22
 800b72c:	4670      	mov	r0, lr
 800b72e:	f8c8 3000 	str.w	r3, [r8]
 800b732:	2a00      	cmp	r2, #0
 800b734:	d0a4      	beq.n	800b680 <_strtol_l.constprop.0+0x18>
 800b736:	1e69      	subs	r1, r5, #1
 800b738:	e005      	b.n	800b746 <_strtol_l.constprop.0+0xde>
 800b73a:	b106      	cbz	r6, 800b73e <_strtol_l.constprop.0+0xd6>
 800b73c:	4240      	negs	r0, r0
 800b73e:	2a00      	cmp	r2, #0
 800b740:	d09e      	beq.n	800b680 <_strtol_l.constprop.0+0x18>
 800b742:	2f00      	cmp	r7, #0
 800b744:	d1f7      	bne.n	800b736 <_strtol_l.constprop.0+0xce>
 800b746:	6011      	str	r1, [r2, #0]
 800b748:	e79a      	b.n	800b680 <_strtol_l.constprop.0+0x18>
 800b74a:	2430      	movs	r4, #48	; 0x30
 800b74c:	2b00      	cmp	r3, #0
 800b74e:	d1b5      	bne.n	800b6bc <_strtol_l.constprop.0+0x54>
 800b750:	2308      	movs	r3, #8
 800b752:	e7b3      	b.n	800b6bc <_strtol_l.constprop.0+0x54>
 800b754:	2c30      	cmp	r4, #48	; 0x30
 800b756:	d0a9      	beq.n	800b6ac <_strtol_l.constprop.0+0x44>
 800b758:	230a      	movs	r3, #10
 800b75a:	e7af      	b.n	800b6bc <_strtol_l.constprop.0+0x54>
 800b75c:	0800e189 	.word	0x0800e189

0800b760 <_strtol_r>:
 800b760:	f7ff bf82 	b.w	800b668 <_strtol_l.constprop.0>

0800b764 <__swbuf_r>:
 800b764:	b5f8      	push	{r3, r4, r5, r6, r7, lr}
 800b766:	460e      	mov	r6, r1
 800b768:	4614      	mov	r4, r2
 800b76a:	4605      	mov	r5, r0
 800b76c:	b118      	cbz	r0, 800b776 <__swbuf_r+0x12>
 800b76e:	6983      	ldr	r3, [r0, #24]
 800b770:	b90b      	cbnz	r3, 800b776 <__swbuf_r+0x12>
 800b772:	f000 fa01 	bl	800bb78 <__sinit>
 800b776:	4b21      	ldr	r3, [pc, #132]	; (800b7fc <__swbuf_r+0x98>)
 800b778:	429c      	cmp	r4, r3
 800b77a:	d12b      	bne.n	800b7d4 <__swbuf_r+0x70>
 800b77c:	686c      	ldr	r4, [r5, #4]
 800b77e:	69a3      	ldr	r3, [r4, #24]
 800b780:	60a3      	str	r3, [r4, #8]
 800b782:	89a3      	ldrh	r3, [r4, #12]
 800b784:	071a      	lsls	r2, r3, #28
 800b786:	d52f      	bpl.n	800b7e8 <__swbuf_r+0x84>
 800b788:	6923      	ldr	r3, [r4, #16]
 800b78a:	b36b      	cbz	r3, 800b7e8 <__swbuf_r+0x84>
 800b78c:	6923      	ldr	r3, [r4, #16]
 800b78e:	6820      	ldr	r0, [r4, #0]
 800b790:	b2f6      	uxtb	r6, r6
 800b792:	1ac0      	subs	r0, r0, r3
 800b794:	6963      	ldr	r3, [r4, #20]
 800b796:	4637      	mov	r7, r6
 800b798:	4283      	cmp	r3, r0
 800b79a:	dc04      	bgt.n	800b7a6 <__swbuf_r+0x42>
 800b79c:	4621      	mov	r1, r4
 800b79e:	4628      	mov	r0, r5
 800b7a0:	f000 f944 	bl	800ba2c <_fflush_r>
 800b7a4:	bb30      	cbnz	r0, 800b7f4 <__swbuf_r+0x90>
 800b7a6:	68a3      	ldr	r3, [r4, #8]
 800b7a8:	3001      	adds	r0, #1
 800b7aa:	3b01      	subs	r3, #1
 800b7ac:	60a3      	str	r3, [r4, #8]
 800b7ae:	6823      	ldr	r3, [r4, #0]
 800b7b0:	1c5a      	adds	r2, r3, #1
 800b7b2:	6022      	str	r2, [r4, #0]
 800b7b4:	701e      	strb	r6, [r3, #0]
 800b7b6:	6963      	ldr	r3, [r4, #20]
 800b7b8:	4283      	cmp	r3, r0
 800b7ba:	d004      	beq.n	800b7c6 <__swbuf_r+0x62>
 800b7bc:	89a3      	ldrh	r3, [r4, #12]
 800b7be:	07db      	lsls	r3, r3, #31
 800b7c0:	d506      	bpl.n	800b7d0 <__swbuf_r+0x6c>
 800b7c2:	2e0a      	cmp	r6, #10
 800b7c4:	d104      	bne.n	800b7d0 <__swbuf_r+0x6c>
 800b7c6:	4621      	mov	r1, r4
 800b7c8:	4628      	mov	r0, r5
 800b7ca:	f000 f92f 	bl	800ba2c <_fflush_r>
 800b7ce:	b988      	cbnz	r0, 800b7f4 <__swbuf_r+0x90>
 800b7d0:	4638      	mov	r0, r7
 800b7d2:	bdf8      	pop	{r3, r4, r5, r6, r7, pc}
 800b7d4:	4b0a      	ldr	r3, [pc, #40]	; (800b800 <__swbuf_r+0x9c>)
 800b7d6:	429c      	cmp	r4, r3
 800b7d8:	d101      	bne.n	800b7de <__swbuf_r+0x7a>
 800b7da:	68ac      	ldr	r4, [r5, #8]
 800b7dc:	e7cf      	b.n	800b77e <__swbuf_r+0x1a>
 800b7de:	4b09      	ldr	r3, [pc, #36]	; (800b804 <__swbuf_r+0xa0>)
 800b7e0:	429c      	cmp	r4, r3
 800b7e2:	bf08      	it	eq
 800b7e4:	68ec      	ldreq	r4, [r5, #12]
 800b7e6:	e7ca      	b.n	800b77e <__swbuf_r+0x1a>
 800b7e8:	4621      	mov	r1, r4
 800b7ea:	4628      	mov	r0, r5
 800b7ec:	f000 f81e 	bl	800b82c <__swsetup_r>
 800b7f0:	2800      	cmp	r0, #0
 800b7f2:	d0cb      	beq.n	800b78c <__swbuf_r+0x28>
 800b7f4:	f04f 37ff 	mov.w	r7, #4294967295
 800b7f8:	e7ea      	b.n	800b7d0 <__swbuf_r+0x6c>
 800b7fa:	bf00      	nop
 800b7fc:	0800e2ac 	.word	0x0800e2ac
 800b800:	0800e2cc 	.word	0x0800e2cc
 800b804:	0800e28c 	.word	0x0800e28c

0800b808 <_write_r>:
 800b808:	b538      	push	{r3, r4, r5, lr}
 800b80a:	4604      	mov	r4, r0
 800b80c:	4608      	mov	r0, r1
 800b80e:	4611      	mov	r1, r2
 800b810:	2200      	movs	r2, #0
 800b812:	4d05      	ldr	r5, [pc, #20]	; (800b828 <_write_r+0x20>)
 800b814:	602a      	str	r2, [r5, #0]
 800b816:	461a      	mov	r2, r3
 800b818:	f7f9 fe42 	bl	80054a0 <_write>
 800b81c:	1c43      	adds	r3, r0, #1
 800b81e:	d102      	bne.n	800b826 <_write_r+0x1e>
 800b820:	682b      	ldr	r3, [r5, #0]
 800b822:	b103      	cbz	r3, 800b826 <_write_r+0x1e>
 800b824:	6023      	str	r3, [r4, #0]
 800b826:	bd38      	pop	{r3, r4, r5, pc}
 800b828:	20000f4c 	.word	0x20000f4c

0800b82c <__swsetup_r>:
 800b82c:	4b32      	ldr	r3, [pc, #200]	; (800b8f8 <__swsetup_r+0xcc>)
 800b82e:	b570      	push	{r4, r5, r6, lr}
 800b830:	681d      	ldr	r5, [r3, #0]
 800b832:	4606      	mov	r6, r0
 800b834:	460c      	mov	r4, r1
 800b836:	b125      	cbz	r5, 800b842 <__swsetup_r+0x16>
 800b838:	69ab      	ldr	r3, [r5, #24]
 800b83a:	b913      	cbnz	r3, 800b842 <__swsetup_r+0x16>
 800b83c:	4628      	mov	r0, r5
 800b83e:	f000 f99b 	bl	800bb78 <__sinit>
 800b842:	4b2e      	ldr	r3, [pc, #184]	; (800b8fc <__swsetup_r+0xd0>)
 800b844:	429c      	cmp	r4, r3
 800b846:	d10f      	bne.n	800b868 <__swsetup_r+0x3c>
 800b848:	686c      	ldr	r4, [r5, #4]
 800b84a:	89a3      	ldrh	r3, [r4, #12]
 800b84c:	f9b4 200c 	ldrsh.w	r2, [r4, #12]
 800b850:	0719      	lsls	r1, r3, #28
 800b852:	d42c      	bmi.n	800b8ae <__swsetup_r+0x82>
 800b854:	06dd      	lsls	r5, r3, #27
 800b856:	d411      	bmi.n	800b87c <__swsetup_r+0x50>
 800b858:	2309      	movs	r3, #9
 800b85a:	6033      	str	r3, [r6, #0]
 800b85c:	f042 0340 	orr.w	r3, r2, #64	; 0x40
 800b860:	f04f 30ff 	mov.w	r0, #4294967295
 800b864:	81a3      	strh	r3, [r4, #12]
 800b866:	e03e      	b.n	800b8e6 <__swsetup_r+0xba>
 800b868:	4b25      	ldr	r3, [pc, #148]	; (800b900 <__swsetup_r+0xd4>)
 800b86a:	429c      	cmp	r4, r3
 800b86c:	d101      	bne.n	800b872 <__swsetup_r+0x46>
 800b86e:	68ac      	ldr	r4, [r5, #8]
 800b870:	e7eb      	b.n	800b84a <__swsetup_r+0x1e>
 800b872:	4b24      	ldr	r3, [pc, #144]	; (800b904 <__swsetup_r+0xd8>)
 800b874:	429c      	cmp	r4, r3
 800b876:	bf08      	it	eq
 800b878:	68ec      	ldreq	r4, [r5, #12]
 800b87a:	e7e6      	b.n	800b84a <__swsetup_r+0x1e>
 800b87c:	0758      	lsls	r0, r3, #29
 800b87e:	d512      	bpl.n	800b8a6 <__swsetup_r+0x7a>
 800b880:	6b61      	ldr	r1, [r4, #52]	; 0x34
 800b882:	b141      	cbz	r1, 800b896 <__swsetup_r+0x6a>
 800b884:	f104 0344 	add.w	r3, r4, #68	; 0x44
 800b888:	4299      	cmp	r1, r3
 800b88a:	d002      	beq.n	800b892 <__swsetup_r+0x66>
 800b88c:	4630      	mov	r0, r6
 800b88e:	f000 faf1 	bl	800be74 <_free_r>
 800b892:	2300      	movs	r3, #0
 800b894:	6363      	str	r3, [r4, #52]	; 0x34
 800b896:	89a3      	ldrh	r3, [r4, #12]
 800b898:	f023 0324 	bic.w	r3, r3, #36	; 0x24
 800b89c:	81a3      	strh	r3, [r4, #12]
 800b89e:	2300      	movs	r3, #0
 800b8a0:	6063      	str	r3, [r4, #4]
 800b8a2:	6923      	ldr	r3, [r4, #16]
 800b8a4:	6023      	str	r3, [r4, #0]
 800b8a6:	89a3      	ldrh	r3, [r4, #12]
 800b8a8:	f043 0308 	orr.w	r3, r3, #8
 800b8ac:	81a3      	strh	r3, [r4, #12]
 800b8ae:	6923      	ldr	r3, [r4, #16]
 800b8b0:	b94b      	cbnz	r3, 800b8c6 <__swsetup_r+0x9a>
 800b8b2:	89a3      	ldrh	r3, [r4, #12]
 800b8b4:	f403 7320 	and.w	r3, r3, #640	; 0x280
 800b8b8:	f5b3 7f00 	cmp.w	r3, #512	; 0x200
 800b8bc:	d003      	beq.n	800b8c6 <__swsetup_r+0x9a>
 800b8be:	4621      	mov	r1, r4
 800b8c0:	4630      	mov	r0, r6
 800b8c2:	f000 fa8f 	bl	800bde4 <__smakebuf_r>
 800b8c6:	89a0      	ldrh	r0, [r4, #12]
 800b8c8:	f9b4 200c 	ldrsh.w	r2, [r4, #12]
 800b8cc:	f010 0301 	ands.w	r3, r0, #1
 800b8d0:	d00a      	beq.n	800b8e8 <__swsetup_r+0xbc>
 800b8d2:	2300      	movs	r3, #0
 800b8d4:	60a3      	str	r3, [r4, #8]
 800b8d6:	6963      	ldr	r3, [r4, #20]
 800b8d8:	425b      	negs	r3, r3
 800b8da:	61a3      	str	r3, [r4, #24]
 800b8dc:	6923      	ldr	r3, [r4, #16]
 800b8de:	b943      	cbnz	r3, 800b8f2 <__swsetup_r+0xc6>
 800b8e0:	f010 0080 	ands.w	r0, r0, #128	; 0x80
 800b8e4:	d1ba      	bne.n	800b85c <__swsetup_r+0x30>
 800b8e6:	bd70      	pop	{r4, r5, r6, pc}
 800b8e8:	0781      	lsls	r1, r0, #30
 800b8ea:	bf58      	it	pl
 800b8ec:	6963      	ldrpl	r3, [r4, #20]
 800b8ee:	60a3      	str	r3, [r4, #8]
 800b8f0:	e7f4      	b.n	800b8dc <__swsetup_r+0xb0>
 800b8f2:	2000      	movs	r0, #0
 800b8f4:	e7f7      	b.n	800b8e6 <__swsetup_r+0xba>
 800b8f6:	bf00      	nop
 800b8f8:	20000140 	.word	0x20000140
 800b8fc:	0800e2ac 	.word	0x0800e2ac
 800b900:	0800e2cc 	.word	0x0800e2cc
 800b904:	0800e28c 	.word	0x0800e28c

0800b908 <_close_r>:
 800b908:	b538      	push	{r3, r4, r5, lr}
 800b90a:	2300      	movs	r3, #0
 800b90c:	4d05      	ldr	r5, [pc, #20]	; (800b924 <_close_r+0x1c>)
 800b90e:	4604      	mov	r4, r0
 800b910:	4608      	mov	r0, r1
 800b912:	602b      	str	r3, [r5, #0]
 800b914:	f7f9 fdd2 	bl	80054bc <_close>
 800b918:	1c43      	adds	r3, r0, #1
 800b91a:	d102      	bne.n	800b922 <_close_r+0x1a>
 800b91c:	682b      	ldr	r3, [r5, #0]
 800b91e:	b103      	cbz	r3, 800b922 <_close_r+0x1a>
 800b920:	6023      	str	r3, [r4, #0]
 800b922:	bd38      	pop	{r3, r4, r5, pc}
 800b924:	20000f4c 	.word	0x20000f4c

0800b928 <__sflush_r>:
 800b928:	898a      	ldrh	r2, [r1, #12]
 800b92a:	b5f8      	push	{r3, r4, r5, r6, r7, lr}
 800b92c:	4605      	mov	r5, r0
 800b92e:	0710      	lsls	r0, r2, #28
 800b930:	460c      	mov	r4, r1
 800b932:	d457      	bmi.n	800b9e4 <__sflush_r+0xbc>
 800b934:	684b      	ldr	r3, [r1, #4]
 800b936:	2b00      	cmp	r3, #0
 800b938:	dc04      	bgt.n	800b944 <__sflush_r+0x1c>
 800b93a:	6c0b      	ldr	r3, [r1, #64]	; 0x40
 800b93c:	2b00      	cmp	r3, #0
 800b93e:	dc01      	bgt.n	800b944 <__sflush_r+0x1c>
 800b940:	2000      	movs	r0, #0
 800b942:	bdf8      	pop	{r3, r4, r5, r6, r7, pc}
 800b944:	6ae6      	ldr	r6, [r4, #44]	; 0x2c
 800b946:	2e00      	cmp	r6, #0
 800b948:	d0fa      	beq.n	800b940 <__sflush_r+0x18>
 800b94a:	2300      	movs	r3, #0
 800b94c:	f412 5280 	ands.w	r2, r2, #4096	; 0x1000
 800b950:	682f      	ldr	r7, [r5, #0]
 800b952:	602b      	str	r3, [r5, #0]
 800b954:	d032      	beq.n	800b9bc <__sflush_r+0x94>
 800b956:	6d60      	ldr	r0, [r4, #84]	; 0x54
 800b958:	89a3      	ldrh	r3, [r4, #12]
 800b95a:	075a      	lsls	r2, r3, #29
 800b95c:	d505      	bpl.n	800b96a <__sflush_r+0x42>
 800b95e:	6863      	ldr	r3, [r4, #4]
 800b960:	1ac0      	subs	r0, r0, r3
 800b962:	6b63      	ldr	r3, [r4, #52]	; 0x34
 800b964:	b10b      	cbz	r3, 800b96a <__sflush_r+0x42>
 800b966:	6c23      	ldr	r3, [r4, #64]	; 0x40
 800b968:	1ac0      	subs	r0, r0, r3
 800b96a:	2300      	movs	r3, #0
 800b96c:	4602      	mov	r2, r0
 800b96e:	6ae6      	ldr	r6, [r4, #44]	; 0x2c
 800b970:	4628      	mov	r0, r5
 800b972:	6a21      	ldr	r1, [r4, #32]
 800b974:	47b0      	blx	r6
 800b976:	1c43      	adds	r3, r0, #1
 800b978:	89a3      	ldrh	r3, [r4, #12]
 800b97a:	d106      	bne.n	800b98a <__sflush_r+0x62>
 800b97c:	6829      	ldr	r1, [r5, #0]
 800b97e:	291d      	cmp	r1, #29
 800b980:	d82c      	bhi.n	800b9dc <__sflush_r+0xb4>
 800b982:	4a29      	ldr	r2, [pc, #164]	; (800ba28 <__sflush_r+0x100>)
 800b984:	40ca      	lsrs	r2, r1
 800b986:	07d6      	lsls	r6, r2, #31
 800b988:	d528      	bpl.n	800b9dc <__sflush_r+0xb4>
 800b98a:	2200      	movs	r2, #0
 800b98c:	6062      	str	r2, [r4, #4]
 800b98e:	6922      	ldr	r2, [r4, #16]
 800b990:	04d9      	lsls	r1, r3, #19
 800b992:	6022      	str	r2, [r4, #0]
 800b994:	d504      	bpl.n	800b9a0 <__sflush_r+0x78>
 800b996:	1c42      	adds	r2, r0, #1
 800b998:	d101      	bne.n	800b99e <__sflush_r+0x76>
 800b99a:	682b      	ldr	r3, [r5, #0]
 800b99c:	b903      	cbnz	r3, 800b9a0 <__sflush_r+0x78>
 800b99e:	6560      	str	r0, [r4, #84]	; 0x54
 800b9a0:	6b61      	ldr	r1, [r4, #52]	; 0x34
 800b9a2:	602f      	str	r7, [r5, #0]
 800b9a4:	2900      	cmp	r1, #0
 800b9a6:	d0cb      	beq.n	800b940 <__sflush_r+0x18>
 800b9a8:	f104 0344 	add.w	r3, r4, #68	; 0x44
 800b9ac:	4299      	cmp	r1, r3
 800b9ae:	d002      	beq.n	800b9b6 <__sflush_r+0x8e>
 800b9b0:	4628      	mov	r0, r5
 800b9b2:	f000 fa5f 	bl	800be74 <_free_r>
 800b9b6:	2000      	movs	r0, #0
 800b9b8:	6360      	str	r0, [r4, #52]	; 0x34
 800b9ba:	e7c2      	b.n	800b942 <__sflush_r+0x1a>
 800b9bc:	6a21      	ldr	r1, [r4, #32]
 800b9be:	2301      	movs	r3, #1
 800b9c0:	4628      	mov	r0, r5
 800b9c2:	47b0      	blx	r6
 800b9c4:	1c41      	adds	r1, r0, #1
 800b9c6:	d1c7      	bne.n	800b958 <__sflush_r+0x30>
 800b9c8:	682b      	ldr	r3, [r5, #0]
 800b9ca:	2b00      	cmp	r3, #0
 800b9cc:	d0c4      	beq.n	800b958 <__sflush_r+0x30>
 800b9ce:	2b1d      	cmp	r3, #29
 800b9d0:	d001      	beq.n	800b9d6 <__sflush_r+0xae>
 800b9d2:	2b16      	cmp	r3, #22
 800b9d4:	d101      	bne.n	800b9da <__sflush_r+0xb2>
 800b9d6:	602f      	str	r7, [r5, #0]
 800b9d8:	e7b2      	b.n	800b940 <__sflush_r+0x18>
 800b9da:	89a3      	ldrh	r3, [r4, #12]
 800b9dc:	f043 0340 	orr.w	r3, r3, #64	; 0x40
 800b9e0:	81a3      	strh	r3, [r4, #12]
 800b9e2:	e7ae      	b.n	800b942 <__sflush_r+0x1a>
 800b9e4:	690f      	ldr	r7, [r1, #16]
 800b9e6:	2f00      	cmp	r7, #0
 800b9e8:	d0aa      	beq.n	800b940 <__sflush_r+0x18>
 800b9ea:	0793      	lsls	r3, r2, #30
 800b9ec:	bf18      	it	ne
 800b9ee:	2300      	movne	r3, #0
 800b9f0:	680e      	ldr	r6, [r1, #0]
 800b9f2:	bf08      	it	eq
 800b9f4:	694b      	ldreq	r3, [r1, #20]
 800b9f6:	1bf6      	subs	r6, r6, r7
 800b9f8:	600f      	str	r7, [r1, #0]
 800b9fa:	608b      	str	r3, [r1, #8]
 800b9fc:	2e00      	cmp	r6, #0
 800b9fe:	dd9f      	ble.n	800b940 <__sflush_r+0x18>
 800ba00:	4633      	mov	r3, r6
 800ba02:	463a      	mov	r2, r7
 800ba04:	4628      	mov	r0, r5
 800ba06:	6a21      	ldr	r1, [r4, #32]
 800ba08:	f8d4 c028 	ldr.w	ip, [r4, #40]	; 0x28
 800ba0c:	47e0      	blx	ip
 800ba0e:	2800      	cmp	r0, #0
 800ba10:	dc06      	bgt.n	800ba20 <__sflush_r+0xf8>
 800ba12:	89a3      	ldrh	r3, [r4, #12]
 800ba14:	f04f 30ff 	mov.w	r0, #4294967295
 800ba18:	f043 0340 	orr.w	r3, r3, #64	; 0x40
 800ba1c:	81a3      	strh	r3, [r4, #12]
 800ba1e:	e790      	b.n	800b942 <__sflush_r+0x1a>
 800ba20:	4407      	add	r7, r0
 800ba22:	1a36      	subs	r6, r6, r0
 800ba24:	e7ea      	b.n	800b9fc <__sflush_r+0xd4>
 800ba26:	bf00      	nop
 800ba28:	20400001 	.word	0x20400001

0800ba2c <_fflush_r>:
 800ba2c:	b538      	push	{r3, r4, r5, lr}
 800ba2e:	690b      	ldr	r3, [r1, #16]
 800ba30:	4605      	mov	r5, r0
 800ba32:	460c      	mov	r4, r1
 800ba34:	b913      	cbnz	r3, 800ba3c <_fflush_r+0x10>
 800ba36:	2500      	movs	r5, #0
 800ba38:	4628      	mov	r0, r5
 800ba3a:	bd38      	pop	{r3, r4, r5, pc}
 800ba3c:	b118      	cbz	r0, 800ba46 <_fflush_r+0x1a>
 800ba3e:	6983      	ldr	r3, [r0, #24]
 800ba40:	b90b      	cbnz	r3, 800ba46 <_fflush_r+0x1a>
 800ba42:	f000 f899 	bl	800bb78 <__sinit>
 800ba46:	4b14      	ldr	r3, [pc, #80]	; (800ba98 <_fflush_r+0x6c>)
 800ba48:	429c      	cmp	r4, r3
 800ba4a:	d11b      	bne.n	800ba84 <_fflush_r+0x58>
 800ba4c:	686c      	ldr	r4, [r5, #4]
 800ba4e:	f9b4 300c 	ldrsh.w	r3, [r4, #12]
 800ba52:	2b00      	cmp	r3, #0
 800ba54:	d0ef      	beq.n	800ba36 <_fflush_r+0xa>
 800ba56:	6e62      	ldr	r2, [r4, #100]	; 0x64
 800ba58:	07d0      	lsls	r0, r2, #31
 800ba5a:	d404      	bmi.n	800ba66 <_fflush_r+0x3a>
 800ba5c:	0599      	lsls	r1, r3, #22
 800ba5e:	d402      	bmi.n	800ba66 <_fflush_r+0x3a>
 800ba60:	6da0      	ldr	r0, [r4, #88]	; 0x58
 800ba62:	f000 f984 	bl	800bd6e <__retarget_lock_acquire_recursive>
 800ba66:	4628      	mov	r0, r5
 800ba68:	4621      	mov	r1, r4
 800ba6a:	f7ff ff5d 	bl	800b928 <__sflush_r>
 800ba6e:	6e63      	ldr	r3, [r4, #100]	; 0x64
 800ba70:	4605      	mov	r5, r0
 800ba72:	07da      	lsls	r2, r3, #31
 800ba74:	d4e0      	bmi.n	800ba38 <_fflush_r+0xc>
 800ba76:	89a3      	ldrh	r3, [r4, #12]
 800ba78:	059b      	lsls	r3, r3, #22
 800ba7a:	d4dd      	bmi.n	800ba38 <_fflush_r+0xc>
 800ba7c:	6da0      	ldr	r0, [r4, #88]	; 0x58
 800ba7e:	f000 f977 	bl	800bd70 <__retarget_lock_release_recursive>
 800ba82:	e7d9      	b.n	800ba38 <_fflush_r+0xc>
 800ba84:	4b05      	ldr	r3, [pc, #20]	; (800ba9c <_fflush_r+0x70>)
 800ba86:	429c      	cmp	r4, r3
 800ba88:	d101      	bne.n	800ba8e <_fflush_r+0x62>
 800ba8a:	68ac      	ldr	r4, [r5, #8]
 800ba8c:	e7df      	b.n	800ba4e <_fflush_r+0x22>
 800ba8e:	4b04      	ldr	r3, [pc, #16]	; (800baa0 <_fflush_r+0x74>)
 800ba90:	429c      	cmp	r4, r3
 800ba92:	bf08      	it	eq
 800ba94:	68ec      	ldreq	r4, [r5, #12]
 800ba96:	e7da      	b.n	800ba4e <_fflush_r+0x22>
 800ba98:	0800e2ac 	.word	0x0800e2ac
 800ba9c:	0800e2cc 	.word	0x0800e2cc
 800baa0:	0800e28c 	.word	0x0800e28c

0800baa4 <fflush>:
 800baa4:	4601      	mov	r1, r0
 800baa6:	b920      	cbnz	r0, 800bab2 <fflush+0xe>
 800baa8:	4b04      	ldr	r3, [pc, #16]	; (800babc <fflush+0x18>)
 800baaa:	4905      	ldr	r1, [pc, #20]	; (800bac0 <fflush+0x1c>)
 800baac:	6818      	ldr	r0, [r3, #0]
 800baae:	f000 b8fe 	b.w	800bcae <_fwalk_reent>
 800bab2:	4b04      	ldr	r3, [pc, #16]	; (800bac4 <fflush+0x20>)
 800bab4:	6818      	ldr	r0, [r3, #0]
 800bab6:	f7ff bfb9 	b.w	800ba2c <_fflush_r>
 800baba:	bf00      	nop
 800babc:	0800e184 	.word	0x0800e184
 800bac0:	0800ba2d 	.word	0x0800ba2d
 800bac4:	20000140 	.word	0x20000140

0800bac8 <std>:
 800bac8:	2300      	movs	r3, #0
 800baca:	b510      	push	{r4, lr}
 800bacc:	4604      	mov	r4, r0
 800bace:	e9c0 3300 	strd	r3, r3, [r0]
 800bad2:	e9c0 3304 	strd	r3, r3, [r0, #16]
 800bad6:	6083      	str	r3, [r0, #8]
 800bad8:	8181      	strh	r1, [r0, #12]
 800bada:	6643      	str	r3, [r0, #100]	; 0x64
 800badc:	81c2      	strh	r2, [r0, #14]
 800bade:	6183      	str	r3, [r0, #24]
 800bae0:	4619      	mov	r1, r3
 800bae2:	2208      	movs	r2, #8
 800bae4:	305c      	adds	r0, #92	; 0x5c
 800bae6:	f7ff fb77 	bl	800b1d8 <memset>
 800baea:	4b05      	ldr	r3, [pc, #20]	; (800bb00 <std+0x38>)
 800baec:	6224      	str	r4, [r4, #32]
 800baee:	6263      	str	r3, [r4, #36]	; 0x24
 800baf0:	4b04      	ldr	r3, [pc, #16]	; (800bb04 <std+0x3c>)
 800baf2:	62a3      	str	r3, [r4, #40]	; 0x28
 800baf4:	4b04      	ldr	r3, [pc, #16]	; (800bb08 <std+0x40>)
 800baf6:	62e3      	str	r3, [r4, #44]	; 0x2c
 800baf8:	4b04      	ldr	r3, [pc, #16]	; (800bb0c <std+0x44>)
 800bafa:	6323      	str	r3, [r4, #48]	; 0x30
 800bafc:	bd10      	pop	{r4, pc}
 800bafe:	bf00      	nop
 800bb00:	0800b55d 	.word	0x0800b55d
 800bb04:	0800b583 	.word	0x0800b583
 800bb08:	0800b5bb 	.word	0x0800b5bb
 800bb0c:	0800b5df 	.word	0x0800b5df

0800bb10 <_cleanup_r>:
 800bb10:	4901      	ldr	r1, [pc, #4]	; (800bb18 <_cleanup_r+0x8>)
 800bb12:	f000 b8cc 	b.w	800bcae <_fwalk_reent>
 800bb16:	bf00      	nop
 800bb18:	0800ba2d 	.word	0x0800ba2d

0800bb1c <__sfmoreglue>:
 800bb1c:	2268      	movs	r2, #104	; 0x68
 800bb1e:	b570      	push	{r4, r5, r6, lr}
 800bb20:	1e4d      	subs	r5, r1, #1
 800bb22:	4355      	muls	r5, r2
 800bb24:	460e      	mov	r6, r1
 800bb26:	f105 0174 	add.w	r1, r5, #116	; 0x74
 800bb2a:	f000 fa0b 	bl	800bf44 <_malloc_r>
 800bb2e:	4604      	mov	r4, r0
 800bb30:	b140      	cbz	r0, 800bb44 <__sfmoreglue+0x28>
 800bb32:	2100      	movs	r1, #0
 800bb34:	e9c0 1600 	strd	r1, r6, [r0]
 800bb38:	300c      	adds	r0, #12
 800bb3a:	60a0      	str	r0, [r4, #8]
 800bb3c:	f105 0268 	add.w	r2, r5, #104	; 0x68
 800bb40:	f7ff fb4a 	bl	800b1d8 <memset>
 800bb44:	4620      	mov	r0, r4
 800bb46:	bd70      	pop	{r4, r5, r6, pc}

0800bb48 <__sfp_lock_acquire>:
 800bb48:	4801      	ldr	r0, [pc, #4]	; (800bb50 <__sfp_lock_acquire+0x8>)
 800bb4a:	f000 b910 	b.w	800bd6e <__retarget_lock_acquire_recursive>
 800bb4e:	bf00      	nop
 800bb50:	20000f3f 	.word	0x20000f3f

0800bb54 <__sfp_lock_release>:
 800bb54:	4801      	ldr	r0, [pc, #4]	; (800bb5c <__sfp_lock_release+0x8>)
 800bb56:	f000 b90b 	b.w	800bd70 <__retarget_lock_release_recursive>
 800bb5a:	bf00      	nop
 800bb5c:	20000f3f 	.word	0x20000f3f

0800bb60 <__sinit_lock_acquire>:
 800bb60:	4801      	ldr	r0, [pc, #4]	; (800bb68 <__sinit_lock_acquire+0x8>)
 800bb62:	f000 b904 	b.w	800bd6e <__retarget_lock_acquire_recursive>
 800bb66:	bf00      	nop
 800bb68:	20000f40 	.word	0x20000f40

0800bb6c <__sinit_lock_release>:
 800bb6c:	4801      	ldr	r0, [pc, #4]	; (800bb74 <__sinit_lock_release+0x8>)
 800bb6e:	f000 b8ff 	b.w	800bd70 <__retarget_lock_release_recursive>
 800bb72:	bf00      	nop
 800bb74:	20000f40 	.word	0x20000f40

0800bb78 <__sinit>:
 800bb78:	b510      	push	{r4, lr}
 800bb7a:	4604      	mov	r4, r0
 800bb7c:	f7ff fff0 	bl	800bb60 <__sinit_lock_acquire>
 800bb80:	69a3      	ldr	r3, [r4, #24]
 800bb82:	b11b      	cbz	r3, 800bb8c <__sinit+0x14>
 800bb84:	e8bd 4010 	ldmia.w	sp!, {r4, lr}
 800bb88:	f7ff bff0 	b.w	800bb6c <__sinit_lock_release>
 800bb8c:	e9c4 3312 	strd	r3, r3, [r4, #72]	; 0x48
 800bb90:	6523      	str	r3, [r4, #80]	; 0x50
 800bb92:	4b13      	ldr	r3, [pc, #76]	; (800bbe0 <__sinit+0x68>)
 800bb94:	4a13      	ldr	r2, [pc, #76]	; (800bbe4 <__sinit+0x6c>)
 800bb96:	681b      	ldr	r3, [r3, #0]
 800bb98:	62a2      	str	r2, [r4, #40]	; 0x28
 800bb9a:	42a3      	cmp	r3, r4
 800bb9c:	bf08      	it	eq
 800bb9e:	2301      	moveq	r3, #1
 800bba0:	4620      	mov	r0, r4
 800bba2:	bf08      	it	eq
 800bba4:	61a3      	streq	r3, [r4, #24]
 800bba6:	f000 f81f 	bl	800bbe8 <__sfp>
 800bbaa:	6060      	str	r0, [r4, #4]
 800bbac:	4620      	mov	r0, r4
 800bbae:	f000 f81b 	bl	800bbe8 <__sfp>
 800bbb2:	60a0      	str	r0, [r4, #8]
 800bbb4:	4620      	mov	r0, r4
 800bbb6:	f000 f817 	bl	800bbe8 <__sfp>
 800bbba:	2200      	movs	r2, #0
 800bbbc:	2104      	movs	r1, #4
 800bbbe:	60e0      	str	r0, [r4, #12]
 800bbc0:	6860      	ldr	r0, [r4, #4]
 800bbc2:	f7ff ff81 	bl	800bac8 <std>
 800bbc6:	2201      	movs	r2, #1
 800bbc8:	2109      	movs	r1, #9
 800bbca:	68a0      	ldr	r0, [r4, #8]
 800bbcc:	f7ff ff7c 	bl	800bac8 <std>
 800bbd0:	2202      	movs	r2, #2
 800bbd2:	2112      	movs	r1, #18
 800bbd4:	68e0      	ldr	r0, [r4, #12]
 800bbd6:	f7ff ff77 	bl	800bac8 <std>
 800bbda:	2301      	movs	r3, #1
 800bbdc:	61a3      	str	r3, [r4, #24]
 800bbde:	e7d1      	b.n	800bb84 <__sinit+0xc>
 800bbe0:	0800e184 	.word	0x0800e184
 800bbe4:	0800bb11 	.word	0x0800bb11

0800bbe8 <__sfp>:
 800bbe8:	b5f8      	push	{r3, r4, r5, r6, r7, lr}
 800bbea:	4607      	mov	r7, r0
 800bbec:	f7ff ffac 	bl	800bb48 <__sfp_lock_acquire>
 800bbf0:	4b1e      	ldr	r3, [pc, #120]	; (800bc6c <__sfp+0x84>)
 800bbf2:	681e      	ldr	r6, [r3, #0]
 800bbf4:	69b3      	ldr	r3, [r6, #24]
 800bbf6:	b913      	cbnz	r3, 800bbfe <__sfp+0x16>
 800bbf8:	4630      	mov	r0, r6
 800bbfa:	f7ff ffbd 	bl	800bb78 <__sinit>
 800bbfe:	3648      	adds	r6, #72	; 0x48
 800bc00:	e9d6 3401 	ldrd	r3, r4, [r6, #4]
 800bc04:	3b01      	subs	r3, #1
 800bc06:	d503      	bpl.n	800bc10 <__sfp+0x28>
 800bc08:	6833      	ldr	r3, [r6, #0]
 800bc0a:	b30b      	cbz	r3, 800bc50 <__sfp+0x68>
 800bc0c:	6836      	ldr	r6, [r6, #0]
 800bc0e:	e7f7      	b.n	800bc00 <__sfp+0x18>
 800bc10:	f9b4 500c 	ldrsh.w	r5, [r4, #12]
 800bc14:	b9d5      	cbnz	r5, 800bc4c <__sfp+0x64>
 800bc16:	4b16      	ldr	r3, [pc, #88]	; (800bc70 <__sfp+0x88>)
 800bc18:	f104 0058 	add.w	r0, r4, #88	; 0x58
 800bc1c:	60e3      	str	r3, [r4, #12]
 800bc1e:	6665      	str	r5, [r4, #100]	; 0x64
 800bc20:	f000 f8a4 	bl	800bd6c <__retarget_lock_init_recursive>
 800bc24:	f7ff ff96 	bl	800bb54 <__sfp_lock_release>
 800bc28:	2208      	movs	r2, #8
 800bc2a:	4629      	mov	r1, r5
 800bc2c:	e9c4 5501 	strd	r5, r5, [r4, #4]
 800bc30:	e9c4 5504 	strd	r5, r5, [r4, #16]
 800bc34:	6025      	str	r5, [r4, #0]
 800bc36:	61a5      	str	r5, [r4, #24]
 800bc38:	f104 005c 	add.w	r0, r4, #92	; 0x5c
 800bc3c:	f7ff facc 	bl	800b1d8 <memset>
 800bc40:	e9c4 550d 	strd	r5, r5, [r4, #52]	; 0x34
 800bc44:	e9c4 5512 	strd	r5, r5, [r4, #72]	; 0x48
 800bc48:	4620      	mov	r0, r4
 800bc4a:	bdf8      	pop	{r3, r4, r5, r6, r7, pc}
 800bc4c:	3468      	adds	r4, #104	; 0x68
 800bc4e:	e7d9      	b.n	800bc04 <__sfp+0x1c>
 800bc50:	2104      	movs	r1, #4
 800bc52:	4638      	mov	r0, r7
 800bc54:	f7ff ff62 	bl	800bb1c <__sfmoreglue>
 800bc58:	4604      	mov	r4, r0
 800bc5a:	6030      	str	r0, [r6, #0]
 800bc5c:	2800      	cmp	r0, #0
 800bc5e:	d1d5      	bne.n	800bc0c <__sfp+0x24>
 800bc60:	f7ff ff78 	bl	800bb54 <__sfp_lock_release>
 800bc64:	230c      	movs	r3, #12
 800bc66:	603b      	str	r3, [r7, #0]
 800bc68:	e7ee      	b.n	800bc48 <__sfp+0x60>
 800bc6a:	bf00      	nop
 800bc6c:	0800e184 	.word	0x0800e184
 800bc70:	ffff0001 	.word	0xffff0001

0800bc74 <_fwalk>:
 800bc74:	e92d 41f0 	stmdb	sp!, {r4, r5, r6, r7, r8, lr}
 800bc78:	460f      	mov	r7, r1
 800bc7a:	2600      	movs	r6, #0
 800bc7c:	f100 0448 	add.w	r4, r0, #72	; 0x48
 800bc80:	e9d4 8501 	ldrd	r8, r5, [r4, #4]
 800bc84:	f1b8 0801 	subs.w	r8, r8, #1
 800bc88:	d505      	bpl.n	800bc96 <_fwalk+0x22>
 800bc8a:	6824      	ldr	r4, [r4, #0]
 800bc8c:	2c00      	cmp	r4, #0
 800bc8e:	d1f7      	bne.n	800bc80 <_fwalk+0xc>
 800bc90:	4630      	mov	r0, r6
 800bc92:	e8bd 81f0 	ldmia.w	sp!, {r4, r5, r6, r7, r8, pc}
 800bc96:	89ab      	ldrh	r3, [r5, #12]
 800bc98:	2b01      	cmp	r3, #1
 800bc9a:	d906      	bls.n	800bcaa <_fwalk+0x36>
 800bc9c:	f9b5 300e 	ldrsh.w	r3, [r5, #14]
 800bca0:	3301      	adds	r3, #1
 800bca2:	d002      	beq.n	800bcaa <_fwalk+0x36>
 800bca4:	4628      	mov	r0, r5
 800bca6:	47b8      	blx	r7
 800bca8:	4306      	orrs	r6, r0
 800bcaa:	3568      	adds	r5, #104	; 0x68
 800bcac:	e7ea      	b.n	800bc84 <_fwalk+0x10>

0800bcae <_fwalk_reent>:
 800bcae:	e92d 43f8 	stmdb	sp!, {r3, r4, r5, r6, r7, r8, r9, lr}
 800bcb2:	4606      	mov	r6, r0
 800bcb4:	4688      	mov	r8, r1
 800bcb6:	2700      	movs	r7, #0
 800bcb8:	f100 0448 	add.w	r4, r0, #72	; 0x48
 800bcbc:	e9d4 9501 	ldrd	r9, r5, [r4, #4]
 800bcc0:	f1b9 0901 	subs.w	r9, r9, #1
 800bcc4:	d505      	bpl.n	800bcd2 <_fwalk_reent+0x24>
 800bcc6:	6824      	ldr	r4, [r4, #0]
 800bcc8:	2c00      	cmp	r4, #0
 800bcca:	d1f7      	bne.n	800bcbc <_fwalk_reent+0xe>
 800bccc:	4638      	mov	r0, r7
 800bcce:	e8bd 83f8 	ldmia.w	sp!, {r3, r4, r5, r6, r7, r8, r9, pc}
 800bcd2:	89ab      	ldrh	r3, [r5, #12]
 800bcd4:	2b01      	cmp	r3, #1
 800bcd6:	d907      	bls.n	800bce8 <_fwalk_reent+0x3a>
 800bcd8:	f9b5 300e 	ldrsh.w	r3, [r5, #14]
 800bcdc:	3301      	adds	r3, #1
 800bcde:	d003      	beq.n	800bce8 <_fwalk_reent+0x3a>
 800bce0:	4629      	mov	r1, r5
 800bce2:	4630      	mov	r0, r6
 800bce4:	47c0      	blx	r8
 800bce6:	4307      	orrs	r7, r0
 800bce8:	3568      	adds	r5, #104	; 0x68
 800bcea:	e7e9      	b.n	800bcc0 <_fwalk_reent+0x12>

0800bcec <_getc_r>:
 800bcec:	b538      	push	{r3, r4, r5, lr}
 800bcee:	460c      	mov	r4, r1
 800bcf0:	4605      	mov	r5, r0
 800bcf2:	b118      	cbz	r0, 800bcfc <_getc_r+0x10>
 800bcf4:	6983      	ldr	r3, [r0, #24]
 800bcf6:	b90b      	cbnz	r3, 800bcfc <_getc_r+0x10>
 800bcf8:	f7ff ff3e 	bl	800bb78 <__sinit>
 800bcfc:	4b18      	ldr	r3, [pc, #96]	; (800bd60 <_getc_r+0x74>)
 800bcfe:	429c      	cmp	r4, r3
 800bd00:	d11e      	bne.n	800bd40 <_getc_r+0x54>
 800bd02:	686c      	ldr	r4, [r5, #4]
 800bd04:	6e63      	ldr	r3, [r4, #100]	; 0x64
 800bd06:	07d8      	lsls	r0, r3, #31
 800bd08:	d405      	bmi.n	800bd16 <_getc_r+0x2a>
 800bd0a:	89a3      	ldrh	r3, [r4, #12]
 800bd0c:	0599      	lsls	r1, r3, #22
 800bd0e:	d402      	bmi.n	800bd16 <_getc_r+0x2a>
 800bd10:	6da0      	ldr	r0, [r4, #88]	; 0x58
 800bd12:	f000 f82c 	bl	800bd6e <__retarget_lock_acquire_recursive>
 800bd16:	6863      	ldr	r3, [r4, #4]
 800bd18:	3b01      	subs	r3, #1
 800bd1a:	2b00      	cmp	r3, #0
 800bd1c:	6063      	str	r3, [r4, #4]
 800bd1e:	da19      	bge.n	800bd54 <_getc_r+0x68>
 800bd20:	4628      	mov	r0, r5
 800bd22:	4621      	mov	r1, r4
 800bd24:	f001 f94c 	bl	800cfc0 <__srget_r>
 800bd28:	4605      	mov	r5, r0
 800bd2a:	6e63      	ldr	r3, [r4, #100]	; 0x64
 800bd2c:	07da      	lsls	r2, r3, #31
 800bd2e:	d405      	bmi.n	800bd3c <_getc_r+0x50>
 800bd30:	89a3      	ldrh	r3, [r4, #12]
 800bd32:	059b      	lsls	r3, r3, #22
 800bd34:	d402      	bmi.n	800bd3c <_getc_r+0x50>
 800bd36:	6da0      	ldr	r0, [r4, #88]	; 0x58
 800bd38:	f000 f81a 	bl	800bd70 <__retarget_lock_release_recursive>
 800bd3c:	4628      	mov	r0, r5
 800bd3e:	bd38      	pop	{r3, r4, r5, pc}
 800bd40:	4b08      	ldr	r3, [pc, #32]	; (800bd64 <_getc_r+0x78>)
 800bd42:	429c      	cmp	r4, r3
 800bd44:	d101      	bne.n	800bd4a <_getc_r+0x5e>
 800bd46:	68ac      	ldr	r4, [r5, #8]
 800bd48:	e7dc      	b.n	800bd04 <_getc_r+0x18>
 800bd4a:	4b07      	ldr	r3, [pc, #28]	; (800bd68 <_getc_r+0x7c>)
 800bd4c:	429c      	cmp	r4, r3
 800bd4e:	bf08      	it	eq
 800bd50:	68ec      	ldreq	r4, [r5, #12]
 800bd52:	e7d7      	b.n	800bd04 <_getc_r+0x18>
 800bd54:	6823      	ldr	r3, [r4, #0]
 800bd56:	1c5a      	adds	r2, r3, #1
 800bd58:	6022      	str	r2, [r4, #0]
 800bd5a:	781d      	ldrb	r5, [r3, #0]
 800bd5c:	e7e5      	b.n	800bd2a <_getc_r+0x3e>
 800bd5e:	bf00      	nop
 800bd60:	0800e2ac 	.word	0x0800e2ac
 800bd64:	0800e2cc 	.word	0x0800e2cc
 800bd68:	0800e28c 	.word	0x0800e28c

0800bd6c <__retarget_lock_init_recursive>:
 800bd6c:	4770      	bx	lr

0800bd6e <__retarget_lock_acquire_recursive>:
 800bd6e:	4770      	bx	lr

0800bd70 <__retarget_lock_release_recursive>:
 800bd70:	4770      	bx	lr
	...

0800bd74 <_lseek_r>:
 800bd74:	b538      	push	{r3, r4, r5, lr}
 800bd76:	4604      	mov	r4, r0
 800bd78:	4608      	mov	r0, r1
 800bd7a:	4611      	mov	r1, r2
 800bd7c:	2200      	movs	r2, #0
 800bd7e:	4d05      	ldr	r5, [pc, #20]	; (800bd94 <_lseek_r+0x20>)
 800bd80:	602a      	str	r2, [r5, #0]
 800bd82:	461a      	mov	r2, r3
 800bd84:	f7f9 fba6 	bl	80054d4 <_lseek>
 800bd88:	1c43      	adds	r3, r0, #1
 800bd8a:	d102      	bne.n	800bd92 <_lseek_r+0x1e>
 800bd8c:	682b      	ldr	r3, [r5, #0]
 800bd8e:	b103      	cbz	r3, 800bd92 <_lseek_r+0x1e>
 800bd90:	6023      	str	r3, [r4, #0]
 800bd92:	bd38      	pop	{r3, r4, r5, pc}
 800bd94:	20000f4c 	.word	0x20000f4c

0800bd98 <__swhatbuf_r>:
 800bd98:	b570      	push	{r4, r5, r6, lr}
 800bd9a:	460e      	mov	r6, r1
 800bd9c:	f9b1 100e 	ldrsh.w	r1, [r1, #14]
 800bda0:	4614      	mov	r4, r2
 800bda2:	2900      	cmp	r1, #0
 800bda4:	461d      	mov	r5, r3
 800bda6:	b096      	sub	sp, #88	; 0x58
 800bda8:	da08      	bge.n	800bdbc <__swhatbuf_r+0x24>
 800bdaa:	2200      	movs	r2, #0
 800bdac:	f9b6 300c 	ldrsh.w	r3, [r6, #12]
 800bdb0:	602a      	str	r2, [r5, #0]
 800bdb2:	061a      	lsls	r2, r3, #24
 800bdb4:	d410      	bmi.n	800bdd8 <__swhatbuf_r+0x40>
 800bdb6:	f44f 6380 	mov.w	r3, #1024	; 0x400
 800bdba:	e00e      	b.n	800bdda <__swhatbuf_r+0x42>
 800bdbc:	466a      	mov	r2, sp
 800bdbe:	f001 fa1f 	bl	800d200 <_fstat_r>
 800bdc2:	2800      	cmp	r0, #0
 800bdc4:	dbf1      	blt.n	800bdaa <__swhatbuf_r+0x12>
 800bdc6:	9a01      	ldr	r2, [sp, #4]
 800bdc8:	f402 4270 	and.w	r2, r2, #61440	; 0xf000
 800bdcc:	f5a2 5300 	sub.w	r3, r2, #8192	; 0x2000
 800bdd0:	425a      	negs	r2, r3
 800bdd2:	415a      	adcs	r2, r3
 800bdd4:	602a      	str	r2, [r5, #0]
 800bdd6:	e7ee      	b.n	800bdb6 <__swhatbuf_r+0x1e>
 800bdd8:	2340      	movs	r3, #64	; 0x40
 800bdda:	2000      	movs	r0, #0
 800bddc:	6023      	str	r3, [r4, #0]
 800bdde:	b016      	add	sp, #88	; 0x58
 800bde0:	bd70      	pop	{r4, r5, r6, pc}
	...

0800bde4 <__smakebuf_r>:
 800bde4:	898b      	ldrh	r3, [r1, #12]
 800bde6:	b573      	push	{r0, r1, r4, r5, r6, lr}
 800bde8:	079d      	lsls	r5, r3, #30
 800bdea:	4606      	mov	r6, r0
 800bdec:	460c      	mov	r4, r1
 800bdee:	d507      	bpl.n	800be00 <__smakebuf_r+0x1c>
 800bdf0:	f104 0347 	add.w	r3, r4, #71	; 0x47
 800bdf4:	6023      	str	r3, [r4, #0]
 800bdf6:	6123      	str	r3, [r4, #16]
 800bdf8:	2301      	movs	r3, #1
 800bdfa:	6163      	str	r3, [r4, #20]
 800bdfc:	b002      	add	sp, #8
 800bdfe:	bd70      	pop	{r4, r5, r6, pc}
 800be00:	466a      	mov	r2, sp
 800be02:	ab01      	add	r3, sp, #4
 800be04:	f7ff ffc8 	bl	800bd98 <__swhatbuf_r>
 800be08:	9900      	ldr	r1, [sp, #0]
 800be0a:	4605      	mov	r5, r0
 800be0c:	4630      	mov	r0, r6
 800be0e:	f000 f899 	bl	800bf44 <_malloc_r>
 800be12:	b948      	cbnz	r0, 800be28 <__smakebuf_r+0x44>
 800be14:	f9b4 300c 	ldrsh.w	r3, [r4, #12]
 800be18:	059a      	lsls	r2, r3, #22
 800be1a:	d4ef      	bmi.n	800bdfc <__smakebuf_r+0x18>
 800be1c:	f023 0303 	bic.w	r3, r3, #3
 800be20:	f043 0302 	orr.w	r3, r3, #2
 800be24:	81a3      	strh	r3, [r4, #12]
 800be26:	e7e3      	b.n	800bdf0 <__smakebuf_r+0xc>
 800be28:	4b0d      	ldr	r3, [pc, #52]	; (800be60 <__smakebuf_r+0x7c>)
 800be2a:	62b3      	str	r3, [r6, #40]	; 0x28
 800be2c:	89a3      	ldrh	r3, [r4, #12]
 800be2e:	6020      	str	r0, [r4, #0]
 800be30:	f043 0380 	orr.w	r3, r3, #128	; 0x80
 800be34:	81a3      	strh	r3, [r4, #12]
 800be36:	9b00      	ldr	r3, [sp, #0]
 800be38:	6120      	str	r0, [r4, #16]
 800be3a:	6163      	str	r3, [r4, #20]
 800be3c:	9b01      	ldr	r3, [sp, #4]
 800be3e:	b15b      	cbz	r3, 800be58 <__smakebuf_r+0x74>
 800be40:	4630      	mov	r0, r6
 800be42:	f9b4 100e 	ldrsh.w	r1, [r4, #14]
 800be46:	f001 f9ed 	bl	800d224 <_isatty_r>
 800be4a:	b128      	cbz	r0, 800be58 <__smakebuf_r+0x74>
 800be4c:	89a3      	ldrh	r3, [r4, #12]
 800be4e:	f023 0303 	bic.w	r3, r3, #3
 800be52:	f043 0301 	orr.w	r3, r3, #1
 800be56:	81a3      	strh	r3, [r4, #12]
 800be58:	89a0      	ldrh	r0, [r4, #12]
 800be5a:	4305      	orrs	r5, r0
 800be5c:	81a5      	strh	r5, [r4, #12]
 800be5e:	e7cd      	b.n	800bdfc <__smakebuf_r+0x18>
 800be60:	0800bb11 	.word	0x0800bb11

0800be64 <malloc>:
 800be64:	4b02      	ldr	r3, [pc, #8]	; (800be70 <malloc+0xc>)
 800be66:	4601      	mov	r1, r0
 800be68:	6818      	ldr	r0, [r3, #0]
 800be6a:	f000 b86b 	b.w	800bf44 <_malloc_r>
 800be6e:	bf00      	nop
 800be70:	20000140 	.word	0x20000140

0800be74 <_free_r>:
 800be74:	b538      	push	{r3, r4, r5, lr}
 800be76:	4605      	mov	r5, r0
 800be78:	2900      	cmp	r1, #0
 800be7a:	d040      	beq.n	800befe <_free_r+0x8a>
 800be7c:	f851 3c04 	ldr.w	r3, [r1, #-4]
 800be80:	1f0c      	subs	r4, r1, #4
 800be82:	2b00      	cmp	r3, #0
 800be84:	bfb8      	it	lt
 800be86:	18e4      	addlt	r4, r4, r3
 800be88:	f001 fa04 	bl	800d294 <__malloc_lock>
 800be8c:	4a1c      	ldr	r2, [pc, #112]	; (800bf00 <_free_r+0x8c>)
 800be8e:	6813      	ldr	r3, [r2, #0]
 800be90:	b933      	cbnz	r3, 800bea0 <_free_r+0x2c>
 800be92:	6063      	str	r3, [r4, #4]
 800be94:	6014      	str	r4, [r2, #0]
 800be96:	4628      	mov	r0, r5
 800be98:	e8bd 4038 	ldmia.w	sp!, {r3, r4, r5, lr}
 800be9c:	f001 ba00 	b.w	800d2a0 <__malloc_unlock>
 800bea0:	42a3      	cmp	r3, r4
 800bea2:	d908      	bls.n	800beb6 <_free_r+0x42>
 800bea4:	6820      	ldr	r0, [r4, #0]
 800bea6:	1821      	adds	r1, r4, r0
 800bea8:	428b      	cmp	r3, r1
 800beaa:	bf01      	itttt	eq
 800beac:	6819      	ldreq	r1, [r3, #0]
 800beae:	685b      	ldreq	r3, [r3, #4]
 800beb0:	1809      	addeq	r1, r1, r0
 800beb2:	6021      	streq	r1, [r4, #0]
 800beb4:	e7ed      	b.n	800be92 <_free_r+0x1e>
 800beb6:	461a      	mov	r2, r3
 800beb8:	685b      	ldr	r3, [r3, #4]
 800beba:	b10b      	cbz	r3, 800bec0 <_free_r+0x4c>
 800bebc:	42a3      	cmp	r3, r4
 800bebe:	d9fa      	bls.n	800beb6 <_free_r+0x42>
 800bec0:	6811      	ldr	r1, [r2, #0]
 800bec2:	1850      	adds	r0, r2, r1
 800bec4:	42a0      	cmp	r0, r4
 800bec6:	d10b      	bne.n	800bee0 <_free_r+0x6c>
 800bec8:	6820      	ldr	r0, [r4, #0]
 800beca:	4401      	add	r1, r0
 800becc:	1850      	adds	r0, r2, r1
 800bece:	4283      	cmp	r3, r0
 800bed0:	6011      	str	r1, [r2, #0]
 800bed2:	d1e0      	bne.n	800be96 <_free_r+0x22>
 800bed4:	6818      	ldr	r0, [r3, #0]
 800bed6:	685b      	ldr	r3, [r3, #4]
 800bed8:	4401      	add	r1, r0
 800beda:	6011      	str	r1, [r2, #0]
 800bedc:	6053      	str	r3, [r2, #4]
 800bede:	e7da      	b.n	800be96 <_free_r+0x22>
 800bee0:	d902      	bls.n	800bee8 <_free_r+0x74>
 800bee2:	230c      	movs	r3, #12
 800bee4:	602b      	str	r3, [r5, #0]
 800bee6:	e7d6      	b.n	800be96 <_free_r+0x22>
 800bee8:	6820      	ldr	r0, [r4, #0]
 800beea:	1821      	adds	r1, r4, r0
 800beec:	428b      	cmp	r3, r1
 800beee:	bf01      	itttt	eq
 800bef0:	6819      	ldreq	r1, [r3, #0]
 800bef2:	685b      	ldreq	r3, [r3, #4]
 800bef4:	1809      	addeq	r1, r1, r0
 800bef6:	6021      	streq	r1, [r4, #0]
 800bef8:	6063      	str	r3, [r4, #4]
 800befa:	6054      	str	r4, [r2, #4]
 800befc:	e7cb      	b.n	800be96 <_free_r+0x22>
 800befe:	bd38      	pop	{r3, r4, r5, pc}
 800bf00:	20000f44 	.word	0x20000f44

0800bf04 <sbrk_aligned>:
 800bf04:	b570      	push	{r4, r5, r6, lr}
 800bf06:	4e0e      	ldr	r6, [pc, #56]	; (800bf40 <sbrk_aligned+0x3c>)
 800bf08:	460c      	mov	r4, r1
 800bf0a:	6831      	ldr	r1, [r6, #0]
 800bf0c:	4605      	mov	r5, r0
 800bf0e:	b911      	cbnz	r1, 800bf16 <sbrk_aligned+0x12>
 800bf10:	f001 f882 	bl	800d018 <_sbrk_r>
 800bf14:	6030      	str	r0, [r6, #0]
 800bf16:	4621      	mov	r1, r4
 800bf18:	4628      	mov	r0, r5
 800bf1a:	f001 f87d 	bl	800d018 <_sbrk_r>
 800bf1e:	1c43      	adds	r3, r0, #1
 800bf20:	d00a      	beq.n	800bf38 <sbrk_aligned+0x34>
 800bf22:	1cc4      	adds	r4, r0, #3
 800bf24:	f024 0403 	bic.w	r4, r4, #3
 800bf28:	42a0      	cmp	r0, r4
 800bf2a:	d007      	beq.n	800bf3c <sbrk_aligned+0x38>
 800bf2c:	1a21      	subs	r1, r4, r0
 800bf2e:	4628      	mov	r0, r5
 800bf30:	f001 f872 	bl	800d018 <_sbrk_r>
 800bf34:	3001      	adds	r0, #1
 800bf36:	d101      	bne.n	800bf3c <sbrk_aligned+0x38>
 800bf38:	f04f 34ff 	mov.w	r4, #4294967295
 800bf3c:	4620      	mov	r0, r4
 800bf3e:	bd70      	pop	{r4, r5, r6, pc}
 800bf40:	20000f48 	.word	0x20000f48

0800bf44 <_malloc_r>:
 800bf44:	e92d 41f0 	stmdb	sp!, {r4, r5, r6, r7, r8, lr}
 800bf48:	1ccd      	adds	r5, r1, #3
 800bf4a:	f025 0503 	bic.w	r5, r5, #3
 800bf4e:	3508      	adds	r5, #8
 800bf50:	2d0c      	cmp	r5, #12
 800bf52:	bf38      	it	cc
 800bf54:	250c      	movcc	r5, #12
 800bf56:	2d00      	cmp	r5, #0
 800bf58:	4607      	mov	r7, r0
 800bf5a:	db01      	blt.n	800bf60 <_malloc_r+0x1c>
 800bf5c:	42a9      	cmp	r1, r5
 800bf5e:	d905      	bls.n	800bf6c <_malloc_r+0x28>
 800bf60:	230c      	movs	r3, #12
 800bf62:	2600      	movs	r6, #0
 800bf64:	603b      	str	r3, [r7, #0]
 800bf66:	4630      	mov	r0, r6
 800bf68:	e8bd 81f0 	ldmia.w	sp!, {r4, r5, r6, r7, r8, pc}
 800bf6c:	4e2e      	ldr	r6, [pc, #184]	; (800c028 <_malloc_r+0xe4>)
 800bf6e:	f001 f991 	bl	800d294 <__malloc_lock>
 800bf72:	6833      	ldr	r3, [r6, #0]
 800bf74:	461c      	mov	r4, r3
 800bf76:	bb34      	cbnz	r4, 800bfc6 <_malloc_r+0x82>
 800bf78:	4629      	mov	r1, r5
 800bf7a:	4638      	mov	r0, r7
 800bf7c:	f7ff ffc2 	bl	800bf04 <sbrk_aligned>
 800bf80:	1c43      	adds	r3, r0, #1
 800bf82:	4604      	mov	r4, r0
 800bf84:	d14d      	bne.n	800c022 <_malloc_r+0xde>
 800bf86:	6834      	ldr	r4, [r6, #0]
 800bf88:	4626      	mov	r6, r4
 800bf8a:	2e00      	cmp	r6, #0
 800bf8c:	d140      	bne.n	800c010 <_malloc_r+0xcc>
 800bf8e:	6823      	ldr	r3, [r4, #0]
 800bf90:	4631      	mov	r1, r6
 800bf92:	4638      	mov	r0, r7
 800bf94:	eb04 0803 	add.w	r8, r4, r3
 800bf98:	f001 f83e 	bl	800d018 <_sbrk_r>
 800bf9c:	4580      	cmp	r8, r0
 800bf9e:	d13a      	bne.n	800c016 <_malloc_r+0xd2>
 800bfa0:	6821      	ldr	r1, [r4, #0]
 800bfa2:	3503      	adds	r5, #3
 800bfa4:	1a6d      	subs	r5, r5, r1
 800bfa6:	f025 0503 	bic.w	r5, r5, #3
 800bfaa:	3508      	adds	r5, #8
 800bfac:	2d0c      	cmp	r5, #12
 800bfae:	bf38      	it	cc
 800bfb0:	250c      	movcc	r5, #12
 800bfb2:	4638      	mov	r0, r7
 800bfb4:	4629      	mov	r1, r5
 800bfb6:	f7ff ffa5 	bl	800bf04 <sbrk_aligned>
 800bfba:	3001      	adds	r0, #1
 800bfbc:	d02b      	beq.n	800c016 <_malloc_r+0xd2>
 800bfbe:	6823      	ldr	r3, [r4, #0]
 800bfc0:	442b      	add	r3, r5
 800bfc2:	6023      	str	r3, [r4, #0]
 800bfc4:	e00e      	b.n	800bfe4 <_malloc_r+0xa0>
 800bfc6:	6822      	ldr	r2, [r4, #0]
 800bfc8:	1b52      	subs	r2, r2, r5
 800bfca:	d41e      	bmi.n	800c00a <_malloc_r+0xc6>
 800bfcc:	2a0b      	cmp	r2, #11
 800bfce:	d916      	bls.n	800bffe <_malloc_r+0xba>
 800bfd0:	1961      	adds	r1, r4, r5
 800bfd2:	42a3      	cmp	r3, r4
 800bfd4:	6025      	str	r5, [r4, #0]
 800bfd6:	bf18      	it	ne
 800bfd8:	6059      	strne	r1, [r3, #4]
 800bfda:	6863      	ldr	r3, [r4, #4]
 800bfdc:	bf08      	it	eq
 800bfde:	6031      	streq	r1, [r6, #0]
 800bfe0:	5162      	str	r2, [r4, r5]
 800bfe2:	604b      	str	r3, [r1, #4]
 800bfe4:	4638      	mov	r0, r7
 800bfe6:	f104 060b 	add.w	r6, r4, #11
 800bfea:	f001 f959 	bl	800d2a0 <__malloc_unlock>
 800bfee:	f026 0607 	bic.w	r6, r6, #7
 800bff2:	1d23      	adds	r3, r4, #4
 800bff4:	1af2      	subs	r2, r6, r3
 800bff6:	d0b6      	beq.n	800bf66 <_malloc_r+0x22>
 800bff8:	1b9b      	subs	r3, r3, r6
 800bffa:	50a3      	str	r3, [r4, r2]
 800bffc:	e7b3      	b.n	800bf66 <_malloc_r+0x22>
 800bffe:	6862      	ldr	r2, [r4, #4]
 800c000:	42a3      	cmp	r3, r4
 800c002:	bf0c      	ite	eq
 800c004:	6032      	streq	r2, [r6, #0]
 800c006:	605a      	strne	r2, [r3, #4]
 800c008:	e7ec      	b.n	800bfe4 <_malloc_r+0xa0>
 800c00a:	4623      	mov	r3, r4
 800c00c:	6864      	ldr	r4, [r4, #4]
 800c00e:	e7b2      	b.n	800bf76 <_malloc_r+0x32>
 800c010:	4634      	mov	r4, r6
 800c012:	6876      	ldr	r6, [r6, #4]
 800c014:	e7b9      	b.n	800bf8a <_malloc_r+0x46>
 800c016:	230c      	movs	r3, #12
 800c018:	4638      	mov	r0, r7
 800c01a:	603b      	str	r3, [r7, #0]
 800c01c:	f001 f940 	bl	800d2a0 <__malloc_unlock>
 800c020:	e7a1      	b.n	800bf66 <_malloc_r+0x22>
 800c022:	6025      	str	r5, [r4, #0]
 800c024:	e7de      	b.n	800bfe4 <_malloc_r+0xa0>
 800c026:	bf00      	nop
 800c028:	20000f44 	.word	0x20000f44

0800c02c <__ssputs_r>:
 800c02c:	e92d 47f0 	stmdb	sp!, {r4, r5, r6, r7, r8, r9, sl, lr}
 800c030:	688e      	ldr	r6, [r1, #8]
 800c032:	4682      	mov	sl, r0
 800c034:	429e      	cmp	r6, r3
 800c036:	460c      	mov	r4, r1
 800c038:	4690      	mov	r8, r2
 800c03a:	461f      	mov	r7, r3
 800c03c:	d838      	bhi.n	800c0b0 <__ssputs_r+0x84>
 800c03e:	898a      	ldrh	r2, [r1, #12]
 800c040:	f412 6f90 	tst.w	r2, #1152	; 0x480
 800c044:	d032      	beq.n	800c0ac <__ssputs_r+0x80>
 800c046:	6825      	ldr	r5, [r4, #0]
 800c048:	6909      	ldr	r1, [r1, #16]
 800c04a:	3301      	adds	r3, #1
 800c04c:	eba5 0901 	sub.w	r9, r5, r1
 800c050:	6965      	ldr	r5, [r4, #20]
 800c052:	444b      	add	r3, r9
 800c054:	eb05 0545 	add.w	r5, r5, r5, lsl #1
 800c058:	eb05 75d5 	add.w	r5, r5, r5, lsr #31
 800c05c:	106d      	asrs	r5, r5, #1
 800c05e:	429d      	cmp	r5, r3
 800c060:	bf38      	it	cc
 800c062:	461d      	movcc	r5, r3
 800c064:	0553      	lsls	r3, r2, #21
 800c066:	d531      	bpl.n	800c0cc <__ssputs_r+0xa0>
 800c068:	4629      	mov	r1, r5
 800c06a:	f7ff ff6b 	bl	800bf44 <_malloc_r>
 800c06e:	4606      	mov	r6, r0
 800c070:	b950      	cbnz	r0, 800c088 <__ssputs_r+0x5c>
 800c072:	230c      	movs	r3, #12
 800c074:	f04f 30ff 	mov.w	r0, #4294967295
 800c078:	f8ca 3000 	str.w	r3, [sl]
 800c07c:	89a3      	ldrh	r3, [r4, #12]
 800c07e:	f043 0340 	orr.w	r3, r3, #64	; 0x40
 800c082:	81a3      	strh	r3, [r4, #12]
 800c084:	e8bd 87f0 	ldmia.w	sp!, {r4, r5, r6, r7, r8, r9, sl, pc}
 800c088:	464a      	mov	r2, r9
 800c08a:	6921      	ldr	r1, [r4, #16]
 800c08c:	f7ff f896 	bl	800b1bc <memcpy>
 800c090:	89a3      	ldrh	r3, [r4, #12]
 800c092:	f423 6390 	bic.w	r3, r3, #1152	; 0x480
 800c096:	f043 0380 	orr.w	r3, r3, #128	; 0x80
 800c09a:	81a3      	strh	r3, [r4, #12]
 800c09c:	6126      	str	r6, [r4, #16]
 800c09e:	444e      	add	r6, r9
 800c0a0:	6026      	str	r6, [r4, #0]
 800c0a2:	463e      	mov	r6, r7
 800c0a4:	6165      	str	r5, [r4, #20]
 800c0a6:	eba5 0509 	sub.w	r5, r5, r9
 800c0aa:	60a5      	str	r5, [r4, #8]
 800c0ac:	42be      	cmp	r6, r7
 800c0ae:	d900      	bls.n	800c0b2 <__ssputs_r+0x86>
 800c0b0:	463e      	mov	r6, r7
 800c0b2:	4632      	mov	r2, r6
 800c0b4:	4641      	mov	r1, r8
 800c0b6:	6820      	ldr	r0, [r4, #0]
 800c0b8:	f001 f8d2 	bl	800d260 <memmove>
 800c0bc:	68a3      	ldr	r3, [r4, #8]
 800c0be:	2000      	movs	r0, #0
 800c0c0:	1b9b      	subs	r3, r3, r6
 800c0c2:	60a3      	str	r3, [r4, #8]
 800c0c4:	6823      	ldr	r3, [r4, #0]
 800c0c6:	4433      	add	r3, r6
 800c0c8:	6023      	str	r3, [r4, #0]
 800c0ca:	e7db      	b.n	800c084 <__ssputs_r+0x58>
 800c0cc:	462a      	mov	r2, r5
 800c0ce:	f001 f8ed 	bl	800d2ac <_realloc_r>
 800c0d2:	4606      	mov	r6, r0
 800c0d4:	2800      	cmp	r0, #0
 800c0d6:	d1e1      	bne.n	800c09c <__ssputs_r+0x70>
 800c0d8:	4650      	mov	r0, sl
 800c0da:	6921      	ldr	r1, [r4, #16]
 800c0dc:	f7ff feca 	bl	800be74 <_free_r>
 800c0e0:	e7c7      	b.n	800c072 <__ssputs_r+0x46>
	...

0800c0e4 <_svfiprintf_r>:
 800c0e4:	e92d 4ff0 	stmdb	sp!, {r4, r5, r6, r7, r8, r9, sl, fp, lr}
 800c0e8:	4698      	mov	r8, r3
 800c0ea:	898b      	ldrh	r3, [r1, #12]
 800c0ec:	4607      	mov	r7, r0
 800c0ee:	061b      	lsls	r3, r3, #24
 800c0f0:	460d      	mov	r5, r1
 800c0f2:	4614      	mov	r4, r2
 800c0f4:	b09d      	sub	sp, #116	; 0x74
 800c0f6:	d50e      	bpl.n	800c116 <_svfiprintf_r+0x32>
 800c0f8:	690b      	ldr	r3, [r1, #16]
 800c0fa:	b963      	cbnz	r3, 800c116 <_svfiprintf_r+0x32>
 800c0fc:	2140      	movs	r1, #64	; 0x40
 800c0fe:	f7ff ff21 	bl	800bf44 <_malloc_r>
 800c102:	6028      	str	r0, [r5, #0]
 800c104:	6128      	str	r0, [r5, #16]
 800c106:	b920      	cbnz	r0, 800c112 <_svfiprintf_r+0x2e>
 800c108:	230c      	movs	r3, #12
 800c10a:	603b      	str	r3, [r7, #0]
 800c10c:	f04f 30ff 	mov.w	r0, #4294967295
 800c110:	e0d1      	b.n	800c2b6 <_svfiprintf_r+0x1d2>
 800c112:	2340      	movs	r3, #64	; 0x40
 800c114:	616b      	str	r3, [r5, #20]
 800c116:	2300      	movs	r3, #0
 800c118:	9309      	str	r3, [sp, #36]	; 0x24
 800c11a:	2320      	movs	r3, #32
 800c11c:	f88d 3029 	strb.w	r3, [sp, #41]	; 0x29
 800c120:	2330      	movs	r3, #48	; 0x30
 800c122:	f04f 0901 	mov.w	r9, #1
 800c126:	f8cd 800c 	str.w	r8, [sp, #12]
 800c12a:	f8df 81a4 	ldr.w	r8, [pc, #420]	; 800c2d0 <_svfiprintf_r+0x1ec>
 800c12e:	f88d 302a 	strb.w	r3, [sp, #42]	; 0x2a
 800c132:	4623      	mov	r3, r4
 800c134:	469a      	mov	sl, r3
 800c136:	f813 2b01 	ldrb.w	r2, [r3], #1
 800c13a:	b10a      	cbz	r2, 800c140 <_svfiprintf_r+0x5c>
 800c13c:	2a25      	cmp	r2, #37	; 0x25
 800c13e:	d1f9      	bne.n	800c134 <_svfiprintf_r+0x50>
 800c140:	ebba 0b04 	subs.w	fp, sl, r4
 800c144:	d00b      	beq.n	800c15e <_svfiprintf_r+0x7a>
 800c146:	465b      	mov	r3, fp
 800c148:	4622      	mov	r2, r4
 800c14a:	4629      	mov	r1, r5
 800c14c:	4638      	mov	r0, r7
 800c14e:	f7ff ff6d 	bl	800c02c <__ssputs_r>
 800c152:	3001      	adds	r0, #1
 800c154:	f000 80aa 	beq.w	800c2ac <_svfiprintf_r+0x1c8>
 800c158:	9a09      	ldr	r2, [sp, #36]	; 0x24
 800c15a:	445a      	add	r2, fp
 800c15c:	9209      	str	r2, [sp, #36]	; 0x24
 800c15e:	f89a 3000 	ldrb.w	r3, [sl]
 800c162:	2b00      	cmp	r3, #0
 800c164:	f000 80a2 	beq.w	800c2ac <_svfiprintf_r+0x1c8>
 800c168:	2300      	movs	r3, #0
 800c16a:	f04f 32ff 	mov.w	r2, #4294967295
 800c16e:	e9cd 2305 	strd	r2, r3, [sp, #20]
 800c172:	f10a 0a01 	add.w	sl, sl, #1
 800c176:	9304      	str	r3, [sp, #16]
 800c178:	9307      	str	r3, [sp, #28]
 800c17a:	f88d 3053 	strb.w	r3, [sp, #83]	; 0x53
 800c17e:	931a      	str	r3, [sp, #104]	; 0x68
 800c180:	4654      	mov	r4, sl
 800c182:	2205      	movs	r2, #5
 800c184:	f814 1b01 	ldrb.w	r1, [r4], #1
 800c188:	4851      	ldr	r0, [pc, #324]	; (800c2d0 <_svfiprintf_r+0x1ec>)
 800c18a:	f001 f85b 	bl	800d244 <memchr>
 800c18e:	9a04      	ldr	r2, [sp, #16]
 800c190:	b9d8      	cbnz	r0, 800c1ca <_svfiprintf_r+0xe6>
 800c192:	06d0      	lsls	r0, r2, #27
 800c194:	bf44      	itt	mi
 800c196:	2320      	movmi	r3, #32
 800c198:	f88d 3053 	strbmi.w	r3, [sp, #83]	; 0x53
 800c19c:	0711      	lsls	r1, r2, #28
 800c19e:	bf44      	itt	mi
 800c1a0:	232b      	movmi	r3, #43	; 0x2b
 800c1a2:	f88d 3053 	strbmi.w	r3, [sp, #83]	; 0x53
 800c1a6:	f89a 3000 	ldrb.w	r3, [sl]
 800c1aa:	2b2a      	cmp	r3, #42	; 0x2a
 800c1ac:	d015      	beq.n	800c1da <_svfiprintf_r+0xf6>
 800c1ae:	4654      	mov	r4, sl
 800c1b0:	2000      	movs	r0, #0
 800c1b2:	f04f 0c0a 	mov.w	ip, #10
 800c1b6:	9a07      	ldr	r2, [sp, #28]
 800c1b8:	4621      	mov	r1, r4
 800c1ba:	f811 3b01 	ldrb.w	r3, [r1], #1
 800c1be:	3b30      	subs	r3, #48	; 0x30
 800c1c0:	2b09      	cmp	r3, #9
 800c1c2:	d94e      	bls.n	800c262 <_svfiprintf_r+0x17e>
 800c1c4:	b1b0      	cbz	r0, 800c1f4 <_svfiprintf_r+0x110>
 800c1c6:	9207      	str	r2, [sp, #28]
 800c1c8:	e014      	b.n	800c1f4 <_svfiprintf_r+0x110>
 800c1ca:	eba0 0308 	sub.w	r3, r0, r8
 800c1ce:	fa09 f303 	lsl.w	r3, r9, r3
 800c1d2:	4313      	orrs	r3, r2
 800c1d4:	46a2      	mov	sl, r4
 800c1d6:	9304      	str	r3, [sp, #16]
 800c1d8:	e7d2      	b.n	800c180 <_svfiprintf_r+0x9c>
 800c1da:	9b03      	ldr	r3, [sp, #12]
 800c1dc:	1d19      	adds	r1, r3, #4
 800c1de:	681b      	ldr	r3, [r3, #0]
 800c1e0:	9103      	str	r1, [sp, #12]
 800c1e2:	2b00      	cmp	r3, #0
 800c1e4:	bfbb      	ittet	lt
 800c1e6:	425b      	neglt	r3, r3
 800c1e8:	f042 0202 	orrlt.w	r2, r2, #2
 800c1ec:	9307      	strge	r3, [sp, #28]
 800c1ee:	9307      	strlt	r3, [sp, #28]
 800c1f0:	bfb8      	it	lt
 800c1f2:	9204      	strlt	r2, [sp, #16]
 800c1f4:	7823      	ldrb	r3, [r4, #0]
 800c1f6:	2b2e      	cmp	r3, #46	; 0x2e
 800c1f8:	d10c      	bne.n	800c214 <_svfiprintf_r+0x130>
 800c1fa:	7863      	ldrb	r3, [r4, #1]
 800c1fc:	2b2a      	cmp	r3, #42	; 0x2a
 800c1fe:	d135      	bne.n	800c26c <_svfiprintf_r+0x188>
 800c200:	9b03      	ldr	r3, [sp, #12]
 800c202:	3402      	adds	r4, #2
 800c204:	1d1a      	adds	r2, r3, #4
 800c206:	681b      	ldr	r3, [r3, #0]
 800c208:	9203      	str	r2, [sp, #12]
 800c20a:	2b00      	cmp	r3, #0
 800c20c:	bfb8      	it	lt
 800c20e:	f04f 33ff 	movlt.w	r3, #4294967295
 800c212:	9305      	str	r3, [sp, #20]
 800c214:	f8df a0bc 	ldr.w	sl, [pc, #188]	; 800c2d4 <_svfiprintf_r+0x1f0>
 800c218:	2203      	movs	r2, #3
 800c21a:	4650      	mov	r0, sl
 800c21c:	7821      	ldrb	r1, [r4, #0]
 800c21e:	f001 f811 	bl	800d244 <memchr>
 800c222:	b140      	cbz	r0, 800c236 <_svfiprintf_r+0x152>
 800c224:	2340      	movs	r3, #64	; 0x40
 800c226:	eba0 000a 	sub.w	r0, r0, sl
 800c22a:	fa03 f000 	lsl.w	r0, r3, r0
 800c22e:	9b04      	ldr	r3, [sp, #16]
 800c230:	3401      	adds	r4, #1
 800c232:	4303      	orrs	r3, r0
 800c234:	9304      	str	r3, [sp, #16]
 800c236:	f814 1b01 	ldrb.w	r1, [r4], #1
 800c23a:	2206      	movs	r2, #6
 800c23c:	4826      	ldr	r0, [pc, #152]	; (800c2d8 <_svfiprintf_r+0x1f4>)
 800c23e:	f88d 1028 	strb.w	r1, [sp, #40]	; 0x28
 800c242:	f000 ffff 	bl	800d244 <memchr>
 800c246:	2800      	cmp	r0, #0
 800c248:	d038      	beq.n	800c2bc <_svfiprintf_r+0x1d8>
 800c24a:	4b24      	ldr	r3, [pc, #144]	; (800c2dc <_svfiprintf_r+0x1f8>)
 800c24c:	bb1b      	cbnz	r3, 800c296 <_svfiprintf_r+0x1b2>
 800c24e:	9b03      	ldr	r3, [sp, #12]
 800c250:	3307      	adds	r3, #7
 800c252:	f023 0307 	bic.w	r3, r3, #7
 800c256:	3308      	adds	r3, #8
 800c258:	9303      	str	r3, [sp, #12]
 800c25a:	9b09      	ldr	r3, [sp, #36]	; 0x24
 800c25c:	4433      	add	r3, r6
 800c25e:	9309      	str	r3, [sp, #36]	; 0x24
 800c260:	e767      	b.n	800c132 <_svfiprintf_r+0x4e>
 800c262:	460c      	mov	r4, r1
 800c264:	2001      	movs	r0, #1
 800c266:	fb0c 3202 	mla	r2, ip, r2, r3
 800c26a:	e7a5      	b.n	800c1b8 <_svfiprintf_r+0xd4>
 800c26c:	2300      	movs	r3, #0
 800c26e:	f04f 0c0a 	mov.w	ip, #10
 800c272:	4619      	mov	r1, r3
 800c274:	3401      	adds	r4, #1
 800c276:	9305      	str	r3, [sp, #20]
 800c278:	4620      	mov	r0, r4
 800c27a:	f810 2b01 	ldrb.w	r2, [r0], #1
 800c27e:	3a30      	subs	r2, #48	; 0x30
 800c280:	2a09      	cmp	r2, #9
 800c282:	d903      	bls.n	800c28c <_svfiprintf_r+0x1a8>
 800c284:	2b00      	cmp	r3, #0
 800c286:	d0c5      	beq.n	800c214 <_svfiprintf_r+0x130>
 800c288:	9105      	str	r1, [sp, #20]
 800c28a:	e7c3      	b.n	800c214 <_svfiprintf_r+0x130>
 800c28c:	4604      	mov	r4, r0
 800c28e:	2301      	movs	r3, #1
 800c290:	fb0c 2101 	mla	r1, ip, r1, r2
 800c294:	e7f0      	b.n	800c278 <_svfiprintf_r+0x194>
 800c296:	ab03      	add	r3, sp, #12
 800c298:	9300      	str	r3, [sp, #0]
 800c29a:	462a      	mov	r2, r5
 800c29c:	4638      	mov	r0, r7
 800c29e:	4b10      	ldr	r3, [pc, #64]	; (800c2e0 <_svfiprintf_r+0x1fc>)
 800c2a0:	a904      	add	r1, sp, #16
 800c2a2:	f3af 8000 	nop.w
 800c2a6:	1c42      	adds	r2, r0, #1
 800c2a8:	4606      	mov	r6, r0
 800c2aa:	d1d6      	bne.n	800c25a <_svfiprintf_r+0x176>
 800c2ac:	89ab      	ldrh	r3, [r5, #12]
 800c2ae:	065b      	lsls	r3, r3, #25
 800c2b0:	f53f af2c 	bmi.w	800c10c <_svfiprintf_r+0x28>
 800c2b4:	9809      	ldr	r0, [sp, #36]	; 0x24
 800c2b6:	b01d      	add	sp, #116	; 0x74
 800c2b8:	e8bd 8ff0 	ldmia.w	sp!, {r4, r5, r6, r7, r8, r9, sl, fp, pc}
 800c2bc:	ab03      	add	r3, sp, #12
 800c2be:	9300      	str	r3, [sp, #0]
 800c2c0:	462a      	mov	r2, r5
 800c2c2:	4638      	mov	r0, r7
 800c2c4:	4b06      	ldr	r3, [pc, #24]	; (800c2e0 <_svfiprintf_r+0x1fc>)
 800c2c6:	a904      	add	r1, sp, #16
 800c2c8:	f000 fba8 	bl	800ca1c <_printf_i>
 800c2cc:	e7eb      	b.n	800c2a6 <_svfiprintf_r+0x1c2>
 800c2ce:	bf00      	nop
 800c2d0:	0800e2ec 	.word	0x0800e2ec
 800c2d4:	0800e2f2 	.word	0x0800e2f2
 800c2d8:	0800e2f6 	.word	0x0800e2f6
 800c2dc:	00000000 	.word	0x00000000
 800c2e0:	0800c02d 	.word	0x0800c02d

0800c2e4 <_sungetc_r>:
 800c2e4:	b538      	push	{r3, r4, r5, lr}
 800c2e6:	1c4b      	adds	r3, r1, #1
 800c2e8:	4614      	mov	r4, r2
 800c2ea:	d103      	bne.n	800c2f4 <_sungetc_r+0x10>
 800c2ec:	f04f 35ff 	mov.w	r5, #4294967295
 800c2f0:	4628      	mov	r0, r5
 800c2f2:	bd38      	pop	{r3, r4, r5, pc}
 800c2f4:	8993      	ldrh	r3, [r2, #12]
 800c2f6:	b2cd      	uxtb	r5, r1
 800c2f8:	f023 0320 	bic.w	r3, r3, #32
 800c2fc:	8193      	strh	r3, [r2, #12]
 800c2fe:	6b63      	ldr	r3, [r4, #52]	; 0x34
 800c300:	6852      	ldr	r2, [r2, #4]
 800c302:	b18b      	cbz	r3, 800c328 <_sungetc_r+0x44>
 800c304:	6ba3      	ldr	r3, [r4, #56]	; 0x38
 800c306:	4293      	cmp	r3, r2
 800c308:	dd08      	ble.n	800c31c <_sungetc_r+0x38>
 800c30a:	6823      	ldr	r3, [r4, #0]
 800c30c:	1e5a      	subs	r2, r3, #1
 800c30e:	6022      	str	r2, [r4, #0]
 800c310:	f803 5c01 	strb.w	r5, [r3, #-1]
 800c314:	6863      	ldr	r3, [r4, #4]
 800c316:	3301      	adds	r3, #1
 800c318:	6063      	str	r3, [r4, #4]
 800c31a:	e7e9      	b.n	800c2f0 <_sungetc_r+0xc>
 800c31c:	4621      	mov	r1, r4
 800c31e:	f000 ff37 	bl	800d190 <__submore>
 800c322:	2800      	cmp	r0, #0
 800c324:	d0f1      	beq.n	800c30a <_sungetc_r+0x26>
 800c326:	e7e1      	b.n	800c2ec <_sungetc_r+0x8>
 800c328:	6921      	ldr	r1, [r4, #16]
 800c32a:	6823      	ldr	r3, [r4, #0]
 800c32c:	b151      	cbz	r1, 800c344 <_sungetc_r+0x60>
 800c32e:	4299      	cmp	r1, r3
 800c330:	d208      	bcs.n	800c344 <_sungetc_r+0x60>
 800c332:	f813 1c01 	ldrb.w	r1, [r3, #-1]
 800c336:	42a9      	cmp	r1, r5
 800c338:	d104      	bne.n	800c344 <_sungetc_r+0x60>
 800c33a:	3b01      	subs	r3, #1
 800c33c:	3201      	adds	r2, #1
 800c33e:	6023      	str	r3, [r4, #0]
 800c340:	6062      	str	r2, [r4, #4]
 800c342:	e7d5      	b.n	800c2f0 <_sungetc_r+0xc>
 800c344:	e9c4 320f 	strd	r3, r2, [r4, #60]	; 0x3c
 800c348:	f104 0344 	add.w	r3, r4, #68	; 0x44
 800c34c:	6363      	str	r3, [r4, #52]	; 0x34
 800c34e:	2303      	movs	r3, #3
 800c350:	63a3      	str	r3, [r4, #56]	; 0x38
 800c352:	4623      	mov	r3, r4
 800c354:	f803 5f46 	strb.w	r5, [r3, #70]!
 800c358:	6023      	str	r3, [r4, #0]
 800c35a:	2301      	movs	r3, #1
 800c35c:	e7dc      	b.n	800c318 <_sungetc_r+0x34>

0800c35e <__ssrefill_r>:
 800c35e:	b510      	push	{r4, lr}
 800c360:	460c      	mov	r4, r1
 800c362:	6b49      	ldr	r1, [r1, #52]	; 0x34
 800c364:	b169      	cbz	r1, 800c382 <__ssrefill_r+0x24>
 800c366:	f104 0344 	add.w	r3, r4, #68	; 0x44
 800c36a:	4299      	cmp	r1, r3
 800c36c:	d001      	beq.n	800c372 <__ssrefill_r+0x14>
 800c36e:	f7ff fd81 	bl	800be74 <_free_r>
 800c372:	2000      	movs	r0, #0
 800c374:	6c23      	ldr	r3, [r4, #64]	; 0x40
 800c376:	6360      	str	r0, [r4, #52]	; 0x34
 800c378:	6063      	str	r3, [r4, #4]
 800c37a:	b113      	cbz	r3, 800c382 <__ssrefill_r+0x24>
 800c37c:	6be3      	ldr	r3, [r4, #60]	; 0x3c
 800c37e:	6023      	str	r3, [r4, #0]
 800c380:	bd10      	pop	{r4, pc}
 800c382:	6923      	ldr	r3, [r4, #16]
 800c384:	f04f 30ff 	mov.w	r0, #4294967295
 800c388:	6023      	str	r3, [r4, #0]
 800c38a:	2300      	movs	r3, #0
 800c38c:	6063      	str	r3, [r4, #4]
 800c38e:	89a3      	ldrh	r3, [r4, #12]
 800c390:	f043 0320 	orr.w	r3, r3, #32
 800c394:	81a3      	strh	r3, [r4, #12]
 800c396:	e7f3      	b.n	800c380 <__ssrefill_r+0x22>

0800c398 <__ssvfiscanf_r>:
 800c398:	e92d 47f0 	stmdb	sp!, {r4, r5, r6, r7, r8, r9, sl, lr}
 800c39c:	460c      	mov	r4, r1
 800c39e:	2100      	movs	r1, #0
 800c3a0:	4606      	mov	r6, r0
 800c3a2:	f5ad 7d22 	sub.w	sp, sp, #648	; 0x288
 800c3a6:	e9cd 1144 	strd	r1, r1, [sp, #272]	; 0x110
 800c3aa:	49a7      	ldr	r1, [pc, #668]	; (800c648 <__ssvfiscanf_r+0x2b0>)
 800c3ac:	f10d 0804 	add.w	r8, sp, #4
 800c3b0:	91a0      	str	r1, [sp, #640]	; 0x280
 800c3b2:	49a6      	ldr	r1, [pc, #664]	; (800c64c <__ssvfiscanf_r+0x2b4>)
 800c3b4:	4fa6      	ldr	r7, [pc, #664]	; (800c650 <__ssvfiscanf_r+0x2b8>)
 800c3b6:	f8df 929c 	ldr.w	r9, [pc, #668]	; 800c654 <__ssvfiscanf_r+0x2bc>
 800c3ba:	f8cd 8118 	str.w	r8, [sp, #280]	; 0x118
 800c3be:	91a1      	str	r1, [sp, #644]	; 0x284
 800c3c0:	9300      	str	r3, [sp, #0]
 800c3c2:	7813      	ldrb	r3, [r2, #0]
 800c3c4:	2b00      	cmp	r3, #0
 800c3c6:	f000 815c 	beq.w	800c682 <__ssvfiscanf_r+0x2ea>
 800c3ca:	5dd9      	ldrb	r1, [r3, r7]
 800c3cc:	1c55      	adds	r5, r2, #1
 800c3ce:	f011 0108 	ands.w	r1, r1, #8
 800c3d2:	d019      	beq.n	800c408 <__ssvfiscanf_r+0x70>
 800c3d4:	6863      	ldr	r3, [r4, #4]
 800c3d6:	2b00      	cmp	r3, #0
 800c3d8:	dd0f      	ble.n	800c3fa <__ssvfiscanf_r+0x62>
 800c3da:	6823      	ldr	r3, [r4, #0]
 800c3dc:	781a      	ldrb	r2, [r3, #0]
 800c3de:	5cba      	ldrb	r2, [r7, r2]
 800c3e0:	0712      	lsls	r2, r2, #28
 800c3e2:	d401      	bmi.n	800c3e8 <__ssvfiscanf_r+0x50>
 800c3e4:	462a      	mov	r2, r5
 800c3e6:	e7ec      	b.n	800c3c2 <__ssvfiscanf_r+0x2a>
 800c3e8:	9a45      	ldr	r2, [sp, #276]	; 0x114
 800c3ea:	3301      	adds	r3, #1
 800c3ec:	3201      	adds	r2, #1
 800c3ee:	9245      	str	r2, [sp, #276]	; 0x114
 800c3f0:	6862      	ldr	r2, [r4, #4]
 800c3f2:	6023      	str	r3, [r4, #0]
 800c3f4:	3a01      	subs	r2, #1
 800c3f6:	6062      	str	r2, [r4, #4]
 800c3f8:	e7ec      	b.n	800c3d4 <__ssvfiscanf_r+0x3c>
 800c3fa:	4621      	mov	r1, r4
 800c3fc:	4630      	mov	r0, r6
 800c3fe:	9ba1      	ldr	r3, [sp, #644]	; 0x284
 800c400:	4798      	blx	r3
 800c402:	2800      	cmp	r0, #0
 800c404:	d0e9      	beq.n	800c3da <__ssvfiscanf_r+0x42>
 800c406:	e7ed      	b.n	800c3e4 <__ssvfiscanf_r+0x4c>
 800c408:	2b25      	cmp	r3, #37	; 0x25
 800c40a:	d012      	beq.n	800c432 <__ssvfiscanf_r+0x9a>
 800c40c:	469a      	mov	sl, r3
 800c40e:	6863      	ldr	r3, [r4, #4]
 800c410:	2b00      	cmp	r3, #0
 800c412:	f340 8094 	ble.w	800c53e <__ssvfiscanf_r+0x1a6>
 800c416:	6822      	ldr	r2, [r4, #0]
 800c418:	7813      	ldrb	r3, [r2, #0]
 800c41a:	4553      	cmp	r3, sl
 800c41c:	f040 8131 	bne.w	800c682 <__ssvfiscanf_r+0x2ea>
 800c420:	6863      	ldr	r3, [r4, #4]
 800c422:	3201      	adds	r2, #1
 800c424:	3b01      	subs	r3, #1
 800c426:	6063      	str	r3, [r4, #4]
 800c428:	9b45      	ldr	r3, [sp, #276]	; 0x114
 800c42a:	6022      	str	r2, [r4, #0]
 800c42c:	3301      	adds	r3, #1
 800c42e:	9345      	str	r3, [sp, #276]	; 0x114
 800c430:	e7d8      	b.n	800c3e4 <__ssvfiscanf_r+0x4c>
 800c432:	9141      	str	r1, [sp, #260]	; 0x104
 800c434:	9143      	str	r1, [sp, #268]	; 0x10c
 800c436:	7853      	ldrb	r3, [r2, #1]
 800c438:	2b2a      	cmp	r3, #42	; 0x2a
 800c43a:	bf04      	itt	eq
 800c43c:	2310      	moveq	r3, #16
 800c43e:	1c95      	addeq	r5, r2, #2
 800c440:	f04f 020a 	mov.w	r2, #10
 800c444:	bf08      	it	eq
 800c446:	9341      	streq	r3, [sp, #260]	; 0x104
 800c448:	46aa      	mov	sl, r5
 800c44a:	f81a 1b01 	ldrb.w	r1, [sl], #1
 800c44e:	f1a1 0330 	sub.w	r3, r1, #48	; 0x30
 800c452:	2b09      	cmp	r3, #9
 800c454:	d91d      	bls.n	800c492 <__ssvfiscanf_r+0xfa>
 800c456:	2203      	movs	r2, #3
 800c458:	487e      	ldr	r0, [pc, #504]	; (800c654 <__ssvfiscanf_r+0x2bc>)
 800c45a:	f000 fef3 	bl	800d244 <memchr>
 800c45e:	b140      	cbz	r0, 800c472 <__ssvfiscanf_r+0xda>
 800c460:	2301      	movs	r3, #1
 800c462:	4655      	mov	r5, sl
 800c464:	eba0 0009 	sub.w	r0, r0, r9
 800c468:	fa03 f000 	lsl.w	r0, r3, r0
 800c46c:	9b41      	ldr	r3, [sp, #260]	; 0x104
 800c46e:	4318      	orrs	r0, r3
 800c470:	9041      	str	r0, [sp, #260]	; 0x104
 800c472:	f815 3b01 	ldrb.w	r3, [r5], #1
 800c476:	2b78      	cmp	r3, #120	; 0x78
 800c478:	d806      	bhi.n	800c488 <__ssvfiscanf_r+0xf0>
 800c47a:	2b57      	cmp	r3, #87	; 0x57
 800c47c:	d810      	bhi.n	800c4a0 <__ssvfiscanf_r+0x108>
 800c47e:	2b25      	cmp	r3, #37	; 0x25
 800c480:	d0c4      	beq.n	800c40c <__ssvfiscanf_r+0x74>
 800c482:	d857      	bhi.n	800c534 <__ssvfiscanf_r+0x19c>
 800c484:	2b00      	cmp	r3, #0
 800c486:	d065      	beq.n	800c554 <__ssvfiscanf_r+0x1bc>
 800c488:	2303      	movs	r3, #3
 800c48a:	9347      	str	r3, [sp, #284]	; 0x11c
 800c48c:	230a      	movs	r3, #10
 800c48e:	9342      	str	r3, [sp, #264]	; 0x108
 800c490:	e072      	b.n	800c578 <__ssvfiscanf_r+0x1e0>
 800c492:	9b43      	ldr	r3, [sp, #268]	; 0x10c
 800c494:	4655      	mov	r5, sl
 800c496:	fb02 1103 	mla	r1, r2, r3, r1
 800c49a:	3930      	subs	r1, #48	; 0x30
 800c49c:	9143      	str	r1, [sp, #268]	; 0x10c
 800c49e:	e7d3      	b.n	800c448 <__ssvfiscanf_r+0xb0>
 800c4a0:	f1a3 0258 	sub.w	r2, r3, #88	; 0x58
 800c4a4:	2a20      	cmp	r2, #32
 800c4a6:	d8ef      	bhi.n	800c488 <__ssvfiscanf_r+0xf0>
 800c4a8:	a101      	add	r1, pc, #4	; (adr r1, 800c4b0 <__ssvfiscanf_r+0x118>)
 800c4aa:	f851 f022 	ldr.w	pc, [r1, r2, lsl #2]
 800c4ae:	bf00      	nop
 800c4b0:	0800c563 	.word	0x0800c563
 800c4b4:	0800c489 	.word	0x0800c489
 800c4b8:	0800c489 	.word	0x0800c489
 800c4bc:	0800c5c1 	.word	0x0800c5c1
 800c4c0:	0800c489 	.word	0x0800c489
 800c4c4:	0800c489 	.word	0x0800c489
 800c4c8:	0800c489 	.word	0x0800c489
 800c4cc:	0800c489 	.word	0x0800c489
 800c4d0:	0800c489 	.word	0x0800c489
 800c4d4:	0800c489 	.word	0x0800c489
 800c4d8:	0800c489 	.word	0x0800c489
 800c4dc:	0800c5d7 	.word	0x0800c5d7
 800c4e0:	0800c5ad 	.word	0x0800c5ad
 800c4e4:	0800c53b 	.word	0x0800c53b
 800c4e8:	0800c53b 	.word	0x0800c53b
 800c4ec:	0800c53b 	.word	0x0800c53b
 800c4f0:	0800c489 	.word	0x0800c489
 800c4f4:	0800c5b1 	.word	0x0800c5b1
 800c4f8:	0800c489 	.word	0x0800c489
 800c4fc:	0800c489 	.word	0x0800c489
 800c500:	0800c489 	.word	0x0800c489
 800c504:	0800c489 	.word	0x0800c489
 800c508:	0800c5e7 	.word	0x0800c5e7
 800c50c:	0800c5b9 	.word	0x0800c5b9
 800c510:	0800c55b 	.word	0x0800c55b
 800c514:	0800c489 	.word	0x0800c489
 800c518:	0800c489 	.word	0x0800c489
 800c51c:	0800c5e3 	.word	0x0800c5e3
 800c520:	0800c489 	.word	0x0800c489
 800c524:	0800c5ad 	.word	0x0800c5ad
 800c528:	0800c489 	.word	0x0800c489
 800c52c:	0800c489 	.word	0x0800c489
 800c530:	0800c563 	.word	0x0800c563
 800c534:	3b45      	subs	r3, #69	; 0x45
 800c536:	2b02      	cmp	r3, #2
 800c538:	d8a6      	bhi.n	800c488 <__ssvfiscanf_r+0xf0>
 800c53a:	2305      	movs	r3, #5
 800c53c:	e01b      	b.n	800c576 <__ssvfiscanf_r+0x1de>
 800c53e:	4621      	mov	r1, r4
 800c540:	4630      	mov	r0, r6
 800c542:	9ba1      	ldr	r3, [sp, #644]	; 0x284
 800c544:	4798      	blx	r3
 800c546:	2800      	cmp	r0, #0
 800c548:	f43f af65 	beq.w	800c416 <__ssvfiscanf_r+0x7e>
 800c54c:	9844      	ldr	r0, [sp, #272]	; 0x110
 800c54e:	2800      	cmp	r0, #0
 800c550:	f040 808d 	bne.w	800c66e <__ssvfiscanf_r+0x2d6>
 800c554:	f04f 30ff 	mov.w	r0, #4294967295
 800c558:	e08f      	b.n	800c67a <__ssvfiscanf_r+0x2e2>
 800c55a:	9a41      	ldr	r2, [sp, #260]	; 0x104
 800c55c:	f042 0220 	orr.w	r2, r2, #32
 800c560:	9241      	str	r2, [sp, #260]	; 0x104
 800c562:	9a41      	ldr	r2, [sp, #260]	; 0x104
 800c564:	f442 7200 	orr.w	r2, r2, #512	; 0x200
 800c568:	9241      	str	r2, [sp, #260]	; 0x104
 800c56a:	2210      	movs	r2, #16
 800c56c:	2b6f      	cmp	r3, #111	; 0x6f
 800c56e:	bf34      	ite	cc
 800c570:	2303      	movcc	r3, #3
 800c572:	2304      	movcs	r3, #4
 800c574:	9242      	str	r2, [sp, #264]	; 0x108
 800c576:	9347      	str	r3, [sp, #284]	; 0x11c
 800c578:	6863      	ldr	r3, [r4, #4]
 800c57a:	2b00      	cmp	r3, #0
 800c57c:	dd42      	ble.n	800c604 <__ssvfiscanf_r+0x26c>
 800c57e:	9b41      	ldr	r3, [sp, #260]	; 0x104
 800c580:	0659      	lsls	r1, r3, #25
 800c582:	d404      	bmi.n	800c58e <__ssvfiscanf_r+0x1f6>
 800c584:	6823      	ldr	r3, [r4, #0]
 800c586:	781a      	ldrb	r2, [r3, #0]
 800c588:	5cba      	ldrb	r2, [r7, r2]
 800c58a:	0712      	lsls	r2, r2, #28
 800c58c:	d441      	bmi.n	800c612 <__ssvfiscanf_r+0x27a>
 800c58e:	9b47      	ldr	r3, [sp, #284]	; 0x11c
 800c590:	2b02      	cmp	r3, #2
 800c592:	dc50      	bgt.n	800c636 <__ssvfiscanf_r+0x29e>
 800c594:	466b      	mov	r3, sp
 800c596:	4622      	mov	r2, r4
 800c598:	4630      	mov	r0, r6
 800c59a:	a941      	add	r1, sp, #260	; 0x104
 800c59c:	f000 fb64 	bl	800cc68 <_scanf_chars>
 800c5a0:	2801      	cmp	r0, #1
 800c5a2:	d06e      	beq.n	800c682 <__ssvfiscanf_r+0x2ea>
 800c5a4:	2802      	cmp	r0, #2
 800c5a6:	f47f af1d 	bne.w	800c3e4 <__ssvfiscanf_r+0x4c>
 800c5aa:	e7cf      	b.n	800c54c <__ssvfiscanf_r+0x1b4>
 800c5ac:	220a      	movs	r2, #10
 800c5ae:	e7dd      	b.n	800c56c <__ssvfiscanf_r+0x1d4>
 800c5b0:	2300      	movs	r3, #0
 800c5b2:	9342      	str	r3, [sp, #264]	; 0x108
 800c5b4:	2303      	movs	r3, #3
 800c5b6:	e7de      	b.n	800c576 <__ssvfiscanf_r+0x1de>
 800c5b8:	2308      	movs	r3, #8
 800c5ba:	9342      	str	r3, [sp, #264]	; 0x108
 800c5bc:	2304      	movs	r3, #4
 800c5be:	e7da      	b.n	800c576 <__ssvfiscanf_r+0x1de>
 800c5c0:	4629      	mov	r1, r5
 800c5c2:	4640      	mov	r0, r8
 800c5c4:	f000 fd38 	bl	800d038 <__sccl>
 800c5c8:	9b41      	ldr	r3, [sp, #260]	; 0x104
 800c5ca:	4605      	mov	r5, r0
 800c5cc:	f043 0340 	orr.w	r3, r3, #64	; 0x40
 800c5d0:	9341      	str	r3, [sp, #260]	; 0x104
 800c5d2:	2301      	movs	r3, #1
 800c5d4:	e7cf      	b.n	800c576 <__ssvfiscanf_r+0x1de>
 800c5d6:	9b41      	ldr	r3, [sp, #260]	; 0x104
 800c5d8:	f043 0340 	orr.w	r3, r3, #64	; 0x40
 800c5dc:	9341      	str	r3, [sp, #260]	; 0x104
 800c5de:	2300      	movs	r3, #0
 800c5e0:	e7c9      	b.n	800c576 <__ssvfiscanf_r+0x1de>
 800c5e2:	2302      	movs	r3, #2
 800c5e4:	e7c7      	b.n	800c576 <__ssvfiscanf_r+0x1de>
 800c5e6:	9841      	ldr	r0, [sp, #260]	; 0x104
 800c5e8:	06c3      	lsls	r3, r0, #27
 800c5ea:	f53f aefb 	bmi.w	800c3e4 <__ssvfiscanf_r+0x4c>
 800c5ee:	9b00      	ldr	r3, [sp, #0]
 800c5f0:	9a45      	ldr	r2, [sp, #276]	; 0x114
 800c5f2:	1d19      	adds	r1, r3, #4
 800c5f4:	9100      	str	r1, [sp, #0]
 800c5f6:	681b      	ldr	r3, [r3, #0]
 800c5f8:	f010 0f01 	tst.w	r0, #1
 800c5fc:	bf14      	ite	ne
 800c5fe:	801a      	strhne	r2, [r3, #0]
 800c600:	601a      	streq	r2, [r3, #0]
 800c602:	e6ef      	b.n	800c3e4 <__ssvfiscanf_r+0x4c>
 800c604:	4621      	mov	r1, r4
 800c606:	4630      	mov	r0, r6
 800c608:	9ba1      	ldr	r3, [sp, #644]	; 0x284
 800c60a:	4798      	blx	r3
 800c60c:	2800      	cmp	r0, #0
 800c60e:	d0b6      	beq.n	800c57e <__ssvfiscanf_r+0x1e6>
 800c610:	e79c      	b.n	800c54c <__ssvfiscanf_r+0x1b4>
 800c612:	9a45      	ldr	r2, [sp, #276]	; 0x114
 800c614:	3201      	adds	r2, #1
 800c616:	9245      	str	r2, [sp, #276]	; 0x114
 800c618:	6862      	ldr	r2, [r4, #4]
 800c61a:	3a01      	subs	r2, #1
 800c61c:	2a00      	cmp	r2, #0
 800c61e:	6062      	str	r2, [r4, #4]
 800c620:	dd02      	ble.n	800c628 <__ssvfiscanf_r+0x290>
 800c622:	3301      	adds	r3, #1
 800c624:	6023      	str	r3, [r4, #0]
 800c626:	e7ad      	b.n	800c584 <__ssvfiscanf_r+0x1ec>
 800c628:	4621      	mov	r1, r4
 800c62a:	4630      	mov	r0, r6
 800c62c:	9ba1      	ldr	r3, [sp, #644]	; 0x284
 800c62e:	4798      	blx	r3
 800c630:	2800      	cmp	r0, #0
 800c632:	d0a7      	beq.n	800c584 <__ssvfiscanf_r+0x1ec>
 800c634:	e78a      	b.n	800c54c <__ssvfiscanf_r+0x1b4>
 800c636:	2b04      	cmp	r3, #4
 800c638:	dc0e      	bgt.n	800c658 <__ssvfiscanf_r+0x2c0>
 800c63a:	466b      	mov	r3, sp
 800c63c:	4622      	mov	r2, r4
 800c63e:	4630      	mov	r0, r6
 800c640:	a941      	add	r1, sp, #260	; 0x104
 800c642:	f000 fb6b 	bl	800cd1c <_scanf_i>
 800c646:	e7ab      	b.n	800c5a0 <__ssvfiscanf_r+0x208>
 800c648:	0800c2e5 	.word	0x0800c2e5
 800c64c:	0800c35f 	.word	0x0800c35f
 800c650:	0800e189 	.word	0x0800e189
 800c654:	0800e2f2 	.word	0x0800e2f2
 800c658:	4b0b      	ldr	r3, [pc, #44]	; (800c688 <__ssvfiscanf_r+0x2f0>)
 800c65a:	2b00      	cmp	r3, #0
 800c65c:	f43f aec2 	beq.w	800c3e4 <__ssvfiscanf_r+0x4c>
 800c660:	466b      	mov	r3, sp
 800c662:	4622      	mov	r2, r4
 800c664:	4630      	mov	r0, r6
 800c666:	a941      	add	r1, sp, #260	; 0x104
 800c668:	f3af 8000 	nop.w
 800c66c:	e798      	b.n	800c5a0 <__ssvfiscanf_r+0x208>
 800c66e:	89a3      	ldrh	r3, [r4, #12]
 800c670:	f013 0f40 	tst.w	r3, #64	; 0x40
 800c674:	bf18      	it	ne
 800c676:	f04f 30ff 	movne.w	r0, #4294967295
 800c67a:	f50d 7d22 	add.w	sp, sp, #648	; 0x288
 800c67e:	e8bd 87f0 	ldmia.w	sp!, {r4, r5, r6, r7, r8, r9, sl, pc}
 800c682:	9844      	ldr	r0, [sp, #272]	; 0x110
 800c684:	e7f9      	b.n	800c67a <__ssvfiscanf_r+0x2e2>
 800c686:	bf00      	nop
 800c688:	00000000 	.word	0x00000000

0800c68c <__sfputc_r>:
 800c68c:	6893      	ldr	r3, [r2, #8]
 800c68e:	b410      	push	{r4}
 800c690:	3b01      	subs	r3, #1
 800c692:	2b00      	cmp	r3, #0
 800c694:	6093      	str	r3, [r2, #8]
 800c696:	da07      	bge.n	800c6a8 <__sfputc_r+0x1c>
 800c698:	6994      	ldr	r4, [r2, #24]
 800c69a:	42a3      	cmp	r3, r4
 800c69c:	db01      	blt.n	800c6a2 <__sfputc_r+0x16>
 800c69e:	290a      	cmp	r1, #10
 800c6a0:	d102      	bne.n	800c6a8 <__sfputc_r+0x1c>
 800c6a2:	bc10      	pop	{r4}
 800c6a4:	f7ff b85e 	b.w	800b764 <__swbuf_r>
 800c6a8:	6813      	ldr	r3, [r2, #0]
 800c6aa:	1c58      	adds	r0, r3, #1
 800c6ac:	6010      	str	r0, [r2, #0]
 800c6ae:	7019      	strb	r1, [r3, #0]
 800c6b0:	4608      	mov	r0, r1
 800c6b2:	bc10      	pop	{r4}
 800c6b4:	4770      	bx	lr

0800c6b6 <__sfputs_r>:
 800c6b6:	b5f8      	push	{r3, r4, r5, r6, r7, lr}
 800c6b8:	4606      	mov	r6, r0
 800c6ba:	460f      	mov	r7, r1
 800c6bc:	4614      	mov	r4, r2
 800c6be:	18d5      	adds	r5, r2, r3
 800c6c0:	42ac      	cmp	r4, r5
 800c6c2:	d101      	bne.n	800c6c8 <__sfputs_r+0x12>
 800c6c4:	2000      	movs	r0, #0
 800c6c6:	e007      	b.n	800c6d8 <__sfputs_r+0x22>
 800c6c8:	463a      	mov	r2, r7
 800c6ca:	4630      	mov	r0, r6
 800c6cc:	f814 1b01 	ldrb.w	r1, [r4], #1
 800c6d0:	f7ff ffdc 	bl	800c68c <__sfputc_r>
 800c6d4:	1c43      	adds	r3, r0, #1
 800c6d6:	d1f3      	bne.n	800c6c0 <__sfputs_r+0xa>
 800c6d8:	bdf8      	pop	{r3, r4, r5, r6, r7, pc}
	...

0800c6dc <_vfiprintf_r>:
 800c6dc:	e92d 4ff0 	stmdb	sp!, {r4, r5, r6, r7, r8, r9, sl, fp, lr}
 800c6e0:	460d      	mov	r5, r1
 800c6e2:	4614      	mov	r4, r2
 800c6e4:	4698      	mov	r8, r3
 800c6e6:	4606      	mov	r6, r0
 800c6e8:	b09d      	sub	sp, #116	; 0x74
 800c6ea:	b118      	cbz	r0, 800c6f4 <_vfiprintf_r+0x18>
 800c6ec:	6983      	ldr	r3, [r0, #24]
 800c6ee:	b90b      	cbnz	r3, 800c6f4 <_vfiprintf_r+0x18>
 800c6f0:	f7ff fa42 	bl	800bb78 <__sinit>
 800c6f4:	4b89      	ldr	r3, [pc, #548]	; (800c91c <_vfiprintf_r+0x240>)
 800c6f6:	429d      	cmp	r5, r3
 800c6f8:	d11b      	bne.n	800c732 <_vfiprintf_r+0x56>
 800c6fa:	6875      	ldr	r5, [r6, #4]
 800c6fc:	6e6b      	ldr	r3, [r5, #100]	; 0x64
 800c6fe:	07d9      	lsls	r1, r3, #31
 800c700:	d405      	bmi.n	800c70e <_vfiprintf_r+0x32>
 800c702:	89ab      	ldrh	r3, [r5, #12]
 800c704:	059a      	lsls	r2, r3, #22
 800c706:	d402      	bmi.n	800c70e <_vfiprintf_r+0x32>
 800c708:	6da8      	ldr	r0, [r5, #88]	; 0x58
 800c70a:	f7ff fb30 	bl	800bd6e <__retarget_lock_acquire_recursive>
 800c70e:	89ab      	ldrh	r3, [r5, #12]
 800c710:	071b      	lsls	r3, r3, #28
 800c712:	d501      	bpl.n	800c718 <_vfiprintf_r+0x3c>
 800c714:	692b      	ldr	r3, [r5, #16]
 800c716:	b9eb      	cbnz	r3, 800c754 <_vfiprintf_r+0x78>
 800c718:	4629      	mov	r1, r5
 800c71a:	4630      	mov	r0, r6
 800c71c:	f7ff f886 	bl	800b82c <__swsetup_r>
 800c720:	b1c0      	cbz	r0, 800c754 <_vfiprintf_r+0x78>
 800c722:	6e6b      	ldr	r3, [r5, #100]	; 0x64
 800c724:	07dc      	lsls	r4, r3, #31
 800c726:	d50e      	bpl.n	800c746 <_vfiprintf_r+0x6a>
 800c728:	f04f 30ff 	mov.w	r0, #4294967295
 800c72c:	b01d      	add	sp, #116	; 0x74
 800c72e:	e8bd 8ff0 	ldmia.w	sp!, {r4, r5, r6, r7, r8, r9, sl, fp, pc}
 800c732:	4b7b      	ldr	r3, [pc, #492]	; (800c920 <_vfiprintf_r+0x244>)
 800c734:	429d      	cmp	r5, r3
 800c736:	d101      	bne.n	800c73c <_vfiprintf_r+0x60>
 800c738:	68b5      	ldr	r5, [r6, #8]
 800c73a:	e7df      	b.n	800c6fc <_vfiprintf_r+0x20>
 800c73c:	4b79      	ldr	r3, [pc, #484]	; (800c924 <_vfiprintf_r+0x248>)
 800c73e:	429d      	cmp	r5, r3
 800c740:	bf08      	it	eq
 800c742:	68f5      	ldreq	r5, [r6, #12]
 800c744:	e7da      	b.n	800c6fc <_vfiprintf_r+0x20>
 800c746:	89ab      	ldrh	r3, [r5, #12]
 800c748:	0598      	lsls	r0, r3, #22
 800c74a:	d4ed      	bmi.n	800c728 <_vfiprintf_r+0x4c>
 800c74c:	6da8      	ldr	r0, [r5, #88]	; 0x58
 800c74e:	f7ff fb0f 	bl	800bd70 <__retarget_lock_release_recursive>
 800c752:	e7e9      	b.n	800c728 <_vfiprintf_r+0x4c>
 800c754:	2300      	movs	r3, #0
 800c756:	9309      	str	r3, [sp, #36]	; 0x24
 800c758:	2320      	movs	r3, #32
 800c75a:	f88d 3029 	strb.w	r3, [sp, #41]	; 0x29
 800c75e:	2330      	movs	r3, #48	; 0x30
 800c760:	f04f 0901 	mov.w	r9, #1
 800c764:	f8cd 800c 	str.w	r8, [sp, #12]
 800c768:	f8df 81bc 	ldr.w	r8, [pc, #444]	; 800c928 <_vfiprintf_r+0x24c>
 800c76c:	f88d 302a 	strb.w	r3, [sp, #42]	; 0x2a
 800c770:	4623      	mov	r3, r4
 800c772:	469a      	mov	sl, r3
 800c774:	f813 2b01 	ldrb.w	r2, [r3], #1
 800c778:	b10a      	cbz	r2, 800c77e <_vfiprintf_r+0xa2>
 800c77a:	2a25      	cmp	r2, #37	; 0x25
 800c77c:	d1f9      	bne.n	800c772 <_vfiprintf_r+0x96>
 800c77e:	ebba 0b04 	subs.w	fp, sl, r4
 800c782:	d00b      	beq.n	800c79c <_vfiprintf_r+0xc0>
 800c784:	465b      	mov	r3, fp
 800c786:	4622      	mov	r2, r4
 800c788:	4629      	mov	r1, r5
 800c78a:	4630      	mov	r0, r6
 800c78c:	f7ff ff93 	bl	800c6b6 <__sfputs_r>
 800c790:	3001      	adds	r0, #1
 800c792:	f000 80aa 	beq.w	800c8ea <_vfiprintf_r+0x20e>
 800c796:	9a09      	ldr	r2, [sp, #36]	; 0x24
 800c798:	445a      	add	r2, fp
 800c79a:	9209      	str	r2, [sp, #36]	; 0x24
 800c79c:	f89a 3000 	ldrb.w	r3, [sl]
 800c7a0:	2b00      	cmp	r3, #0
 800c7a2:	f000 80a2 	beq.w	800c8ea <_vfiprintf_r+0x20e>
 800c7a6:	2300      	movs	r3, #0
 800c7a8:	f04f 32ff 	mov.w	r2, #4294967295
 800c7ac:	e9cd 2305 	strd	r2, r3, [sp, #20]
 800c7b0:	f10a 0a01 	add.w	sl, sl, #1
 800c7b4:	9304      	str	r3, [sp, #16]
 800c7b6:	9307      	str	r3, [sp, #28]
 800c7b8:	f88d 3053 	strb.w	r3, [sp, #83]	; 0x53
 800c7bc:	931a      	str	r3, [sp, #104]	; 0x68
 800c7be:	4654      	mov	r4, sl
 800c7c0:	2205      	movs	r2, #5
 800c7c2:	f814 1b01 	ldrb.w	r1, [r4], #1
 800c7c6:	4858      	ldr	r0, [pc, #352]	; (800c928 <_vfiprintf_r+0x24c>)
 800c7c8:	f000 fd3c 	bl	800d244 <memchr>
 800c7cc:	9a04      	ldr	r2, [sp, #16]
 800c7ce:	b9d8      	cbnz	r0, 800c808 <_vfiprintf_r+0x12c>
 800c7d0:	06d1      	lsls	r1, r2, #27
 800c7d2:	bf44      	itt	mi
 800c7d4:	2320      	movmi	r3, #32
 800c7d6:	f88d 3053 	strbmi.w	r3, [sp, #83]	; 0x53
 800c7da:	0713      	lsls	r3, r2, #28
 800c7dc:	bf44      	itt	mi
 800c7de:	232b      	movmi	r3, #43	; 0x2b
 800c7e0:	f88d 3053 	strbmi.w	r3, [sp, #83]	; 0x53
 800c7e4:	f89a 3000 	ldrb.w	r3, [sl]
 800c7e8:	2b2a      	cmp	r3, #42	; 0x2a
 800c7ea:	d015      	beq.n	800c818 <_vfiprintf_r+0x13c>
 800c7ec:	4654      	mov	r4, sl
 800c7ee:	2000      	movs	r0, #0
 800c7f0:	f04f 0c0a 	mov.w	ip, #10
 800c7f4:	9a07      	ldr	r2, [sp, #28]
 800c7f6:	4621      	mov	r1, r4
 800c7f8:	f811 3b01 	ldrb.w	r3, [r1], #1
 800c7fc:	3b30      	subs	r3, #48	; 0x30
 800c7fe:	2b09      	cmp	r3, #9
 800c800:	d94e      	bls.n	800c8a0 <_vfiprintf_r+0x1c4>
 800c802:	b1b0      	cbz	r0, 800c832 <_vfiprintf_r+0x156>
 800c804:	9207      	str	r2, [sp, #28]
 800c806:	e014      	b.n	800c832 <_vfiprintf_r+0x156>
 800c808:	eba0 0308 	sub.w	r3, r0, r8
 800c80c:	fa09 f303 	lsl.w	r3, r9, r3
 800c810:	4313      	orrs	r3, r2
 800c812:	46a2      	mov	sl, r4
 800c814:	9304      	str	r3, [sp, #16]
 800c816:	e7d2      	b.n	800c7be <_vfiprintf_r+0xe2>
 800c818:	9b03      	ldr	r3, [sp, #12]
 800c81a:	1d19      	adds	r1, r3, #4
 800c81c:	681b      	ldr	r3, [r3, #0]
 800c81e:	9103      	str	r1, [sp, #12]
 800c820:	2b00      	cmp	r3, #0
 800c822:	bfbb      	ittet	lt
 800c824:	425b      	neglt	r3, r3
 800c826:	f042 0202 	orrlt.w	r2, r2, #2
 800c82a:	9307      	strge	r3, [sp, #28]
 800c82c:	9307      	strlt	r3, [sp, #28]
 800c82e:	bfb8      	it	lt
 800c830:	9204      	strlt	r2, [sp, #16]
 800c832:	7823      	ldrb	r3, [r4, #0]
 800c834:	2b2e      	cmp	r3, #46	; 0x2e
 800c836:	d10c      	bne.n	800c852 <_vfiprintf_r+0x176>
 800c838:	7863      	ldrb	r3, [r4, #1]
 800c83a:	2b2a      	cmp	r3, #42	; 0x2a
 800c83c:	d135      	bne.n	800c8aa <_vfiprintf_r+0x1ce>
 800c83e:	9b03      	ldr	r3, [sp, #12]
 800c840:	3402      	adds	r4, #2
 800c842:	1d1a      	adds	r2, r3, #4
 800c844:	681b      	ldr	r3, [r3, #0]
 800c846:	9203      	str	r2, [sp, #12]
 800c848:	2b00      	cmp	r3, #0
 800c84a:	bfb8      	it	lt
 800c84c:	f04f 33ff 	movlt.w	r3, #4294967295
 800c850:	9305      	str	r3, [sp, #20]
 800c852:	f8df a0d8 	ldr.w	sl, [pc, #216]	; 800c92c <_vfiprintf_r+0x250>
 800c856:	2203      	movs	r2, #3
 800c858:	4650      	mov	r0, sl
 800c85a:	7821      	ldrb	r1, [r4, #0]
 800c85c:	f000 fcf2 	bl	800d244 <memchr>
 800c860:	b140      	cbz	r0, 800c874 <_vfiprintf_r+0x198>
 800c862:	2340      	movs	r3, #64	; 0x40
 800c864:	eba0 000a 	sub.w	r0, r0, sl
 800c868:	fa03 f000 	lsl.w	r0, r3, r0
 800c86c:	9b04      	ldr	r3, [sp, #16]
 800c86e:	3401      	adds	r4, #1
 800c870:	4303      	orrs	r3, r0
 800c872:	9304      	str	r3, [sp, #16]
 800c874:	f814 1b01 	ldrb.w	r1, [r4], #1
 800c878:	2206      	movs	r2, #6
 800c87a:	482d      	ldr	r0, [pc, #180]	; (800c930 <_vfiprintf_r+0x254>)
 800c87c:	f88d 1028 	strb.w	r1, [sp, #40]	; 0x28
 800c880:	f000 fce0 	bl	800d244 <memchr>
 800c884:	2800      	cmp	r0, #0
 800c886:	d03f      	beq.n	800c908 <_vfiprintf_r+0x22c>
 800c888:	4b2a      	ldr	r3, [pc, #168]	; (800c934 <_vfiprintf_r+0x258>)
 800c88a:	bb1b      	cbnz	r3, 800c8d4 <_vfiprintf_r+0x1f8>
 800c88c:	9b03      	ldr	r3, [sp, #12]
 800c88e:	3307      	adds	r3, #7
 800c890:	f023 0307 	bic.w	r3, r3, #7
 800c894:	3308      	adds	r3, #8
 800c896:	9303      	str	r3, [sp, #12]
 800c898:	9b09      	ldr	r3, [sp, #36]	; 0x24
 800c89a:	443b      	add	r3, r7
 800c89c:	9309      	str	r3, [sp, #36]	; 0x24
 800c89e:	e767      	b.n	800c770 <_vfiprintf_r+0x94>
 800c8a0:	460c      	mov	r4, r1
 800c8a2:	2001      	movs	r0, #1
 800c8a4:	fb0c 3202 	mla	r2, ip, r2, r3
 800c8a8:	e7a5      	b.n	800c7f6 <_vfiprintf_r+0x11a>
 800c8aa:	2300      	movs	r3, #0
 800c8ac:	f04f 0c0a 	mov.w	ip, #10
 800c8b0:	4619      	mov	r1, r3
 800c8b2:	3401      	adds	r4, #1
 800c8b4:	9305      	str	r3, [sp, #20]
 800c8b6:	4620      	mov	r0, r4
 800c8b8:	f810 2b01 	ldrb.w	r2, [r0], #1
 800c8bc:	3a30      	subs	r2, #48	; 0x30
 800c8be:	2a09      	cmp	r2, #9
 800c8c0:	d903      	bls.n	800c8ca <_vfiprintf_r+0x1ee>
 800c8c2:	2b00      	cmp	r3, #0
 800c8c4:	d0c5      	beq.n	800c852 <_vfiprintf_r+0x176>
 800c8c6:	9105      	str	r1, [sp, #20]
 800c8c8:	e7c3      	b.n	800c852 <_vfiprintf_r+0x176>
 800c8ca:	4604      	mov	r4, r0
 800c8cc:	2301      	movs	r3, #1
 800c8ce:	fb0c 2101 	mla	r1, ip, r1, r2
 800c8d2:	e7f0      	b.n	800c8b6 <_vfiprintf_r+0x1da>
 800c8d4:	ab03      	add	r3, sp, #12
 800c8d6:	9300      	str	r3, [sp, #0]
 800c8d8:	462a      	mov	r2, r5
 800c8da:	4630      	mov	r0, r6
 800c8dc:	4b16      	ldr	r3, [pc, #88]	; (800c938 <_vfiprintf_r+0x25c>)
 800c8de:	a904      	add	r1, sp, #16
 800c8e0:	f3af 8000 	nop.w
 800c8e4:	4607      	mov	r7, r0
 800c8e6:	1c78      	adds	r0, r7, #1
 800c8e8:	d1d6      	bne.n	800c898 <_vfiprintf_r+0x1bc>
 800c8ea:	6e6b      	ldr	r3, [r5, #100]	; 0x64
 800c8ec:	07d9      	lsls	r1, r3, #31
 800c8ee:	d405      	bmi.n	800c8fc <_vfiprintf_r+0x220>
 800c8f0:	89ab      	ldrh	r3, [r5, #12]
 800c8f2:	059a      	lsls	r2, r3, #22
 800c8f4:	d402      	bmi.n	800c8fc <_vfiprintf_r+0x220>
 800c8f6:	6da8      	ldr	r0, [r5, #88]	; 0x58
 800c8f8:	f7ff fa3a 	bl	800bd70 <__retarget_lock_release_recursive>
 800c8fc:	89ab      	ldrh	r3, [r5, #12]
 800c8fe:	065b      	lsls	r3, r3, #25
 800c900:	f53f af12 	bmi.w	800c728 <_vfiprintf_r+0x4c>
 800c904:	9809      	ldr	r0, [sp, #36]	; 0x24
 800c906:	e711      	b.n	800c72c <_vfiprintf_r+0x50>
 800c908:	ab03      	add	r3, sp, #12
 800c90a:	9300      	str	r3, [sp, #0]
 800c90c:	462a      	mov	r2, r5
 800c90e:	4630      	mov	r0, r6
 800c910:	4b09      	ldr	r3, [pc, #36]	; (800c938 <_vfiprintf_r+0x25c>)
 800c912:	a904      	add	r1, sp, #16
 800c914:	f000 f882 	bl	800ca1c <_printf_i>
 800c918:	e7e4      	b.n	800c8e4 <_vfiprintf_r+0x208>
 800c91a:	bf00      	nop
 800c91c:	0800e2ac 	.word	0x0800e2ac
 800c920:	0800e2cc 	.word	0x0800e2cc
 800c924:	0800e28c 	.word	0x0800e28c
 800c928:	0800e2ec 	.word	0x0800e2ec
 800c92c:	0800e2f2 	.word	0x0800e2f2
 800c930:	0800e2f6 	.word	0x0800e2f6
 800c934:	00000000 	.word	0x00000000
 800c938:	0800c6b7 	.word	0x0800c6b7

0800c93c <_printf_common>:
 800c93c:	e92d 47f0 	stmdb	sp!, {r4, r5, r6, r7, r8, r9, sl, lr}
 800c940:	4616      	mov	r6, r2
 800c942:	4699      	mov	r9, r3
 800c944:	688a      	ldr	r2, [r1, #8]
 800c946:	690b      	ldr	r3, [r1, #16]
 800c948:	4607      	mov	r7, r0
 800c94a:	4293      	cmp	r3, r2
 800c94c:	bfb8      	it	lt
 800c94e:	4613      	movlt	r3, r2
 800c950:	6033      	str	r3, [r6, #0]
 800c952:	f891 2043 	ldrb.w	r2, [r1, #67]	; 0x43
 800c956:	460c      	mov	r4, r1
 800c958:	f8dd 8020 	ldr.w	r8, [sp, #32]
 800c95c:	b10a      	cbz	r2, 800c962 <_printf_common+0x26>
 800c95e:	3301      	adds	r3, #1
 800c960:	6033      	str	r3, [r6, #0]
 800c962:	6823      	ldr	r3, [r4, #0]
 800c964:	0699      	lsls	r1, r3, #26
 800c966:	bf42      	ittt	mi
 800c968:	6833      	ldrmi	r3, [r6, #0]
 800c96a:	3302      	addmi	r3, #2
 800c96c:	6033      	strmi	r3, [r6, #0]
 800c96e:	6825      	ldr	r5, [r4, #0]
 800c970:	f015 0506 	ands.w	r5, r5, #6
 800c974:	d106      	bne.n	800c984 <_printf_common+0x48>
 800c976:	f104 0a19 	add.w	sl, r4, #25
 800c97a:	68e3      	ldr	r3, [r4, #12]
 800c97c:	6832      	ldr	r2, [r6, #0]
 800c97e:	1a9b      	subs	r3, r3, r2
 800c980:	42ab      	cmp	r3, r5
 800c982:	dc28      	bgt.n	800c9d6 <_printf_common+0x9a>
 800c984:	f894 2043 	ldrb.w	r2, [r4, #67]	; 0x43
 800c988:	1e13      	subs	r3, r2, #0
 800c98a:	6822      	ldr	r2, [r4, #0]
 800c98c:	bf18      	it	ne
 800c98e:	2301      	movne	r3, #1
 800c990:	0692      	lsls	r2, r2, #26
 800c992:	d42d      	bmi.n	800c9f0 <_printf_common+0xb4>
 800c994:	4649      	mov	r1, r9
 800c996:	4638      	mov	r0, r7
 800c998:	f104 0243 	add.w	r2, r4, #67	; 0x43
 800c99c:	47c0      	blx	r8
 800c99e:	3001      	adds	r0, #1
 800c9a0:	d020      	beq.n	800c9e4 <_printf_common+0xa8>
 800c9a2:	6823      	ldr	r3, [r4, #0]
 800c9a4:	68e5      	ldr	r5, [r4, #12]
 800c9a6:	f003 0306 	and.w	r3, r3, #6
 800c9aa:	2b04      	cmp	r3, #4
 800c9ac:	bf18      	it	ne
 800c9ae:	2500      	movne	r5, #0
 800c9b0:	6832      	ldr	r2, [r6, #0]
 800c9b2:	f04f 0600 	mov.w	r6, #0
 800c9b6:	68a3      	ldr	r3, [r4, #8]
 800c9b8:	bf08      	it	eq
 800c9ba:	1aad      	subeq	r5, r5, r2
 800c9bc:	6922      	ldr	r2, [r4, #16]
 800c9be:	bf08      	it	eq
 800c9c0:	ea25 75e5 	biceq.w	r5, r5, r5, asr #31
 800c9c4:	4293      	cmp	r3, r2
 800c9c6:	bfc4      	itt	gt
 800c9c8:	1a9b      	subgt	r3, r3, r2
 800c9ca:	18ed      	addgt	r5, r5, r3
 800c9cc:	341a      	adds	r4, #26
 800c9ce:	42b5      	cmp	r5, r6
 800c9d0:	d11a      	bne.n	800ca08 <_printf_common+0xcc>
 800c9d2:	2000      	movs	r0, #0
 800c9d4:	e008      	b.n	800c9e8 <_printf_common+0xac>
 800c9d6:	2301      	movs	r3, #1
 800c9d8:	4652      	mov	r2, sl
 800c9da:	4649      	mov	r1, r9
 800c9dc:	4638      	mov	r0, r7
 800c9de:	47c0      	blx	r8
 800c9e0:	3001      	adds	r0, #1
 800c9e2:	d103      	bne.n	800c9ec <_printf_common+0xb0>
 800c9e4:	f04f 30ff 	mov.w	r0, #4294967295
 800c9e8:	e8bd 87f0 	ldmia.w	sp!, {r4, r5, r6, r7, r8, r9, sl, pc}
 800c9ec:	3501      	adds	r5, #1
 800c9ee:	e7c4      	b.n	800c97a <_printf_common+0x3e>
 800c9f0:	2030      	movs	r0, #48	; 0x30
 800c9f2:	18e1      	adds	r1, r4, r3
 800c9f4:	f881 0043 	strb.w	r0, [r1, #67]	; 0x43
 800c9f8:	1c5a      	adds	r2, r3, #1
 800c9fa:	f894 1045 	ldrb.w	r1, [r4, #69]	; 0x45
 800c9fe:	4422      	add	r2, r4
 800ca00:	3302      	adds	r3, #2
 800ca02:	f882 1043 	strb.w	r1, [r2, #67]	; 0x43
 800ca06:	e7c5      	b.n	800c994 <_printf_common+0x58>
 800ca08:	2301      	movs	r3, #1
 800ca0a:	4622      	mov	r2, r4
 800ca0c:	4649      	mov	r1, r9
 800ca0e:	4638      	mov	r0, r7
 800ca10:	47c0      	blx	r8
 800ca12:	3001      	adds	r0, #1
 800ca14:	d0e6      	beq.n	800c9e4 <_printf_common+0xa8>
 800ca16:	3601      	adds	r6, #1
 800ca18:	e7d9      	b.n	800c9ce <_printf_common+0x92>
	...

0800ca1c <_printf_i>:
 800ca1c:	e92d 47ff 	stmdb	sp!, {r0, r1, r2, r3, r4, r5, r6, r7, r8, r9, sl, lr}
 800ca20:	7e0f      	ldrb	r7, [r1, #24]
 800ca22:	4691      	mov	r9, r2
 800ca24:	2f78      	cmp	r7, #120	; 0x78
 800ca26:	4680      	mov	r8, r0
 800ca28:	460c      	mov	r4, r1
 800ca2a:	469a      	mov	sl, r3
 800ca2c:	9d0c      	ldr	r5, [sp, #48]	; 0x30
 800ca2e:	f101 0243 	add.w	r2, r1, #67	; 0x43
 800ca32:	d807      	bhi.n	800ca44 <_printf_i+0x28>
 800ca34:	2f62      	cmp	r7, #98	; 0x62
 800ca36:	d80a      	bhi.n	800ca4e <_printf_i+0x32>
 800ca38:	2f00      	cmp	r7, #0
 800ca3a:	f000 80d9 	beq.w	800cbf0 <_printf_i+0x1d4>
 800ca3e:	2f58      	cmp	r7, #88	; 0x58
 800ca40:	f000 80a4 	beq.w	800cb8c <_printf_i+0x170>
 800ca44:	f104 0542 	add.w	r5, r4, #66	; 0x42
 800ca48:	f884 7042 	strb.w	r7, [r4, #66]	; 0x42
 800ca4c:	e03a      	b.n	800cac4 <_printf_i+0xa8>
 800ca4e:	f1a7 0363 	sub.w	r3, r7, #99	; 0x63
 800ca52:	2b15      	cmp	r3, #21
 800ca54:	d8f6      	bhi.n	800ca44 <_printf_i+0x28>
 800ca56:	a101      	add	r1, pc, #4	; (adr r1, 800ca5c <_printf_i+0x40>)
 800ca58:	f851 f023 	ldr.w	pc, [r1, r3, lsl #2]
 800ca5c:	0800cab5 	.word	0x0800cab5
 800ca60:	0800cac9 	.word	0x0800cac9
 800ca64:	0800ca45 	.word	0x0800ca45
 800ca68:	0800ca45 	.word	0x0800ca45
 800ca6c:	0800ca45 	.word	0x0800ca45
 800ca70:	0800ca45 	.word	0x0800ca45
 800ca74:	0800cac9 	.word	0x0800cac9
 800ca78:	0800ca45 	.word	0x0800ca45
 800ca7c:	0800ca45 	.word	0x0800ca45
 800ca80:	0800ca45 	.word	0x0800ca45
 800ca84:	0800ca45 	.word	0x0800ca45
 800ca88:	0800cbd7 	.word	0x0800cbd7
 800ca8c:	0800caf9 	.word	0x0800caf9
 800ca90:	0800cbb9 	.word	0x0800cbb9
 800ca94:	0800ca45 	.word	0x0800ca45
 800ca98:	0800ca45 	.word	0x0800ca45
 800ca9c:	0800cbf9 	.word	0x0800cbf9
 800caa0:	0800ca45 	.word	0x0800ca45
 800caa4:	0800caf9 	.word	0x0800caf9
 800caa8:	0800ca45 	.word	0x0800ca45
 800caac:	0800ca45 	.word	0x0800ca45
 800cab0:	0800cbc1 	.word	0x0800cbc1
 800cab4:	682b      	ldr	r3, [r5, #0]
 800cab6:	1d1a      	adds	r2, r3, #4
 800cab8:	681b      	ldr	r3, [r3, #0]
 800caba:	602a      	str	r2, [r5, #0]
 800cabc:	f104 0542 	add.w	r5, r4, #66	; 0x42
 800cac0:	f884 3042 	strb.w	r3, [r4, #66]	; 0x42
 800cac4:	2301      	movs	r3, #1
 800cac6:	e0a4      	b.n	800cc12 <_printf_i+0x1f6>
 800cac8:	6820      	ldr	r0, [r4, #0]
 800caca:	6829      	ldr	r1, [r5, #0]
 800cacc:	0606      	lsls	r6, r0, #24
 800cace:	f101 0304 	add.w	r3, r1, #4
 800cad2:	d50a      	bpl.n	800caea <_printf_i+0xce>
 800cad4:	680e      	ldr	r6, [r1, #0]
 800cad6:	602b      	str	r3, [r5, #0]
 800cad8:	2e00      	cmp	r6, #0
 800cada:	da03      	bge.n	800cae4 <_printf_i+0xc8>
 800cadc:	232d      	movs	r3, #45	; 0x2d
 800cade:	4276      	negs	r6, r6
 800cae0:	f884 3043 	strb.w	r3, [r4, #67]	; 0x43
 800cae4:	230a      	movs	r3, #10
 800cae6:	485e      	ldr	r0, [pc, #376]	; (800cc60 <_printf_i+0x244>)
 800cae8:	e019      	b.n	800cb1e <_printf_i+0x102>
 800caea:	680e      	ldr	r6, [r1, #0]
 800caec:	f010 0f40 	tst.w	r0, #64	; 0x40
 800caf0:	602b      	str	r3, [r5, #0]
 800caf2:	bf18      	it	ne
 800caf4:	b236      	sxthne	r6, r6
 800caf6:	e7ef      	b.n	800cad8 <_printf_i+0xbc>
 800caf8:	682b      	ldr	r3, [r5, #0]
 800cafa:	6820      	ldr	r0, [r4, #0]
 800cafc:	1d19      	adds	r1, r3, #4
 800cafe:	6029      	str	r1, [r5, #0]
 800cb00:	0601      	lsls	r1, r0, #24
 800cb02:	d501      	bpl.n	800cb08 <_printf_i+0xec>
 800cb04:	681e      	ldr	r6, [r3, #0]
 800cb06:	e002      	b.n	800cb0e <_printf_i+0xf2>
 800cb08:	0646      	lsls	r6, r0, #25
 800cb0a:	d5fb      	bpl.n	800cb04 <_printf_i+0xe8>
 800cb0c:	881e      	ldrh	r6, [r3, #0]
 800cb0e:	2f6f      	cmp	r7, #111	; 0x6f
 800cb10:	bf0c      	ite	eq
 800cb12:	2308      	moveq	r3, #8
 800cb14:	230a      	movne	r3, #10
 800cb16:	4852      	ldr	r0, [pc, #328]	; (800cc60 <_printf_i+0x244>)
 800cb18:	2100      	movs	r1, #0
 800cb1a:	f884 1043 	strb.w	r1, [r4, #67]	; 0x43
 800cb1e:	6865      	ldr	r5, [r4, #4]
 800cb20:	2d00      	cmp	r5, #0
 800cb22:	bfa8      	it	ge
 800cb24:	6821      	ldrge	r1, [r4, #0]
 800cb26:	60a5      	str	r5, [r4, #8]
 800cb28:	bfa4      	itt	ge
 800cb2a:	f021 0104 	bicge.w	r1, r1, #4
 800cb2e:	6021      	strge	r1, [r4, #0]
 800cb30:	b90e      	cbnz	r6, 800cb36 <_printf_i+0x11a>
 800cb32:	2d00      	cmp	r5, #0
 800cb34:	d04d      	beq.n	800cbd2 <_printf_i+0x1b6>
 800cb36:	4615      	mov	r5, r2
 800cb38:	fbb6 f1f3 	udiv	r1, r6, r3
 800cb3c:	fb03 6711 	mls	r7, r3, r1, r6
 800cb40:	5dc7      	ldrb	r7, [r0, r7]
 800cb42:	f805 7d01 	strb.w	r7, [r5, #-1]!
 800cb46:	4637      	mov	r7, r6
 800cb48:	42bb      	cmp	r3, r7
 800cb4a:	460e      	mov	r6, r1
 800cb4c:	d9f4      	bls.n	800cb38 <_printf_i+0x11c>
 800cb4e:	2b08      	cmp	r3, #8
 800cb50:	d10b      	bne.n	800cb6a <_printf_i+0x14e>
 800cb52:	6823      	ldr	r3, [r4, #0]
 800cb54:	07de      	lsls	r6, r3, #31
 800cb56:	d508      	bpl.n	800cb6a <_printf_i+0x14e>
 800cb58:	6923      	ldr	r3, [r4, #16]
 800cb5a:	6861      	ldr	r1, [r4, #4]
 800cb5c:	4299      	cmp	r1, r3
 800cb5e:	bfde      	ittt	le
 800cb60:	2330      	movle	r3, #48	; 0x30
 800cb62:	f805 3c01 	strble.w	r3, [r5, #-1]
 800cb66:	f105 35ff 	addle.w	r5, r5, #4294967295
 800cb6a:	1b52      	subs	r2, r2, r5
 800cb6c:	6122      	str	r2, [r4, #16]
 800cb6e:	464b      	mov	r3, r9
 800cb70:	4621      	mov	r1, r4
 800cb72:	4640      	mov	r0, r8
 800cb74:	f8cd a000 	str.w	sl, [sp]
 800cb78:	aa03      	add	r2, sp, #12
 800cb7a:	f7ff fedf 	bl	800c93c <_printf_common>
 800cb7e:	3001      	adds	r0, #1
 800cb80:	d14c      	bne.n	800cc1c <_printf_i+0x200>
 800cb82:	f04f 30ff 	mov.w	r0, #4294967295
 800cb86:	b004      	add	sp, #16
 800cb88:	e8bd 87f0 	ldmia.w	sp!, {r4, r5, r6, r7, r8, r9, sl, pc}
 800cb8c:	4834      	ldr	r0, [pc, #208]	; (800cc60 <_printf_i+0x244>)
 800cb8e:	f881 7045 	strb.w	r7, [r1, #69]	; 0x45
 800cb92:	6829      	ldr	r1, [r5, #0]
 800cb94:	6823      	ldr	r3, [r4, #0]
 800cb96:	f851 6b04 	ldr.w	r6, [r1], #4
 800cb9a:	6029      	str	r1, [r5, #0]
 800cb9c:	061d      	lsls	r5, r3, #24
 800cb9e:	d514      	bpl.n	800cbca <_printf_i+0x1ae>
 800cba0:	07df      	lsls	r7, r3, #31
 800cba2:	bf44      	itt	mi
 800cba4:	f043 0320 	orrmi.w	r3, r3, #32
 800cba8:	6023      	strmi	r3, [r4, #0]
 800cbaa:	b91e      	cbnz	r6, 800cbb4 <_printf_i+0x198>
 800cbac:	6823      	ldr	r3, [r4, #0]
 800cbae:	f023 0320 	bic.w	r3, r3, #32
 800cbb2:	6023      	str	r3, [r4, #0]
 800cbb4:	2310      	movs	r3, #16
 800cbb6:	e7af      	b.n	800cb18 <_printf_i+0xfc>
 800cbb8:	6823      	ldr	r3, [r4, #0]
 800cbba:	f043 0320 	orr.w	r3, r3, #32
 800cbbe:	6023      	str	r3, [r4, #0]
 800cbc0:	2378      	movs	r3, #120	; 0x78
 800cbc2:	4828      	ldr	r0, [pc, #160]	; (800cc64 <_printf_i+0x248>)
 800cbc4:	f884 3045 	strb.w	r3, [r4, #69]	; 0x45
 800cbc8:	e7e3      	b.n	800cb92 <_printf_i+0x176>
 800cbca:	0659      	lsls	r1, r3, #25
 800cbcc:	bf48      	it	mi
 800cbce:	b2b6      	uxthmi	r6, r6
 800cbd0:	e7e6      	b.n	800cba0 <_printf_i+0x184>
 800cbd2:	4615      	mov	r5, r2
 800cbd4:	e7bb      	b.n	800cb4e <_printf_i+0x132>
 800cbd6:	682b      	ldr	r3, [r5, #0]
 800cbd8:	6826      	ldr	r6, [r4, #0]
 800cbda:	1d18      	adds	r0, r3, #4
 800cbdc:	6961      	ldr	r1, [r4, #20]
 800cbde:	6028      	str	r0, [r5, #0]
 800cbe0:	0635      	lsls	r5, r6, #24
 800cbe2:	681b      	ldr	r3, [r3, #0]
 800cbe4:	d501      	bpl.n	800cbea <_printf_i+0x1ce>
 800cbe6:	6019      	str	r1, [r3, #0]
 800cbe8:	e002      	b.n	800cbf0 <_printf_i+0x1d4>
 800cbea:	0670      	lsls	r0, r6, #25
 800cbec:	d5fb      	bpl.n	800cbe6 <_printf_i+0x1ca>
 800cbee:	8019      	strh	r1, [r3, #0]
 800cbf0:	2300      	movs	r3, #0
 800cbf2:	4615      	mov	r5, r2
 800cbf4:	6123      	str	r3, [r4, #16]
 800cbf6:	e7ba      	b.n	800cb6e <_printf_i+0x152>
 800cbf8:	682b      	ldr	r3, [r5, #0]
 800cbfa:	2100      	movs	r1, #0
 800cbfc:	1d1a      	adds	r2, r3, #4
 800cbfe:	602a      	str	r2, [r5, #0]
 800cc00:	681d      	ldr	r5, [r3, #0]
 800cc02:	6862      	ldr	r2, [r4, #4]
 800cc04:	4628      	mov	r0, r5
 800cc06:	f000 fb1d 	bl	800d244 <memchr>
 800cc0a:	b108      	cbz	r0, 800cc10 <_printf_i+0x1f4>
 800cc0c:	1b40      	subs	r0, r0, r5
 800cc0e:	6060      	str	r0, [r4, #4]
 800cc10:	6863      	ldr	r3, [r4, #4]
 800cc12:	6123      	str	r3, [r4, #16]
 800cc14:	2300      	movs	r3, #0
 800cc16:	f884 3043 	strb.w	r3, [r4, #67]	; 0x43
 800cc1a:	e7a8      	b.n	800cb6e <_printf_i+0x152>
 800cc1c:	462a      	mov	r2, r5
 800cc1e:	4649      	mov	r1, r9
 800cc20:	4640      	mov	r0, r8
 800cc22:	6923      	ldr	r3, [r4, #16]
 800cc24:	47d0      	blx	sl
 800cc26:	3001      	adds	r0, #1
 800cc28:	d0ab      	beq.n	800cb82 <_printf_i+0x166>
 800cc2a:	6823      	ldr	r3, [r4, #0]
 800cc2c:	079b      	lsls	r3, r3, #30
 800cc2e:	d413      	bmi.n	800cc58 <_printf_i+0x23c>
 800cc30:	68e0      	ldr	r0, [r4, #12]
 800cc32:	9b03      	ldr	r3, [sp, #12]
 800cc34:	4298      	cmp	r0, r3
 800cc36:	bfb8      	it	lt
 800cc38:	4618      	movlt	r0, r3
 800cc3a:	e7a4      	b.n	800cb86 <_printf_i+0x16a>
 800cc3c:	2301      	movs	r3, #1
 800cc3e:	4632      	mov	r2, r6
 800cc40:	4649      	mov	r1, r9
 800cc42:	4640      	mov	r0, r8
 800cc44:	47d0      	blx	sl
 800cc46:	3001      	adds	r0, #1
 800cc48:	d09b      	beq.n	800cb82 <_printf_i+0x166>
 800cc4a:	3501      	adds	r5, #1
 800cc4c:	68e3      	ldr	r3, [r4, #12]
 800cc4e:	9903      	ldr	r1, [sp, #12]
 800cc50:	1a5b      	subs	r3, r3, r1
 800cc52:	42ab      	cmp	r3, r5
 800cc54:	dcf2      	bgt.n	800cc3c <_printf_i+0x220>
 800cc56:	e7eb      	b.n	800cc30 <_printf_i+0x214>
 800cc58:	2500      	movs	r5, #0
 800cc5a:	f104 0619 	add.w	r6, r4, #25
 800cc5e:	e7f5      	b.n	800cc4c <_printf_i+0x230>
 800cc60:	0800e2fd 	.word	0x0800e2fd
 800cc64:	0800e30e 	.word	0x0800e30e

0800cc68 <_scanf_chars>:
 800cc68:	e92d 43f8 	stmdb	sp!, {r3, r4, r5, r6, r7, r8, r9, lr}
 800cc6c:	4615      	mov	r5, r2
 800cc6e:	688a      	ldr	r2, [r1, #8]
 800cc70:	4680      	mov	r8, r0
 800cc72:	460c      	mov	r4, r1
 800cc74:	b932      	cbnz	r2, 800cc84 <_scanf_chars+0x1c>
 800cc76:	698a      	ldr	r2, [r1, #24]
 800cc78:	2a00      	cmp	r2, #0
 800cc7a:	bf0c      	ite	eq
 800cc7c:	2201      	moveq	r2, #1
 800cc7e:	f04f 32ff 	movne.w	r2, #4294967295
 800cc82:	608a      	str	r2, [r1, #8]
 800cc84:	2700      	movs	r7, #0
 800cc86:	6822      	ldr	r2, [r4, #0]
 800cc88:	f8df 908c 	ldr.w	r9, [pc, #140]	; 800cd18 <_scanf_chars+0xb0>
 800cc8c:	06d1      	lsls	r1, r2, #27
 800cc8e:	bf5f      	itttt	pl
 800cc90:	681a      	ldrpl	r2, [r3, #0]
 800cc92:	1d11      	addpl	r1, r2, #4
 800cc94:	6019      	strpl	r1, [r3, #0]
 800cc96:	6816      	ldrpl	r6, [r2, #0]
 800cc98:	69a0      	ldr	r0, [r4, #24]
 800cc9a:	b188      	cbz	r0, 800ccc0 <_scanf_chars+0x58>
 800cc9c:	2801      	cmp	r0, #1
 800cc9e:	d107      	bne.n	800ccb0 <_scanf_chars+0x48>
 800cca0:	682b      	ldr	r3, [r5, #0]
 800cca2:	781a      	ldrb	r2, [r3, #0]
 800cca4:	6963      	ldr	r3, [r4, #20]
 800cca6:	5c9b      	ldrb	r3, [r3, r2]
 800cca8:	b953      	cbnz	r3, 800ccc0 <_scanf_chars+0x58>
 800ccaa:	2f00      	cmp	r7, #0
 800ccac:	d031      	beq.n	800cd12 <_scanf_chars+0xaa>
 800ccae:	e022      	b.n	800ccf6 <_scanf_chars+0x8e>
 800ccb0:	2802      	cmp	r0, #2
 800ccb2:	d120      	bne.n	800ccf6 <_scanf_chars+0x8e>
 800ccb4:	682b      	ldr	r3, [r5, #0]
 800ccb6:	781b      	ldrb	r3, [r3, #0]
 800ccb8:	f813 3009 	ldrb.w	r3, [r3, r9]
 800ccbc:	071b      	lsls	r3, r3, #28
 800ccbe:	d41a      	bmi.n	800ccf6 <_scanf_chars+0x8e>
 800ccc0:	6823      	ldr	r3, [r4, #0]
 800ccc2:	3701      	adds	r7, #1
 800ccc4:	06da      	lsls	r2, r3, #27
 800ccc6:	bf5e      	ittt	pl
 800ccc8:	682b      	ldrpl	r3, [r5, #0]
 800ccca:	781b      	ldrbpl	r3, [r3, #0]
 800cccc:	f806 3b01 	strbpl.w	r3, [r6], #1
 800ccd0:	682a      	ldr	r2, [r5, #0]
 800ccd2:	686b      	ldr	r3, [r5, #4]
 800ccd4:	3201      	adds	r2, #1
 800ccd6:	602a      	str	r2, [r5, #0]
 800ccd8:	68a2      	ldr	r2, [r4, #8]
 800ccda:	3b01      	subs	r3, #1
 800ccdc:	3a01      	subs	r2, #1
 800ccde:	606b      	str	r3, [r5, #4]
 800cce0:	60a2      	str	r2, [r4, #8]
 800cce2:	b142      	cbz	r2, 800ccf6 <_scanf_chars+0x8e>
 800cce4:	2b00      	cmp	r3, #0
 800cce6:	dcd7      	bgt.n	800cc98 <_scanf_chars+0x30>
 800cce8:	4629      	mov	r1, r5
 800ccea:	4640      	mov	r0, r8
 800ccec:	f8d4 3180 	ldr.w	r3, [r4, #384]	; 0x180
 800ccf0:	4798      	blx	r3
 800ccf2:	2800      	cmp	r0, #0
 800ccf4:	d0d0      	beq.n	800cc98 <_scanf_chars+0x30>
 800ccf6:	6823      	ldr	r3, [r4, #0]
 800ccf8:	f013 0310 	ands.w	r3, r3, #16
 800ccfc:	d105      	bne.n	800cd0a <_scanf_chars+0xa2>
 800ccfe:	68e2      	ldr	r2, [r4, #12]
 800cd00:	3201      	adds	r2, #1
 800cd02:	60e2      	str	r2, [r4, #12]
 800cd04:	69a2      	ldr	r2, [r4, #24]
 800cd06:	b102      	cbz	r2, 800cd0a <_scanf_chars+0xa2>
 800cd08:	7033      	strb	r3, [r6, #0]
 800cd0a:	2000      	movs	r0, #0
 800cd0c:	6923      	ldr	r3, [r4, #16]
 800cd0e:	443b      	add	r3, r7
 800cd10:	6123      	str	r3, [r4, #16]
 800cd12:	e8bd 83f8 	ldmia.w	sp!, {r3, r4, r5, r6, r7, r8, r9, pc}
 800cd16:	bf00      	nop
 800cd18:	0800e189 	.word	0x0800e189

0800cd1c <_scanf_i>:
 800cd1c:	e92d 4ff0 	stmdb	sp!, {r4, r5, r6, r7, r8, r9, sl, fp, lr}
 800cd20:	460c      	mov	r4, r1
 800cd22:	4698      	mov	r8, r3
 800cd24:	4b75      	ldr	r3, [pc, #468]	; (800cefc <_scanf_i+0x1e0>)
 800cd26:	b087      	sub	sp, #28
 800cd28:	4682      	mov	sl, r0
 800cd2a:	4616      	mov	r6, r2
 800cd2c:	e893 0007 	ldmia.w	r3, {r0, r1, r2}
 800cd30:	ab03      	add	r3, sp, #12
 800cd32:	e883 0007 	stmia.w	r3, {r0, r1, r2}
 800cd36:	4b72      	ldr	r3, [pc, #456]	; (800cf00 <_scanf_i+0x1e4>)
 800cd38:	69a1      	ldr	r1, [r4, #24]
 800cd3a:	4a72      	ldr	r2, [pc, #456]	; (800cf04 <_scanf_i+0x1e8>)
 800cd3c:	4627      	mov	r7, r4
 800cd3e:	2903      	cmp	r1, #3
 800cd40:	bf18      	it	ne
 800cd42:	461a      	movne	r2, r3
 800cd44:	68a3      	ldr	r3, [r4, #8]
 800cd46:	9201      	str	r2, [sp, #4]
 800cd48:	1e5a      	subs	r2, r3, #1
 800cd4a:	f5b2 7fae 	cmp.w	r2, #348	; 0x15c
 800cd4e:	bf81      	itttt	hi
 800cd50:	f46f 75ae 	mvnhi.w	r5, #348	; 0x15c
 800cd54:	eb03 0905 	addhi.w	r9, r3, r5
 800cd58:	f240 135d 	movwhi	r3, #349	; 0x15d
 800cd5c:	60a3      	strhi	r3, [r4, #8]
 800cd5e:	f857 3b1c 	ldr.w	r3, [r7], #28
 800cd62:	bf98      	it	ls
 800cd64:	f04f 0900 	movls.w	r9, #0
 800cd68:	463d      	mov	r5, r7
 800cd6a:	f04f 0b00 	mov.w	fp, #0
 800cd6e:	f443 6350 	orr.w	r3, r3, #3328	; 0xd00
 800cd72:	6023      	str	r3, [r4, #0]
 800cd74:	6831      	ldr	r1, [r6, #0]
 800cd76:	ab03      	add	r3, sp, #12
 800cd78:	2202      	movs	r2, #2
 800cd7a:	7809      	ldrb	r1, [r1, #0]
 800cd7c:	f853 002b 	ldr.w	r0, [r3, fp, lsl #2]
 800cd80:	f000 fa60 	bl	800d244 <memchr>
 800cd84:	b328      	cbz	r0, 800cdd2 <_scanf_i+0xb6>
 800cd86:	f1bb 0f01 	cmp.w	fp, #1
 800cd8a:	d159      	bne.n	800ce40 <_scanf_i+0x124>
 800cd8c:	6862      	ldr	r2, [r4, #4]
 800cd8e:	b92a      	cbnz	r2, 800cd9c <_scanf_i+0x80>
 800cd90:	2308      	movs	r3, #8
 800cd92:	6822      	ldr	r2, [r4, #0]
 800cd94:	6063      	str	r3, [r4, #4]
 800cd96:	f442 7200 	orr.w	r2, r2, #512	; 0x200
 800cd9a:	6022      	str	r2, [r4, #0]
 800cd9c:	6822      	ldr	r2, [r4, #0]
 800cd9e:	f422 62a0 	bic.w	r2, r2, #1280	; 0x500
 800cda2:	6022      	str	r2, [r4, #0]
 800cda4:	68a2      	ldr	r2, [r4, #8]
 800cda6:	1e51      	subs	r1, r2, #1
 800cda8:	60a1      	str	r1, [r4, #8]
 800cdaa:	b192      	cbz	r2, 800cdd2 <_scanf_i+0xb6>
 800cdac:	6832      	ldr	r2, [r6, #0]
 800cdae:	1c51      	adds	r1, r2, #1
 800cdb0:	6031      	str	r1, [r6, #0]
 800cdb2:	7812      	ldrb	r2, [r2, #0]
 800cdb4:	f805 2b01 	strb.w	r2, [r5], #1
 800cdb8:	6872      	ldr	r2, [r6, #4]
 800cdba:	3a01      	subs	r2, #1
 800cdbc:	2a00      	cmp	r2, #0
 800cdbe:	6072      	str	r2, [r6, #4]
 800cdc0:	dc07      	bgt.n	800cdd2 <_scanf_i+0xb6>
 800cdc2:	4631      	mov	r1, r6
 800cdc4:	4650      	mov	r0, sl
 800cdc6:	f8d4 2180 	ldr.w	r2, [r4, #384]	; 0x180
 800cdca:	4790      	blx	r2
 800cdcc:	2800      	cmp	r0, #0
 800cdce:	f040 8085 	bne.w	800cedc <_scanf_i+0x1c0>
 800cdd2:	f10b 0b01 	add.w	fp, fp, #1
 800cdd6:	f1bb 0f03 	cmp.w	fp, #3
 800cdda:	d1cb      	bne.n	800cd74 <_scanf_i+0x58>
 800cddc:	6863      	ldr	r3, [r4, #4]
 800cdde:	b90b      	cbnz	r3, 800cde4 <_scanf_i+0xc8>
 800cde0:	230a      	movs	r3, #10
 800cde2:	6063      	str	r3, [r4, #4]
 800cde4:	6863      	ldr	r3, [r4, #4]
 800cde6:	4948      	ldr	r1, [pc, #288]	; (800cf08 <_scanf_i+0x1ec>)
 800cde8:	6960      	ldr	r0, [r4, #20]
 800cdea:	1ac9      	subs	r1, r1, r3
 800cdec:	f000 f924 	bl	800d038 <__sccl>
 800cdf0:	f04f 0b00 	mov.w	fp, #0
 800cdf4:	68a3      	ldr	r3, [r4, #8]
 800cdf6:	6822      	ldr	r2, [r4, #0]
 800cdf8:	2b00      	cmp	r3, #0
 800cdfa:	d03d      	beq.n	800ce78 <_scanf_i+0x15c>
 800cdfc:	6831      	ldr	r1, [r6, #0]
 800cdfe:	6960      	ldr	r0, [r4, #20]
 800ce00:	f891 c000 	ldrb.w	ip, [r1]
 800ce04:	f810 000c 	ldrb.w	r0, [r0, ip]
 800ce08:	2800      	cmp	r0, #0
 800ce0a:	d035      	beq.n	800ce78 <_scanf_i+0x15c>
 800ce0c:	f1bc 0f30 	cmp.w	ip, #48	; 0x30
 800ce10:	d124      	bne.n	800ce5c <_scanf_i+0x140>
 800ce12:	0510      	lsls	r0, r2, #20
 800ce14:	d522      	bpl.n	800ce5c <_scanf_i+0x140>
 800ce16:	f10b 0b01 	add.w	fp, fp, #1
 800ce1a:	f1b9 0f00 	cmp.w	r9, #0
 800ce1e:	d003      	beq.n	800ce28 <_scanf_i+0x10c>
 800ce20:	3301      	adds	r3, #1
 800ce22:	f109 39ff 	add.w	r9, r9, #4294967295
 800ce26:	60a3      	str	r3, [r4, #8]
 800ce28:	6873      	ldr	r3, [r6, #4]
 800ce2a:	3b01      	subs	r3, #1
 800ce2c:	2b00      	cmp	r3, #0
 800ce2e:	6073      	str	r3, [r6, #4]
 800ce30:	dd1b      	ble.n	800ce6a <_scanf_i+0x14e>
 800ce32:	6833      	ldr	r3, [r6, #0]
 800ce34:	3301      	adds	r3, #1
 800ce36:	6033      	str	r3, [r6, #0]
 800ce38:	68a3      	ldr	r3, [r4, #8]
 800ce3a:	3b01      	subs	r3, #1
 800ce3c:	60a3      	str	r3, [r4, #8]
 800ce3e:	e7d9      	b.n	800cdf4 <_scanf_i+0xd8>
 800ce40:	f1bb 0f02 	cmp.w	fp, #2
 800ce44:	d1ae      	bne.n	800cda4 <_scanf_i+0x88>
 800ce46:	6822      	ldr	r2, [r4, #0]
 800ce48:	f402 61c0 	and.w	r1, r2, #1536	; 0x600
 800ce4c:	f5b1 7f00 	cmp.w	r1, #512	; 0x200
 800ce50:	d1bf      	bne.n	800cdd2 <_scanf_i+0xb6>
 800ce52:	2310      	movs	r3, #16
 800ce54:	f442 7280 	orr.w	r2, r2, #256	; 0x100
 800ce58:	6063      	str	r3, [r4, #4]
 800ce5a:	e7a2      	b.n	800cda2 <_scanf_i+0x86>
 800ce5c:	f422 6210 	bic.w	r2, r2, #2304	; 0x900
 800ce60:	6022      	str	r2, [r4, #0]
 800ce62:	780b      	ldrb	r3, [r1, #0]
 800ce64:	f805 3b01 	strb.w	r3, [r5], #1
 800ce68:	e7de      	b.n	800ce28 <_scanf_i+0x10c>
 800ce6a:	4631      	mov	r1, r6
 800ce6c:	4650      	mov	r0, sl
 800ce6e:	f8d4 3180 	ldr.w	r3, [r4, #384]	; 0x180
 800ce72:	4798      	blx	r3
 800ce74:	2800      	cmp	r0, #0
 800ce76:	d0df      	beq.n	800ce38 <_scanf_i+0x11c>
 800ce78:	6823      	ldr	r3, [r4, #0]
 800ce7a:	05db      	lsls	r3, r3, #23
 800ce7c:	d50d      	bpl.n	800ce9a <_scanf_i+0x17e>
 800ce7e:	42bd      	cmp	r5, r7
 800ce80:	d909      	bls.n	800ce96 <_scanf_i+0x17a>
 800ce82:	f815 1c01 	ldrb.w	r1, [r5, #-1]
 800ce86:	4632      	mov	r2, r6
 800ce88:	4650      	mov	r0, sl
 800ce8a:	f8d4 317c 	ldr.w	r3, [r4, #380]	; 0x17c
 800ce8e:	f105 39ff 	add.w	r9, r5, #4294967295
 800ce92:	4798      	blx	r3
 800ce94:	464d      	mov	r5, r9
 800ce96:	42bd      	cmp	r5, r7
 800ce98:	d02d      	beq.n	800cef6 <_scanf_i+0x1da>
 800ce9a:	6822      	ldr	r2, [r4, #0]
 800ce9c:	f012 0210 	ands.w	r2, r2, #16
 800cea0:	d113      	bne.n	800ceca <_scanf_i+0x1ae>
 800cea2:	702a      	strb	r2, [r5, #0]
 800cea4:	4639      	mov	r1, r7
 800cea6:	6863      	ldr	r3, [r4, #4]
 800cea8:	4650      	mov	r0, sl
 800ceaa:	9e01      	ldr	r6, [sp, #4]
 800ceac:	47b0      	blx	r6
 800ceae:	6821      	ldr	r1, [r4, #0]
 800ceb0:	f8d8 3000 	ldr.w	r3, [r8]
 800ceb4:	f011 0f20 	tst.w	r1, #32
 800ceb8:	d013      	beq.n	800cee2 <_scanf_i+0x1c6>
 800ceba:	1d1a      	adds	r2, r3, #4
 800cebc:	f8c8 2000 	str.w	r2, [r8]
 800cec0:	681b      	ldr	r3, [r3, #0]
 800cec2:	6018      	str	r0, [r3, #0]
 800cec4:	68e3      	ldr	r3, [r4, #12]
 800cec6:	3301      	adds	r3, #1
 800cec8:	60e3      	str	r3, [r4, #12]
 800ceca:	2000      	movs	r0, #0
 800cecc:	1bed      	subs	r5, r5, r7
 800cece:	44ab      	add	fp, r5
 800ced0:	6925      	ldr	r5, [r4, #16]
 800ced2:	445d      	add	r5, fp
 800ced4:	6125      	str	r5, [r4, #16]
 800ced6:	b007      	add	sp, #28
 800ced8:	e8bd 8ff0 	ldmia.w	sp!, {r4, r5, r6, r7, r8, r9, sl, fp, pc}
 800cedc:	f04f 0b00 	mov.w	fp, #0
 800cee0:	e7ca      	b.n	800ce78 <_scanf_i+0x15c>
 800cee2:	1d1a      	adds	r2, r3, #4
 800cee4:	f8c8 2000 	str.w	r2, [r8]
 800cee8:	681b      	ldr	r3, [r3, #0]
 800ceea:	f011 0f01 	tst.w	r1, #1
 800ceee:	bf14      	ite	ne
 800cef0:	8018      	strhne	r0, [r3, #0]
 800cef2:	6018      	streq	r0, [r3, #0]
 800cef4:	e7e6      	b.n	800cec4 <_scanf_i+0x1a8>
 800cef6:	2001      	movs	r0, #1
 800cef8:	e7ed      	b.n	800ced6 <_scanf_i+0x1ba>
 800cefa:	bf00      	nop
 800cefc:	0800d45c 	.word	0x0800d45c
 800cf00:	0800d18d 	.word	0x0800d18d
 800cf04:	0800b761 	.word	0x0800b761
 800cf08:	0800e338 	.word	0x0800e338

0800cf0c <_putc_r>:
 800cf0c:	b570      	push	{r4, r5, r6, lr}
 800cf0e:	460d      	mov	r5, r1
 800cf10:	4614      	mov	r4, r2
 800cf12:	4606      	mov	r6, r0
 800cf14:	b118      	cbz	r0, 800cf1e <_putc_r+0x12>
 800cf16:	6983      	ldr	r3, [r0, #24]
 800cf18:	b90b      	cbnz	r3, 800cf1e <_putc_r+0x12>
 800cf1a:	f7fe fe2d 	bl	800bb78 <__sinit>
 800cf1e:	4b1c      	ldr	r3, [pc, #112]	; (800cf90 <_putc_r+0x84>)
 800cf20:	429c      	cmp	r4, r3
 800cf22:	d124      	bne.n	800cf6e <_putc_r+0x62>
 800cf24:	6874      	ldr	r4, [r6, #4]
 800cf26:	6e63      	ldr	r3, [r4, #100]	; 0x64
 800cf28:	07d8      	lsls	r0, r3, #31
 800cf2a:	d405      	bmi.n	800cf38 <_putc_r+0x2c>
 800cf2c:	89a3      	ldrh	r3, [r4, #12]
 800cf2e:	0599      	lsls	r1, r3, #22
 800cf30:	d402      	bmi.n	800cf38 <_putc_r+0x2c>
 800cf32:	6da0      	ldr	r0, [r4, #88]	; 0x58
 800cf34:	f7fe ff1b 	bl	800bd6e <__retarget_lock_acquire_recursive>
 800cf38:	68a3      	ldr	r3, [r4, #8]
 800cf3a:	3b01      	subs	r3, #1
 800cf3c:	2b00      	cmp	r3, #0
 800cf3e:	60a3      	str	r3, [r4, #8]
 800cf40:	da05      	bge.n	800cf4e <_putc_r+0x42>
 800cf42:	69a2      	ldr	r2, [r4, #24]
 800cf44:	4293      	cmp	r3, r2
 800cf46:	db1c      	blt.n	800cf82 <_putc_r+0x76>
 800cf48:	b2eb      	uxtb	r3, r5
 800cf4a:	2b0a      	cmp	r3, #10
 800cf4c:	d019      	beq.n	800cf82 <_putc_r+0x76>
 800cf4e:	6823      	ldr	r3, [r4, #0]
 800cf50:	1c5a      	adds	r2, r3, #1
 800cf52:	6022      	str	r2, [r4, #0]
 800cf54:	701d      	strb	r5, [r3, #0]
 800cf56:	b2ed      	uxtb	r5, r5
 800cf58:	6e63      	ldr	r3, [r4, #100]	; 0x64
 800cf5a:	07da      	lsls	r2, r3, #31
 800cf5c:	d405      	bmi.n	800cf6a <_putc_r+0x5e>
 800cf5e:	89a3      	ldrh	r3, [r4, #12]
 800cf60:	059b      	lsls	r3, r3, #22
 800cf62:	d402      	bmi.n	800cf6a <_putc_r+0x5e>
 800cf64:	6da0      	ldr	r0, [r4, #88]	; 0x58
 800cf66:	f7fe ff03 	bl	800bd70 <__retarget_lock_release_recursive>
 800cf6a:	4628      	mov	r0, r5
 800cf6c:	bd70      	pop	{r4, r5, r6, pc}
 800cf6e:	4b09      	ldr	r3, [pc, #36]	; (800cf94 <_putc_r+0x88>)
 800cf70:	429c      	cmp	r4, r3
 800cf72:	d101      	bne.n	800cf78 <_putc_r+0x6c>
 800cf74:	68b4      	ldr	r4, [r6, #8]
 800cf76:	e7d6      	b.n	800cf26 <_putc_r+0x1a>
 800cf78:	4b07      	ldr	r3, [pc, #28]	; (800cf98 <_putc_r+0x8c>)
 800cf7a:	429c      	cmp	r4, r3
 800cf7c:	bf08      	it	eq
 800cf7e:	68f4      	ldreq	r4, [r6, #12]
 800cf80:	e7d1      	b.n	800cf26 <_putc_r+0x1a>
 800cf82:	4629      	mov	r1, r5
 800cf84:	4622      	mov	r2, r4
 800cf86:	4630      	mov	r0, r6
 800cf88:	f7fe fbec 	bl	800b764 <__swbuf_r>
 800cf8c:	4605      	mov	r5, r0
 800cf8e:	e7e3      	b.n	800cf58 <_putc_r+0x4c>
 800cf90:	0800e2ac 	.word	0x0800e2ac
 800cf94:	0800e2cc 	.word	0x0800e2cc
 800cf98:	0800e28c 	.word	0x0800e28c

0800cf9c <_read_r>:
 800cf9c:	b538      	push	{r3, r4, r5, lr}
 800cf9e:	4604      	mov	r4, r0
 800cfa0:	4608      	mov	r0, r1
 800cfa2:	4611      	mov	r1, r2
 800cfa4:	2200      	movs	r2, #0
 800cfa6:	4d05      	ldr	r5, [pc, #20]	; (800cfbc <_read_r+0x20>)
 800cfa8:	602a      	str	r2, [r5, #0]
 800cfaa:	461a      	mov	r2, r3
 800cfac:	f7f8 fa6a 	bl	8005484 <_read>
 800cfb0:	1c43      	adds	r3, r0, #1
 800cfb2:	d102      	bne.n	800cfba <_read_r+0x1e>
 800cfb4:	682b      	ldr	r3, [r5, #0]
 800cfb6:	b103      	cbz	r3, 800cfba <_read_r+0x1e>
 800cfb8:	6023      	str	r3, [r4, #0]
 800cfba:	bd38      	pop	{r3, r4, r5, pc}
 800cfbc:	20000f4c 	.word	0x20000f4c

0800cfc0 <__srget_r>:
 800cfc0:	b538      	push	{r3, r4, r5, lr}
 800cfc2:	460c      	mov	r4, r1
 800cfc4:	4605      	mov	r5, r0
 800cfc6:	b118      	cbz	r0, 800cfd0 <__srget_r+0x10>
 800cfc8:	6983      	ldr	r3, [r0, #24]
 800cfca:	b90b      	cbnz	r3, 800cfd0 <__srget_r+0x10>
 800cfcc:	f7fe fdd4 	bl	800bb78 <__sinit>
 800cfd0:	4b0e      	ldr	r3, [pc, #56]	; (800d00c <__srget_r+0x4c>)
 800cfd2:	429c      	cmp	r4, r3
 800cfd4:	d10d      	bne.n	800cff2 <__srget_r+0x32>
 800cfd6:	686c      	ldr	r4, [r5, #4]
 800cfd8:	4621      	mov	r1, r4
 800cfda:	4628      	mov	r0, r5
 800cfdc:	f000 f99e 	bl	800d31c <__srefill_r>
 800cfe0:	b988      	cbnz	r0, 800d006 <__srget_r+0x46>
 800cfe2:	6863      	ldr	r3, [r4, #4]
 800cfe4:	3b01      	subs	r3, #1
 800cfe6:	6063      	str	r3, [r4, #4]
 800cfe8:	6823      	ldr	r3, [r4, #0]
 800cfea:	1c5a      	adds	r2, r3, #1
 800cfec:	6022      	str	r2, [r4, #0]
 800cfee:	7818      	ldrb	r0, [r3, #0]
 800cff0:	bd38      	pop	{r3, r4, r5, pc}
 800cff2:	4b07      	ldr	r3, [pc, #28]	; (800d010 <__srget_r+0x50>)
 800cff4:	429c      	cmp	r4, r3
 800cff6:	d101      	bne.n	800cffc <__srget_r+0x3c>
 800cff8:	68ac      	ldr	r4, [r5, #8]
 800cffa:	e7ed      	b.n	800cfd8 <__srget_r+0x18>
 800cffc:	4b05      	ldr	r3, [pc, #20]	; (800d014 <__srget_r+0x54>)
 800cffe:	429c      	cmp	r4, r3
 800d000:	bf08      	it	eq
 800d002:	68ec      	ldreq	r4, [r5, #12]
 800d004:	e7e8      	b.n	800cfd8 <__srget_r+0x18>
 800d006:	f04f 30ff 	mov.w	r0, #4294967295
 800d00a:	e7f1      	b.n	800cff0 <__srget_r+0x30>
 800d00c:	0800e2ac 	.word	0x0800e2ac
 800d010:	0800e2cc 	.word	0x0800e2cc
 800d014:	0800e28c 	.word	0x0800e28c

0800d018 <_sbrk_r>:
 800d018:	b538      	push	{r3, r4, r5, lr}
 800d01a:	2300      	movs	r3, #0
 800d01c:	4d05      	ldr	r5, [pc, #20]	; (800d034 <_sbrk_r+0x1c>)
 800d01e:	4604      	mov	r4, r0
 800d020:	4608      	mov	r0, r1
 800d022:	602b      	str	r3, [r5, #0]
 800d024:	f7f8 fa58 	bl	80054d8 <_sbrk>
 800d028:	1c43      	adds	r3, r0, #1
 800d02a:	d102      	bne.n	800d032 <_sbrk_r+0x1a>
 800d02c:	682b      	ldr	r3, [r5, #0]
 800d02e:	b103      	cbz	r3, 800d032 <_sbrk_r+0x1a>
 800d030:	6023      	str	r3, [r4, #0]
 800d032:	bd38      	pop	{r3, r4, r5, pc}
 800d034:	20000f4c 	.word	0x20000f4c

0800d038 <__sccl>:
 800d038:	b570      	push	{r4, r5, r6, lr}
 800d03a:	780b      	ldrb	r3, [r1, #0]
 800d03c:	4604      	mov	r4, r0
 800d03e:	2b5e      	cmp	r3, #94	; 0x5e
 800d040:	bf13      	iteet	ne
 800d042:	2200      	movne	r2, #0
 800d044:	2201      	moveq	r2, #1
 800d046:	784b      	ldrbeq	r3, [r1, #1]
 800d048:	1c48      	addne	r0, r1, #1
 800d04a:	bf08      	it	eq
 800d04c:	1c88      	addeq	r0, r1, #2
 800d04e:	f104 05ff 	add.w	r5, r4, #255	; 0xff
 800d052:	1e61      	subs	r1, r4, #1
 800d054:	f801 2f01 	strb.w	r2, [r1, #1]!
 800d058:	42a9      	cmp	r1, r5
 800d05a:	d1fb      	bne.n	800d054 <__sccl+0x1c>
 800d05c:	b90b      	cbnz	r3, 800d062 <__sccl+0x2a>
 800d05e:	3801      	subs	r0, #1
 800d060:	bd70      	pop	{r4, r5, r6, pc}
 800d062:	f082 0201 	eor.w	r2, r2, #1
 800d066:	4605      	mov	r5, r0
 800d068:	54e2      	strb	r2, [r4, r3]
 800d06a:	4628      	mov	r0, r5
 800d06c:	f810 1b01 	ldrb.w	r1, [r0], #1
 800d070:	292d      	cmp	r1, #45	; 0x2d
 800d072:	d006      	beq.n	800d082 <__sccl+0x4a>
 800d074:	295d      	cmp	r1, #93	; 0x5d
 800d076:	d0f3      	beq.n	800d060 <__sccl+0x28>
 800d078:	b909      	cbnz	r1, 800d07e <__sccl+0x46>
 800d07a:	4628      	mov	r0, r5
 800d07c:	e7f0      	b.n	800d060 <__sccl+0x28>
 800d07e:	460b      	mov	r3, r1
 800d080:	e7f1      	b.n	800d066 <__sccl+0x2e>
 800d082:	786e      	ldrb	r6, [r5, #1]
 800d084:	2e5d      	cmp	r6, #93	; 0x5d
 800d086:	d0fa      	beq.n	800d07e <__sccl+0x46>
 800d088:	42b3      	cmp	r3, r6
 800d08a:	dcf8      	bgt.n	800d07e <__sccl+0x46>
 800d08c:	4619      	mov	r1, r3
 800d08e:	3502      	adds	r5, #2
 800d090:	3101      	adds	r1, #1
 800d092:	428e      	cmp	r6, r1
 800d094:	5462      	strb	r2, [r4, r1]
 800d096:	dcfb      	bgt.n	800d090 <__sccl+0x58>
 800d098:	1af1      	subs	r1, r6, r3
 800d09a:	3901      	subs	r1, #1
 800d09c:	42b3      	cmp	r3, r6
 800d09e:	bfa8      	it	ge
 800d0a0:	2100      	movge	r1, #0
 800d0a2:	1c58      	adds	r0, r3, #1
 800d0a4:	1843      	adds	r3, r0, r1
 800d0a6:	e7e0      	b.n	800d06a <__sccl+0x32>

0800d0a8 <_strtoul_l.constprop.0>:
 800d0a8:	e92d 43f0 	stmdb	sp!, {r4, r5, r6, r7, r8, r9, lr}
 800d0ac:	4686      	mov	lr, r0
 800d0ae:	460d      	mov	r5, r1
 800d0b0:	4f35      	ldr	r7, [pc, #212]	; (800d188 <_strtoul_l.constprop.0+0xe0>)
 800d0b2:	4628      	mov	r0, r5
 800d0b4:	f815 4b01 	ldrb.w	r4, [r5], #1
 800d0b8:	5de6      	ldrb	r6, [r4, r7]
 800d0ba:	f016 0608 	ands.w	r6, r6, #8
 800d0be:	d1f8      	bne.n	800d0b2 <_strtoul_l.constprop.0+0xa>
 800d0c0:	2c2d      	cmp	r4, #45	; 0x2d
 800d0c2:	d12f      	bne.n	800d124 <_strtoul_l.constprop.0+0x7c>
 800d0c4:	2601      	movs	r6, #1
 800d0c6:	782c      	ldrb	r4, [r5, #0]
 800d0c8:	1c85      	adds	r5, r0, #2
 800d0ca:	2b00      	cmp	r3, #0
 800d0cc:	d057      	beq.n	800d17e <_strtoul_l.constprop.0+0xd6>
 800d0ce:	2b10      	cmp	r3, #16
 800d0d0:	d109      	bne.n	800d0e6 <_strtoul_l.constprop.0+0x3e>
 800d0d2:	2c30      	cmp	r4, #48	; 0x30
 800d0d4:	d107      	bne.n	800d0e6 <_strtoul_l.constprop.0+0x3e>
 800d0d6:	7828      	ldrb	r0, [r5, #0]
 800d0d8:	f000 00df 	and.w	r0, r0, #223	; 0xdf
 800d0dc:	2858      	cmp	r0, #88	; 0x58
 800d0de:	d149      	bne.n	800d174 <_strtoul_l.constprop.0+0xcc>
 800d0e0:	2310      	movs	r3, #16
 800d0e2:	786c      	ldrb	r4, [r5, #1]
 800d0e4:	3502      	adds	r5, #2
 800d0e6:	f04f 38ff 	mov.w	r8, #4294967295
 800d0ea:	fbb8 f8f3 	udiv	r8, r8, r3
 800d0ee:	2700      	movs	r7, #0
 800d0f0:	fb03 f908 	mul.w	r9, r3, r8
 800d0f4:	4638      	mov	r0, r7
 800d0f6:	ea6f 0909 	mvn.w	r9, r9
 800d0fa:	f1a4 0c30 	sub.w	ip, r4, #48	; 0x30
 800d0fe:	f1bc 0f09 	cmp.w	ip, #9
 800d102:	d814      	bhi.n	800d12e <_strtoul_l.constprop.0+0x86>
 800d104:	4664      	mov	r4, ip
 800d106:	42a3      	cmp	r3, r4
 800d108:	dd22      	ble.n	800d150 <_strtoul_l.constprop.0+0xa8>
 800d10a:	2f00      	cmp	r7, #0
 800d10c:	db1d      	blt.n	800d14a <_strtoul_l.constprop.0+0xa2>
 800d10e:	4580      	cmp	r8, r0
 800d110:	d31b      	bcc.n	800d14a <_strtoul_l.constprop.0+0xa2>
 800d112:	d101      	bne.n	800d118 <_strtoul_l.constprop.0+0x70>
 800d114:	45a1      	cmp	r9, r4
 800d116:	db18      	blt.n	800d14a <_strtoul_l.constprop.0+0xa2>
 800d118:	2701      	movs	r7, #1
 800d11a:	fb00 4003 	mla	r0, r0, r3, r4
 800d11e:	f815 4b01 	ldrb.w	r4, [r5], #1
 800d122:	e7ea      	b.n	800d0fa <_strtoul_l.constprop.0+0x52>
 800d124:	2c2b      	cmp	r4, #43	; 0x2b
 800d126:	bf04      	itt	eq
 800d128:	782c      	ldrbeq	r4, [r5, #0]
 800d12a:	1c85      	addeq	r5, r0, #2
 800d12c:	e7cd      	b.n	800d0ca <_strtoul_l.constprop.0+0x22>
 800d12e:	f1a4 0c41 	sub.w	ip, r4, #65	; 0x41
 800d132:	f1bc 0f19 	cmp.w	ip, #25
 800d136:	d801      	bhi.n	800d13c <_strtoul_l.constprop.0+0x94>
 800d138:	3c37      	subs	r4, #55	; 0x37
 800d13a:	e7e4      	b.n	800d106 <_strtoul_l.constprop.0+0x5e>
 800d13c:	f1a4 0c61 	sub.w	ip, r4, #97	; 0x61
 800d140:	f1bc 0f19 	cmp.w	ip, #25
 800d144:	d804      	bhi.n	800d150 <_strtoul_l.constprop.0+0xa8>
 800d146:	3c57      	subs	r4, #87	; 0x57
 800d148:	e7dd      	b.n	800d106 <_strtoul_l.constprop.0+0x5e>
 800d14a:	f04f 37ff 	mov.w	r7, #4294967295
 800d14e:	e7e6      	b.n	800d11e <_strtoul_l.constprop.0+0x76>
 800d150:	2f00      	cmp	r7, #0
 800d152:	da07      	bge.n	800d164 <_strtoul_l.constprop.0+0xbc>
 800d154:	2322      	movs	r3, #34	; 0x22
 800d156:	f04f 30ff 	mov.w	r0, #4294967295
 800d15a:	f8ce 3000 	str.w	r3, [lr]
 800d15e:	b932      	cbnz	r2, 800d16e <_strtoul_l.constprop.0+0xc6>
 800d160:	e8bd 83f0 	ldmia.w	sp!, {r4, r5, r6, r7, r8, r9, pc}
 800d164:	b106      	cbz	r6, 800d168 <_strtoul_l.constprop.0+0xc0>
 800d166:	4240      	negs	r0, r0
 800d168:	2a00      	cmp	r2, #0
 800d16a:	d0f9      	beq.n	800d160 <_strtoul_l.constprop.0+0xb8>
 800d16c:	b107      	cbz	r7, 800d170 <_strtoul_l.constprop.0+0xc8>
 800d16e:	1e69      	subs	r1, r5, #1
 800d170:	6011      	str	r1, [r2, #0]
 800d172:	e7f5      	b.n	800d160 <_strtoul_l.constprop.0+0xb8>
 800d174:	2430      	movs	r4, #48	; 0x30
 800d176:	2b00      	cmp	r3, #0
 800d178:	d1b5      	bne.n	800d0e6 <_strtoul_l.constprop.0+0x3e>
 800d17a:	2308      	movs	r3, #8
 800d17c:	e7b3      	b.n	800d0e6 <_strtoul_l.constprop.0+0x3e>
 800d17e:	2c30      	cmp	r4, #48	; 0x30
 800d180:	d0a9      	beq.n	800d0d6 <_strtoul_l.constprop.0+0x2e>
 800d182:	230a      	movs	r3, #10
 800d184:	e7af      	b.n	800d0e6 <_strtoul_l.constprop.0+0x3e>
 800d186:	bf00      	nop
 800d188:	0800e189 	.word	0x0800e189

0800d18c <_strtoul_r>:
 800d18c:	f7ff bf8c 	b.w	800d0a8 <_strtoul_l.constprop.0>

0800d190 <__submore>:
 800d190:	e92d 41f0 	stmdb	sp!, {r4, r5, r6, r7, r8, lr}
 800d194:	460c      	mov	r4, r1
 800d196:	6b49      	ldr	r1, [r1, #52]	; 0x34
 800d198:	f104 0344 	add.w	r3, r4, #68	; 0x44
 800d19c:	4299      	cmp	r1, r3
 800d19e:	d11b      	bne.n	800d1d8 <__submore+0x48>
 800d1a0:	f44f 6180 	mov.w	r1, #1024	; 0x400
 800d1a4:	f7fe fece 	bl	800bf44 <_malloc_r>
 800d1a8:	b918      	cbnz	r0, 800d1b2 <__submore+0x22>
 800d1aa:	f04f 30ff 	mov.w	r0, #4294967295
 800d1ae:	e8bd 81f0 	ldmia.w	sp!, {r4, r5, r6, r7, r8, pc}
 800d1b2:	f44f 6380 	mov.w	r3, #1024	; 0x400
 800d1b6:	63a3      	str	r3, [r4, #56]	; 0x38
 800d1b8:	f894 3046 	ldrb.w	r3, [r4, #70]	; 0x46
 800d1bc:	6360      	str	r0, [r4, #52]	; 0x34
 800d1be:	f880 33ff 	strb.w	r3, [r0, #1023]	; 0x3ff
 800d1c2:	f894 3045 	ldrb.w	r3, [r4, #69]	; 0x45
 800d1c6:	f200 30fd 	addw	r0, r0, #1021	; 0x3fd
 800d1ca:	7043      	strb	r3, [r0, #1]
 800d1cc:	f894 3044 	ldrb.w	r3, [r4, #68]	; 0x44
 800d1d0:	7003      	strb	r3, [r0, #0]
 800d1d2:	6020      	str	r0, [r4, #0]
 800d1d4:	2000      	movs	r0, #0
 800d1d6:	e7ea      	b.n	800d1ae <__submore+0x1e>
 800d1d8:	6ba6      	ldr	r6, [r4, #56]	; 0x38
 800d1da:	0077      	lsls	r7, r6, #1
 800d1dc:	463a      	mov	r2, r7
 800d1de:	f000 f865 	bl	800d2ac <_realloc_r>
 800d1e2:	4605      	mov	r5, r0
 800d1e4:	2800      	cmp	r0, #0
 800d1e6:	d0e0      	beq.n	800d1aa <__submore+0x1a>
 800d1e8:	eb00 0806 	add.w	r8, r0, r6
 800d1ec:	4601      	mov	r1, r0
 800d1ee:	4632      	mov	r2, r6
 800d1f0:	4640      	mov	r0, r8
 800d1f2:	f7fd ffe3 	bl	800b1bc <memcpy>
 800d1f6:	e9c4 570d 	strd	r5, r7, [r4, #52]	; 0x34
 800d1fa:	f8c4 8000 	str.w	r8, [r4]
 800d1fe:	e7e9      	b.n	800d1d4 <__submore+0x44>

0800d200 <_fstat_r>:
 800d200:	b538      	push	{r3, r4, r5, lr}
 800d202:	2300      	movs	r3, #0
 800d204:	4d06      	ldr	r5, [pc, #24]	; (800d220 <_fstat_r+0x20>)
 800d206:	4604      	mov	r4, r0
 800d208:	4608      	mov	r0, r1
 800d20a:	4611      	mov	r1, r2
 800d20c:	602b      	str	r3, [r5, #0]
 800d20e:	f7f8 f959 	bl	80054c4 <_fstat>
 800d212:	1c43      	adds	r3, r0, #1
 800d214:	d102      	bne.n	800d21c <_fstat_r+0x1c>
 800d216:	682b      	ldr	r3, [r5, #0]
 800d218:	b103      	cbz	r3, 800d21c <_fstat_r+0x1c>
 800d21a:	6023      	str	r3, [r4, #0]
 800d21c:	bd38      	pop	{r3, r4, r5, pc}
 800d21e:	bf00      	nop
 800d220:	20000f4c 	.word	0x20000f4c

0800d224 <_isatty_r>:
 800d224:	b538      	push	{r3, r4, r5, lr}
 800d226:	2300      	movs	r3, #0
 800d228:	4d05      	ldr	r5, [pc, #20]	; (800d240 <_isatty_r+0x1c>)
 800d22a:	4604      	mov	r4, r0
 800d22c:	4608      	mov	r0, r1
 800d22e:	602b      	str	r3, [r5, #0]
 800d230:	f7f8 f94e 	bl	80054d0 <_isatty>
 800d234:	1c43      	adds	r3, r0, #1
 800d236:	d102      	bne.n	800d23e <_isatty_r+0x1a>
 800d238:	682b      	ldr	r3, [r5, #0]
 800d23a:	b103      	cbz	r3, 800d23e <_isatty_r+0x1a>
 800d23c:	6023      	str	r3, [r4, #0]
 800d23e:	bd38      	pop	{r3, r4, r5, pc}
 800d240:	20000f4c 	.word	0x20000f4c

0800d244 <memchr>:
 800d244:	4603      	mov	r3, r0
 800d246:	b510      	push	{r4, lr}
 800d248:	b2c9      	uxtb	r1, r1
 800d24a:	4402      	add	r2, r0
 800d24c:	4293      	cmp	r3, r2
 800d24e:	4618      	mov	r0, r3
 800d250:	d101      	bne.n	800d256 <memchr+0x12>
 800d252:	2000      	movs	r0, #0
 800d254:	e003      	b.n	800d25e <memchr+0x1a>
 800d256:	7804      	ldrb	r4, [r0, #0]
 800d258:	3301      	adds	r3, #1
 800d25a:	428c      	cmp	r4, r1
 800d25c:	d1f6      	bne.n	800d24c <memchr+0x8>
 800d25e:	bd10      	pop	{r4, pc}

0800d260 <memmove>:
 800d260:	4288      	cmp	r0, r1
 800d262:	b510      	push	{r4, lr}
 800d264:	eb01 0402 	add.w	r4, r1, r2
 800d268:	d902      	bls.n	800d270 <memmove+0x10>
 800d26a:	4284      	cmp	r4, r0
 800d26c:	4623      	mov	r3, r4
 800d26e:	d807      	bhi.n	800d280 <memmove+0x20>
 800d270:	1e43      	subs	r3, r0, #1
 800d272:	42a1      	cmp	r1, r4
 800d274:	d008      	beq.n	800d288 <memmove+0x28>
 800d276:	f811 2b01 	ldrb.w	r2, [r1], #1
 800d27a:	f803 2f01 	strb.w	r2, [r3, #1]!
 800d27e:	e7f8      	b.n	800d272 <memmove+0x12>
 800d280:	4601      	mov	r1, r0
 800d282:	4402      	add	r2, r0
 800d284:	428a      	cmp	r2, r1
 800d286:	d100      	bne.n	800d28a <memmove+0x2a>
 800d288:	bd10      	pop	{r4, pc}
 800d28a:	f813 4d01 	ldrb.w	r4, [r3, #-1]!
 800d28e:	f802 4d01 	strb.w	r4, [r2, #-1]!
 800d292:	e7f7      	b.n	800d284 <memmove+0x24>

0800d294 <__malloc_lock>:
 800d294:	4801      	ldr	r0, [pc, #4]	; (800d29c <__malloc_lock+0x8>)
 800d296:	f7fe bd6a 	b.w	800bd6e <__retarget_lock_acquire_recursive>
 800d29a:	bf00      	nop
 800d29c:	20000f3e 	.word	0x20000f3e

0800d2a0 <__malloc_unlock>:
 800d2a0:	4801      	ldr	r0, [pc, #4]	; (800d2a8 <__malloc_unlock+0x8>)
 800d2a2:	f7fe bd65 	b.w	800bd70 <__retarget_lock_release_recursive>
 800d2a6:	bf00      	nop
 800d2a8:	20000f3e 	.word	0x20000f3e

0800d2ac <_realloc_r>:
 800d2ac:	e92d 41f0 	stmdb	sp!, {r4, r5, r6, r7, r8, lr}
 800d2b0:	4680      	mov	r8, r0
 800d2b2:	4614      	mov	r4, r2
 800d2b4:	460e      	mov	r6, r1
 800d2b6:	b921      	cbnz	r1, 800d2c2 <_realloc_r+0x16>
 800d2b8:	4611      	mov	r1, r2
 800d2ba:	e8bd 41f0 	ldmia.w	sp!, {r4, r5, r6, r7, r8, lr}
 800d2be:	f7fe be41 	b.w	800bf44 <_malloc_r>
 800d2c2:	b92a      	cbnz	r2, 800d2d0 <_realloc_r+0x24>
 800d2c4:	f7fe fdd6 	bl	800be74 <_free_r>
 800d2c8:	4625      	mov	r5, r4
 800d2ca:	4628      	mov	r0, r5
 800d2cc:	e8bd 81f0 	ldmia.w	sp!, {r4, r5, r6, r7, r8, pc}
 800d2d0:	f000 f8b0 	bl	800d434 <_malloc_usable_size_r>
 800d2d4:	4284      	cmp	r4, r0
 800d2d6:	4607      	mov	r7, r0
 800d2d8:	d802      	bhi.n	800d2e0 <_realloc_r+0x34>
 800d2da:	ebb4 0f50 	cmp.w	r4, r0, lsr #1
 800d2de:	d812      	bhi.n	800d306 <_realloc_r+0x5a>
 800d2e0:	4621      	mov	r1, r4
 800d2e2:	4640      	mov	r0, r8
 800d2e4:	f7fe fe2e 	bl	800bf44 <_malloc_r>
 800d2e8:	4605      	mov	r5, r0
 800d2ea:	2800      	cmp	r0, #0
 800d2ec:	d0ed      	beq.n	800d2ca <_realloc_r+0x1e>
 800d2ee:	42bc      	cmp	r4, r7
 800d2f0:	4622      	mov	r2, r4
 800d2f2:	4631      	mov	r1, r6
 800d2f4:	bf28      	it	cs
 800d2f6:	463a      	movcs	r2, r7
 800d2f8:	f7fd ff60 	bl	800b1bc <memcpy>
 800d2fc:	4631      	mov	r1, r6
 800d2fe:	4640      	mov	r0, r8
 800d300:	f7fe fdb8 	bl	800be74 <_free_r>
 800d304:	e7e1      	b.n	800d2ca <_realloc_r+0x1e>
 800d306:	4635      	mov	r5, r6
 800d308:	e7df      	b.n	800d2ca <_realloc_r+0x1e>

0800d30a <lflush>:
 800d30a:	8983      	ldrh	r3, [r0, #12]
 800d30c:	f003 0309 	and.w	r3, r3, #9
 800d310:	2b09      	cmp	r3, #9
 800d312:	d101      	bne.n	800d318 <lflush+0xe>
 800d314:	f7fe bbc6 	b.w	800baa4 <fflush>
 800d318:	2000      	movs	r0, #0
 800d31a:	4770      	bx	lr

0800d31c <__srefill_r>:
 800d31c:	b5f8      	push	{r3, r4, r5, r6, r7, lr}
 800d31e:	460c      	mov	r4, r1
 800d320:	4605      	mov	r5, r0
 800d322:	b118      	cbz	r0, 800d32c <__srefill_r+0x10>
 800d324:	6983      	ldr	r3, [r0, #24]
 800d326:	b90b      	cbnz	r3, 800d32c <__srefill_r+0x10>
 800d328:	f7fe fc26 	bl	800bb78 <__sinit>
 800d32c:	4b3c      	ldr	r3, [pc, #240]	; (800d420 <__srefill_r+0x104>)
 800d32e:	429c      	cmp	r4, r3
 800d330:	d10a      	bne.n	800d348 <__srefill_r+0x2c>
 800d332:	686c      	ldr	r4, [r5, #4]
 800d334:	2300      	movs	r3, #0
 800d336:	6063      	str	r3, [r4, #4]
 800d338:	89a3      	ldrh	r3, [r4, #12]
 800d33a:	f9b4 200c 	ldrsh.w	r2, [r4, #12]
 800d33e:	069e      	lsls	r6, r3, #26
 800d340:	d50c      	bpl.n	800d35c <__srefill_r+0x40>
 800d342:	f04f 30ff 	mov.w	r0, #4294967295
 800d346:	e067      	b.n	800d418 <__srefill_r+0xfc>
 800d348:	4b36      	ldr	r3, [pc, #216]	; (800d424 <__srefill_r+0x108>)
 800d34a:	429c      	cmp	r4, r3
 800d34c:	d101      	bne.n	800d352 <__srefill_r+0x36>
 800d34e:	68ac      	ldr	r4, [r5, #8]
 800d350:	e7f0      	b.n	800d334 <__srefill_r+0x18>
 800d352:	4b35      	ldr	r3, [pc, #212]	; (800d428 <__srefill_r+0x10c>)
 800d354:	429c      	cmp	r4, r3
 800d356:	bf08      	it	eq
 800d358:	68ec      	ldreq	r4, [r5, #12]
 800d35a:	e7eb      	b.n	800d334 <__srefill_r+0x18>
 800d35c:	0758      	lsls	r0, r3, #29
 800d35e:	d449      	bmi.n	800d3f4 <__srefill_r+0xd8>
 800d360:	06d9      	lsls	r1, r3, #27
 800d362:	d405      	bmi.n	800d370 <__srefill_r+0x54>
 800d364:	2309      	movs	r3, #9
 800d366:	602b      	str	r3, [r5, #0]
 800d368:	f042 0340 	orr.w	r3, r2, #64	; 0x40
 800d36c:	81a3      	strh	r3, [r4, #12]
 800d36e:	e7e8      	b.n	800d342 <__srefill_r+0x26>
 800d370:	071a      	lsls	r2, r3, #28
 800d372:	d50b      	bpl.n	800d38c <__srefill_r+0x70>
 800d374:	4621      	mov	r1, r4
 800d376:	4628      	mov	r0, r5
 800d378:	f7fe fb58 	bl	800ba2c <_fflush_r>
 800d37c:	2800      	cmp	r0, #0
 800d37e:	d1e0      	bne.n	800d342 <__srefill_r+0x26>
 800d380:	89a3      	ldrh	r3, [r4, #12]
 800d382:	60a0      	str	r0, [r4, #8]
 800d384:	f023 0308 	bic.w	r3, r3, #8
 800d388:	81a3      	strh	r3, [r4, #12]
 800d38a:	61a0      	str	r0, [r4, #24]
 800d38c:	89a3      	ldrh	r3, [r4, #12]
 800d38e:	f043 0304 	orr.w	r3, r3, #4
 800d392:	81a3      	strh	r3, [r4, #12]
 800d394:	6923      	ldr	r3, [r4, #16]
 800d396:	b91b      	cbnz	r3, 800d3a0 <__srefill_r+0x84>
 800d398:	4621      	mov	r1, r4
 800d39a:	4628      	mov	r0, r5
 800d39c:	f7fe fd22 	bl	800bde4 <__smakebuf_r>
 800d3a0:	89a6      	ldrh	r6, [r4, #12]
 800d3a2:	f9b4 700c 	ldrsh.w	r7, [r4, #12]
 800d3a6:	07b3      	lsls	r3, r6, #30
 800d3a8:	d00f      	beq.n	800d3ca <__srefill_r+0xae>
 800d3aa:	2301      	movs	r3, #1
 800d3ac:	81a3      	strh	r3, [r4, #12]
 800d3ae:	4b1f      	ldr	r3, [pc, #124]	; (800d42c <__srefill_r+0x110>)
 800d3b0:	491f      	ldr	r1, [pc, #124]	; (800d430 <__srefill_r+0x114>)
 800d3b2:	6818      	ldr	r0, [r3, #0]
 800d3b4:	f006 0609 	and.w	r6, r6, #9
 800d3b8:	f7fe fc5c 	bl	800bc74 <_fwalk>
 800d3bc:	2e09      	cmp	r6, #9
 800d3be:	81a7      	strh	r7, [r4, #12]
 800d3c0:	d103      	bne.n	800d3ca <__srefill_r+0xae>
 800d3c2:	4621      	mov	r1, r4
 800d3c4:	4628      	mov	r0, r5
 800d3c6:	f7fe faaf 	bl	800b928 <__sflush_r>
 800d3ca:	6922      	ldr	r2, [r4, #16]
 800d3cc:	4628      	mov	r0, r5
 800d3ce:	6a66      	ldr	r6, [r4, #36]	; 0x24
 800d3d0:	6963      	ldr	r3, [r4, #20]
 800d3d2:	6a21      	ldr	r1, [r4, #32]
 800d3d4:	6022      	str	r2, [r4, #0]
 800d3d6:	47b0      	blx	r6
 800d3d8:	2800      	cmp	r0, #0
 800d3da:	6060      	str	r0, [r4, #4]
 800d3dc:	dc1d      	bgt.n	800d41a <__srefill_r+0xfe>
 800d3de:	bf18      	it	ne
 800d3e0:	2200      	movne	r2, #0
 800d3e2:	f9b4 300c 	ldrsh.w	r3, [r4, #12]
 800d3e6:	bf16      	itet	ne
 800d3e8:	6062      	strne	r2, [r4, #4]
 800d3ea:	f043 0320 	orreq.w	r3, r3, #32
 800d3ee:	f043 0340 	orrne.w	r3, r3, #64	; 0x40
 800d3f2:	e7bb      	b.n	800d36c <__srefill_r+0x50>
 800d3f4:	6b61      	ldr	r1, [r4, #52]	; 0x34
 800d3f6:	2900      	cmp	r1, #0
 800d3f8:	d0cc      	beq.n	800d394 <__srefill_r+0x78>
 800d3fa:	f104 0344 	add.w	r3, r4, #68	; 0x44
 800d3fe:	4299      	cmp	r1, r3
 800d400:	d002      	beq.n	800d408 <__srefill_r+0xec>
 800d402:	4628      	mov	r0, r5
 800d404:	f7fe fd36 	bl	800be74 <_free_r>
 800d408:	2000      	movs	r0, #0
 800d40a:	6c23      	ldr	r3, [r4, #64]	; 0x40
 800d40c:	6360      	str	r0, [r4, #52]	; 0x34
 800d40e:	6063      	str	r3, [r4, #4]
 800d410:	2b00      	cmp	r3, #0
 800d412:	d0bf      	beq.n	800d394 <__srefill_r+0x78>
 800d414:	6be3      	ldr	r3, [r4, #60]	; 0x3c
 800d416:	6023      	str	r3, [r4, #0]
 800d418:	bdf8      	pop	{r3, r4, r5, r6, r7, pc}
 800d41a:	2000      	movs	r0, #0
 800d41c:	e7fc      	b.n	800d418 <__srefill_r+0xfc>
 800d41e:	bf00      	nop
 800d420:	0800e2ac 	.word	0x0800e2ac
 800d424:	0800e2cc 	.word	0x0800e2cc
 800d428:	0800e28c 	.word	0x0800e28c
 800d42c:	0800e184 	.word	0x0800e184
 800d430:	0800d30b 	.word	0x0800d30b

0800d434 <_malloc_usable_size_r>:
 800d434:	f851 3c04 	ldr.w	r3, [r1, #-4]
 800d438:	1f18      	subs	r0, r3, #4
 800d43a:	2b00      	cmp	r3, #0
 800d43c:	bfbc      	itt	lt
 800d43e:	580b      	ldrlt	r3, [r1, r0]
 800d440:	18c0      	addlt	r0, r0, r3
 800d442:	4770      	bx	lr

0800d444 <_init>:
 800d444:	b5f8      	push	{r3, r4, r5, r6, r7, lr}
 800d446:	bf00      	nop
 800d448:	bcf8      	pop	{r3, r4, r5, r6, r7}
 800d44a:	bc08      	pop	{r3}
 800d44c:	469e      	mov	lr, r3
 800d44e:	4770      	bx	lr

0800d450 <_fini>:
 800d450:	b5f8      	push	{r3, r4, r5, r6, r7, lr}
 800d452:	bf00      	nop
 800d454:	bcf8      	pop	{r3, r4, r5, r6, r7}
 800d456:	bc08      	pop	{r3}
 800d458:	469e      	mov	lr, r3
 800d45a:	4770      	bx	lr
