
Bootloader.elf:     file format elf32-littlearm

Sections:
Idx Name          Size      VMA       LMA       File off  Algn
  0 .isr_vector   000001e4  08000000  08000000  00010000  2**0
                  CONTENTS, ALLOC, LOAD, READONLY, DATA
  1 .text         00003c20  080001e4  080001e4  000101e4  2**2
                  CONTENTS, ALLOC, LOAD, READONLY, CODE
  2 .rodata       0000015c  08003e04  08003e04  00013e04  2**2
                  CONTENTS, ALLOC, LOAD, READONLY, DATA
  3 .ARM.extab    00000000  08003f60  08003f60  00020070  2**0
                  CONTENTS
  4 .ARM          00000000  08003f60  08003f60  00020070  2**0
                  CONTENTS
  5 .preinit_array 00000000  08003f60  08003f60  00020070  2**0
                  CONTENTS, ALLOC, LOAD, DATA
  6 .init_array   00000004  08003f60  08003f60  00013f60  2**2
                  CONTENTS, ALLOC, LOAD, DATA
  7 .fini_array   00000004  08003f64  08003f64  00013f64  2**2
                  CONTENTS, ALLOC, LOAD, DATA
  8 .data         00000070  20000000  08003f68  00020000  2**2
                  CONTENTS, ALLOC, LOAD, DATA
  9 .bss          000001b0  20000070  08003fd8  00020070  2**3
                  ALLOC
 10 ._user_heap_stack 00000600  20000220  08003fd8  00020220  2**0
                  ALLOC
 11 .ARM.attributes 00000029  00000000  00000000  00020070  2**0
                  CONTENTS, READONLY
 12 .comment      00000050  00000000  00000000  00020099  2**0
                  CONTENTS, READONLY
 13 .debug_frame  00000828  00000000  00000000  000200ec  2**2
                  CONTENTS, READONLY, DEBUGGING, OCTETS

Disassembly of section .text:

080001e4 <__do_global_dtors_aux>:
 80001e4:	b510      	push	{r4, lr}
 80001e6:	4c05      	ldr	r4, [pc, #20]	; (80001fc <__do_global_dtors_aux+0x18>)
 80001e8:	7823      	ldrb	r3, [r4, #0]
 80001ea:	b933      	cbnz	r3, 80001fa <__do_global_dtors_aux+0x16>
 80001ec:	4b04      	ldr	r3, [pc, #16]	; (8000200 <__do_global_dtors_aux+0x1c>)
 80001ee:	b113      	cbz	r3, 80001f6 <__do_global_dtors_aux+0x12>
 80001f0:	4804      	ldr	r0, [pc, #16]	; (8000204 <__do_global_dtors_aux+0x20>)
 80001f2:	f3af 8000 	nop.w
 80001f6:	2301      	movs	r3, #1
 80001f8:	7023      	strb	r3, [r4, #0]
 80001fa:	bd10      	pop	{r4, pc}
 80001fc:	20000070 	.word	0x20000070
 8000200:	00000000 	.word	0x00000000
 8000204:	08003dec 	.word	0x08003dec

08000208 <frame_dummy>:
 8000208:	b508      	push	{r3, lr}
 800020a:	4b03      	ldr	r3, [pc, #12]	; (8000218 <frame_dummy+0x10>)
 800020c:	b11b      	cbz	r3, 8000216 <frame_dummy+0xe>
 800020e:	4903      	ldr	r1, [pc, #12]	; (800021c <frame_dummy+0x14>)
 8000210:	4803      	ldr	r0, [pc, #12]	; (8000220 <frame_dummy+0x18>)
 8000212:	f3af 8000 	nop.w
 8000216:	bd08      	pop	{r3, pc}
 8000218:	00000000 	.word	0x00000000
 800021c:	20000074 	.word	0x20000074
 8000220:	08003dec 	.word	0x08003dec

08000224 <__io_putchar>:
 8000224:	b500      	push	{lr}
 8000226:	b083      	sub	sp, #12
 8000228:	9001      	str	r0, [sp, #4]
 800022a:	f64f 73ff 	movw	r3, #65535	; 0xffff
 800022e:	2201      	movs	r2, #1
 8000230:	480a      	ldr	r0, [pc, #40]	; (800025c <__io_putchar+0x38>)
 8000232:	a901      	add	r1, sp, #4
 8000234:	f002 fc00 	bl	8002a38 <HAL_UART_Transmit>
 8000238:	9801      	ldr	r0, [sp, #4]
 800023a:	280a      	cmp	r0, #10
 800023c:	d002      	beq.n	8000244 <__io_putchar+0x20>
 800023e:	b003      	add	sp, #12
 8000240:	f85d fb04 	ldr.w	pc, [sp], #4
 8000244:	f64f 73ff 	movw	r3, #65535	; 0xffff
 8000248:	2201      	movs	r2, #1
 800024a:	4905      	ldr	r1, [pc, #20]	; (8000260 <__io_putchar+0x3c>)
 800024c:	4803      	ldr	r0, [pc, #12]	; (800025c <__io_putchar+0x38>)
 800024e:	f002 fbf3 	bl	8002a38 <HAL_UART_Transmit>
 8000252:	9801      	ldr	r0, [sp, #4]
 8000254:	b003      	add	sp, #12
 8000256:	f85d fb04 	ldr.w	pc, [sp], #4
 800025a:	bf00      	nop
 800025c:	200000e0 	.word	0x200000e0
 8000260:	08003e04 	.word	0x08003e04

08000264 <SystemClock_Config>:
 8000264:	b5d0      	push	{r4, r6, r7, lr}
 8000266:	b096      	sub	sp, #88	; 0x58
 8000268:	2224      	movs	r2, #36	; 0x24
 800026a:	2100      	movs	r1, #0
 800026c:	a80d      	add	r0, sp, #52	; 0x34
 800026e:	f002 ff8d 	bl	800318c <memset>
 8000272:	2110      	movs	r1, #16
 8000274:	2001      	movs	r0, #1
 8000276:	2400      	movs	r4, #0
 8000278:	220a      	movs	r2, #10
 800027a:	2301      	movs	r3, #1
 800027c:	e9cd 0110 	strd	r0, r1, [sp, #64]	; 0x40
 8000280:	a80c      	add	r0, sp, #48	; 0x30
 8000282:	920c      	str	r2, [sp, #48]	; 0x30
 8000284:	9312      	str	r3, [sp, #72]	; 0x48
 8000286:	2600      	movs	r6, #0
 8000288:	2700      	movs	r7, #0
 800028a:	e9cd 4401 	strd	r4, r4, [sp, #4]
 800028e:	e9cd 4403 	strd	r4, r4, [sp, #12]
 8000292:	e9cd 4407 	strd	r4, r4, [sp, #28]
 8000296:	e9cd 4409 	strd	r4, r4, [sp, #36]	; 0x24
 800029a:	9400      	str	r4, [sp, #0]
 800029c:	9406      	str	r4, [sp, #24]
 800029e:	940b      	str	r4, [sp, #44]	; 0x2c
 80002a0:	f001 fff4 	bl	800228c <HAL_RCC_OscConfig>
 80002a4:	220f      	movs	r2, #15
 80002a6:	2300      	movs	r3, #0
 80002a8:	4621      	mov	r1, r4
 80002aa:	4668      	mov	r0, sp
 80002ac:	e9cd 2300 	strd	r2, r3, [sp]
 80002b0:	e9cd 6702 	strd	r6, r7, [sp, #8]
 80002b4:	9404      	str	r4, [sp, #16]
 80002b6:	f002 f9d9 	bl	800266c <HAL_RCC_ClockConfig>
 80002ba:	2302      	movs	r3, #2
 80002bc:	a806      	add	r0, sp, #24
 80002be:	9306      	str	r3, [sp, #24]
 80002c0:	9408      	str	r4, [sp, #32]
 80002c2:	f002 fac9 	bl	8002858 <HAL_RCCEx_PeriphCLKConfig>
 80002c6:	f002 faa1 	bl	800280c <HAL_RCC_GetHCLKFreq>
 80002ca:	4b08      	ldr	r3, [pc, #32]	; (80002ec <SystemClock_Config+0x88>)
 80002cc:	fba3 3000 	umull	r3, r0, r3, r0
 80002d0:	0980      	lsrs	r0, r0, #6
 80002d2:	f000 fc29 	bl	8000b28 <HAL_SYSTICK_Config>
 80002d6:	2004      	movs	r0, #4
 80002d8:	f000 fc3e 	bl	8000b58 <HAL_SYSTICK_CLKSourceConfig>
 80002dc:	4622      	mov	r2, r4
 80002de:	4621      	mov	r1, r4
 80002e0:	f04f 30ff 	mov.w	r0, #4294967295
 80002e4:	f000 fbd4 	bl	8000a90 <HAL_NVIC_SetPriority>
 80002e8:	b016      	add	sp, #88	; 0x58
 80002ea:	bdd0      	pop	{r4, r6, r7, pc}
 80002ec:	10624dd3 	.word	0x10624dd3

080002f0 <main>:
 80002f0:	e92d 4ff0 	stmdb	sp!, {r4, r5, r6, r7, r8, r9, sl, fp, lr}
 80002f4:	2400      	movs	r4, #0
 80002f6:	b08b      	sub	sp, #44	; 0x2c
 80002f8:	f000 fb82 	bl	8000a00 <HAL_Init>
 80002fc:	f7ff ffb2 	bl	8000264 <SystemClock_Config>
 8000300:	e9cd 4406 	strd	r4, r4, [sp, #24]
 8000304:	e9cd 4408 	strd	r4, r4, [sp, #32]
 8000308:	4d96      	ldr	r5, [pc, #600]	; (8000564 <main+0x274>)
 800030a:	f04f 0a02 	mov.w	sl, #2
 800030e:	69ab      	ldr	r3, [r5, #24]
 8000310:	f8df 8254 	ldr.w	r8, [pc, #596]	; 8000568 <main+0x278>
 8000314:	f043 0310 	orr.w	r3, r3, #16
 8000318:	61ab      	str	r3, [r5, #24]
 800031a:	69ab      	ldr	r3, [r5, #24]
 800031c:	f8df 924c 	ldr.w	r9, [pc, #588]	; 800056c <main+0x27c>
 8000320:	f003 0310 	and.w	r3, r3, #16
 8000324:	9302      	str	r3, [sp, #8]
 8000326:	9b02      	ldr	r3, [sp, #8]
 8000328:	69ab      	ldr	r3, [r5, #24]
 800032a:	4640      	mov	r0, r8
 800032c:	f043 0320 	orr.w	r3, r3, #32
 8000330:	61ab      	str	r3, [r5, #24]
 8000332:	69ab      	ldr	r3, [r5, #24]
 8000334:	4622      	mov	r2, r4
 8000336:	f003 0320 	and.w	r3, r3, #32
 800033a:	9303      	str	r3, [sp, #12]
 800033c:	9b03      	ldr	r3, [sp, #12]
 800033e:	69ab      	ldr	r3, [r5, #24]
 8000340:	f44f 7162 	mov.w	r1, #904	; 0x388
 8000344:	f043 0304 	orr.w	r3, r3, #4
 8000348:	61ab      	str	r3, [r5, #24]
 800034a:	69ab      	ldr	r3, [r5, #24]
 800034c:	4e88      	ldr	r6, [pc, #544]	; (8000570 <main+0x280>)
 800034e:	f003 0304 	and.w	r3, r3, #4
 8000352:	9304      	str	r3, [sp, #16]
 8000354:	9b04      	ldr	r3, [sp, #16]
 8000356:	69ab      	ldr	r3, [r5, #24]
 8000358:	270c      	movs	r7, #12
 800035a:	f043 0308 	orr.w	r3, r3, #8
 800035e:	61ab      	str	r3, [r5, #24]
 8000360:	69ab      	ldr	r3, [r5, #24]
 8000362:	f8df b210 	ldr.w	fp, [pc, #528]	; 8000574 <main+0x284>
 8000366:	f003 0308 	and.w	r3, r3, #8
 800036a:	9305      	str	r3, [sp, #20]
 800036c:	9b05      	ldr	r3, [sp, #20]
 800036e:	f001 f95f 	bl	8001630 <HAL_GPIO_WritePin>
 8000372:	4622      	mov	r2, r4
 8000374:	4648      	mov	r0, r9
 8000376:	f241 0101 	movw	r1, #4097	; 0x1001
 800037a:	f001 f959 	bl	8001630 <HAL_GPIO_WritePin>
 800037e:	4651      	mov	r1, sl
 8000380:	4648      	mov	r0, r9
 8000382:	2201      	movs	r2, #1
 8000384:	f001 f954 	bl	8001630 <HAL_GPIO_WritePin>
 8000388:	4630      	mov	r0, r6
 800038a:	2128      	movs	r1, #40	; 0x28
 800038c:	2201      	movs	r2, #1
 800038e:	f001 f94f 	bl	8001630 <HAL_GPIO_WritePin>
 8000392:	4622      	mov	r2, r4
 8000394:	4630      	mov	r0, r6
 8000396:	21c0      	movs	r1, #192	; 0xc0
 8000398:	f001 f94a 	bl	8001630 <HAL_GPIO_WritePin>
 800039c:	f246 0201 	movw	r2, #24577	; 0x6001
 80003a0:	2300      	movs	r3, #0
 80003a2:	4640      	mov	r0, r8
 80003a4:	a906      	add	r1, sp, #24
 80003a6:	e9cd 2306 	strd	r2, r3, [sp, #24]
 80003aa:	9408      	str	r4, [sp, #32]
 80003ac:	f001 f818 	bl	80013e0 <HAL_GPIO_Init>
 80003b0:	2200      	movs	r2, #0
 80003b2:	2302      	movs	r3, #2
 80003b4:	e9cd 2308 	strd	r2, r3, [sp, #32]
 80003b8:	f44f 7262 	mov.w	r2, #904	; 0x388
 80003bc:	2301      	movs	r3, #1
 80003be:	4640      	mov	r0, r8
 80003c0:	a906      	add	r1, sp, #24
 80003c2:	e9cd 2306 	strd	r2, r3, [sp, #24]
 80003c6:	f001 f80b 	bl	80013e0 <HAL_GPIO_Init>
 80003ca:	2200      	movs	r2, #0
 80003cc:	2302      	movs	r3, #2
 80003ce:	e9cd 2308 	strd	r2, r3, [sp, #32]
 80003d2:	f241 0203 	movw	r2, #4099	; 0x1003
 80003d6:	2301      	movs	r3, #1
 80003d8:	4648      	mov	r0, r9
 80003da:	a906      	add	r1, sp, #24
 80003dc:	e9cd 2306 	strd	r2, r3, [sp, #24]
 80003e0:	f000 fffe 	bl	80013e0 <HAL_GPIO_Init>
 80003e4:	22f0      	movs	r2, #240	; 0xf0
 80003e6:	2300      	movs	r3, #0
 80003e8:	4648      	mov	r0, r9
 80003ea:	a906      	add	r1, sp, #24
 80003ec:	e9cd 2306 	strd	r2, r3, [sp, #24]
 80003f0:	f04f 0900 	mov.w	r9, #0
 80003f4:	9408      	str	r4, [sp, #32]
 80003f6:	f000 fff3 	bl	80013e0 <HAL_GPIO_Init>
 80003fa:	4640      	mov	r0, r8
 80003fc:	f04f 0830 	mov.w	r8, #48	; 0x30
 8000400:	e9cd 8906 	strd	r8, r9, [sp, #24]
 8000404:	f04f 0803 	mov.w	r8, #3
 8000408:	f04f 0900 	mov.w	r9, #0
 800040c:	a906      	add	r1, sp, #24
 800040e:	f8cd a020 	str.w	sl, [sp, #32]
 8000412:	f000 ffe5 	bl	80013e0 <HAL_GPIO_Init>
 8000416:	e9cd 8906 	strd	r8, r9, [sp, #24]
 800041a:	f44f 4870 	mov.w	r8, #61440	; 0xf000
 800041e:	f04f 0900 	mov.w	r9, #0
 8000422:	4630      	mov	r0, r6
 8000424:	a906      	add	r1, sp, #24
 8000426:	f8cd a020 	str.w	sl, [sp, #32]
 800042a:	f000 ffd9 	bl	80013e0 <HAL_GPIO_Init>
 800042e:	e9cd 8906 	strd	r8, r9, [sp, #24]
 8000432:	f04f 08e8 	mov.w	r8, #232	; 0xe8
 8000436:	f04f 0901 	mov.w	r9, #1
 800043a:	4630      	mov	r0, r6
 800043c:	a906      	add	r1, sp, #24
 800043e:	9408      	str	r4, [sp, #32]
 8000440:	f000 ffce 	bl	80013e0 <HAL_GPIO_Init>
 8000444:	2302      	movs	r3, #2
 8000446:	2200      	movs	r2, #0
 8000448:	e9cd 8906 	strd	r8, r9, [sp, #24]
 800044c:	f44f 6840 	mov.w	r8, #3072	; 0xc00
 8000450:	f04f 0912 	mov.w	r9, #18
 8000454:	4630      	mov	r0, r6
 8000456:	a906      	add	r1, sp, #24
 8000458:	e9cd 2308 	strd	r2, r3, [sp, #32]
 800045c:	f000 ffc0 	bl	80013e0 <HAL_GPIO_Init>
 8000460:	2003      	movs	r0, #3
 8000462:	69aa      	ldr	r2, [r5, #24]
 8000464:	a906      	add	r1, sp, #24
 8000466:	f042 0208 	orr.w	r2, r2, #8
 800046a:	61aa      	str	r2, [r5, #24]
 800046c:	69aa      	ldr	r2, [r5, #24]
 800046e:	e9cd 8906 	strd	r8, r9, [sp, #24]
 8000472:	f002 0208 	and.w	r2, r2, #8
 8000476:	9200      	str	r2, [sp, #0]
 8000478:	9009      	str	r0, [sp, #36]	; 0x24
 800047a:	9a00      	ldr	r2, [sp, #0]
 800047c:	69aa      	ldr	r2, [r5, #24]
 800047e:	4630      	mov	r0, r6
 8000480:	f042 0208 	orr.w	r2, r2, #8
 8000484:	61aa      	str	r2, [r5, #24]
 8000486:	69aa      	ldr	r2, [r5, #24]
 8000488:	f44f 35e1 	mov.w	r5, #115200	; 0x1c200
 800048c:	f002 0208 	and.w	r2, r2, #8
 8000490:	9201      	str	r2, [sp, #4]
 8000492:	9a01      	ldr	r2, [sp, #4]
 8000494:	f000 ffa4 	bl	80013e0 <HAL_GPIO_Init>
 8000498:	4630      	mov	r0, r6
 800049a:	2201      	movs	r2, #1
 800049c:	f44f 6180 	mov.w	r1, #1024	; 0x400
 80004a0:	f001 f8c6 	bl	8001630 <HAL_GPIO_WritePin>
 80004a4:	f44f 6100 	mov.w	r1, #2048	; 0x800
 80004a8:	4630      	mov	r0, r6
 80004aa:	2201      	movs	r2, #1
 80004ac:	f001 f8c0 	bl	8001630 <HAL_GPIO_WritePin>
 80004b0:	f44f 4280 	mov.w	r2, #16384	; 0x4000
 80004b4:	f44f 4616 	mov.w	r6, #38400	; 0x9600
 80004b8:	482f      	ldr	r0, [pc, #188]	; (8000578 <main+0x288>)
 80004ba:	4b30      	ldr	r3, [pc, #192]	; (800057c <main+0x28c>)
 80004bc:	6102      	str	r2, [r0, #16]
 80004be:	4a30      	ldr	r2, [pc, #192]	; (8000580 <main+0x290>)
 80004c0:	e9c0 4402 	strd	r4, r4, [r0, #8]
 80004c4:	e9c0 3200 	strd	r3, r2, [r0]
 80004c8:	e9c0 4405 	strd	r4, r4, [r0, #20]
 80004cc:	e9c0 4407 	strd	r4, r4, [r0, #28]
 80004d0:	f001 fb2a 	bl	8001b28 <HAL_I2C_Init>
 80004d4:	482b      	ldr	r0, [pc, #172]	; (8000584 <main+0x294>)
 80004d6:	4a2c      	ldr	r2, [pc, #176]	; (8000588 <main+0x298>)
 80004d8:	e9c0 5401 	strd	r5, r4, [r0, #4]
 80004dc:	e9c0 4403 	strd	r4, r4, [r0, #12]
 80004e0:	e9c0 7405 	strd	r7, r4, [r0, #20]
 80004e4:	61c4      	str	r4, [r0, #28]
 80004e6:	6002      	str	r2, [r0, #0]
 80004e8:	f002 fa38 	bl	800295c <HAL_UART_Init>
 80004ec:	4827      	ldr	r0, [pc, #156]	; (800058c <main+0x29c>)
 80004ee:	4a28      	ldr	r2, [pc, #160]	; (8000590 <main+0x2a0>)
 80004f0:	e9c0 6401 	strd	r6, r4, [r0, #4]
 80004f4:	e9c0 4403 	strd	r4, r4, [r0, #12]
 80004f8:	e9c0 7405 	strd	r7, r4, [r0, #20]
 80004fc:	61c4      	str	r4, [r0, #28]
 80004fe:	6002      	str	r2, [r0, #0]
 8000500:	f002 fa2c 	bl	800295c <HAL_UART_Init>
 8000504:	4823      	ldr	r0, [pc, #140]	; (8000594 <main+0x2a4>)
 8000506:	4a24      	ldr	r2, [pc, #144]	; (8000598 <main+0x2a8>)
 8000508:	e9c0 5401 	strd	r5, r4, [r0, #4]
 800050c:	e9c0 4403 	strd	r4, r4, [r0, #12]
 8000510:	e9c0 7405 	strd	r7, r4, [r0, #20]
 8000514:	61c4      	str	r4, [r0, #28]
 8000516:	6002      	str	r2, [r0, #0]
 8000518:	f002 fa20 	bl	800295c <HAL_UART_Init>
 800051c:	481f      	ldr	r0, [pc, #124]	; (800059c <main+0x2ac>)
 800051e:	4a20      	ldr	r2, [pc, #128]	; (80005a0 <main+0x2b0>)
 8000520:	e9c0 6401 	strd	r6, r4, [r0, #4]
 8000524:	e9c0 4403 	strd	r4, r4, [r0, #12]
 8000528:	e9c0 7405 	strd	r7, r4, [r0, #20]
 800052c:	61c4      	str	r4, [r0, #28]
 800052e:	6002      	str	r2, [r0, #0]
 8000530:	f002 fa14 	bl	800295c <HAL_UART_Init>
 8000534:	f8db 2000 	ldr.w	r2, [fp]
 8000538:	4621      	mov	r1, r4
 800053a:	6890      	ldr	r0, [r2, #8]
 800053c:	f002 feb8 	bl	80032b0 <setbuf>
 8000540:	f8db 0000 	ldr.w	r0, [fp]
 8000544:	4623      	mov	r3, r4
 8000546:	4652      	mov	r2, sl
 8000548:	4621      	mov	r1, r4
 800054a:	6880      	ldr	r0, [r0, #8]
 800054c:	f002 feb8 	bl	80032c0 <setvbuf>
 8000550:	4814      	ldr	r0, [pc, #80]	; (80005a4 <main+0x2b4>)
 8000552:	f002 fea5 	bl	80032a0 <puts>
 8000556:	f002 fc01 	bl	8002d5c <BootLoaderTask>
 800055a:	4620      	mov	r0, r4
 800055c:	b00b      	add	sp, #44	; 0x2c
 800055e:	e8bd 8ff0 	ldmia.w	sp!, {r4, r5, r6, r7, r8, r9, sl, fp, pc}
 8000562:	bf00      	nop
 8000564:	40021000 	.word	0x40021000
 8000568:	40011000 	.word	0x40011000
 800056c:	40010800 	.word	0x40010800
 8000570:	40010c00 	.word	0x40010c00
 8000574:	2000000c 	.word	0x2000000c
 8000578:	2000008c 	.word	0x2000008c
 800057c:	40005800 	.word	0x40005800
 8000580:	000186a0 	.word	0x000186a0
 8000584:	200000e0 	.word	0x200000e0
 8000588:	40013800 	.word	0x40013800
 800058c:	20000160 	.word	0x20000160
 8000590:	40004800 	.word	0x40004800
 8000594:	20000120 	.word	0x20000120
 8000598:	40004400 	.word	0x40004400
 800059c:	200001a0 	.word	0x200001a0
 80005a0:	40005000 	.word	0x40005000
 80005a4:	08003ed8 	.word	0x08003ed8

080005a8 <HAL_MspInit>:
 80005a8:	4b0e      	ldr	r3, [pc, #56]	; (80005e4 <HAL_MspInit+0x3c>)
 80005aa:	b082      	sub	sp, #8
 80005ac:	699a      	ldr	r2, [r3, #24]
 80005ae:	490e      	ldr	r1, [pc, #56]	; (80005e8 <HAL_MspInit+0x40>)
 80005b0:	f042 0201 	orr.w	r2, r2, #1
 80005b4:	619a      	str	r2, [r3, #24]
 80005b6:	699a      	ldr	r2, [r3, #24]
 80005b8:	f002 0201 	and.w	r2, r2, #1
 80005bc:	9200      	str	r2, [sp, #0]
 80005be:	9a00      	ldr	r2, [sp, #0]
 80005c0:	69da      	ldr	r2, [r3, #28]
 80005c2:	f042 5280 	orr.w	r2, r2, #268435456	; 0x10000000
 80005c6:	61da      	str	r2, [r3, #28]
 80005c8:	69db      	ldr	r3, [r3, #28]
 80005ca:	f003 5380 	and.w	r3, r3, #268435456	; 0x10000000
 80005ce:	9301      	str	r3, [sp, #4]
 80005d0:	9b01      	ldr	r3, [sp, #4]
 80005d2:	684b      	ldr	r3, [r1, #4]
 80005d4:	f023 63e0 	bic.w	r3, r3, #117440512	; 0x7000000
 80005d8:	f043 6380 	orr.w	r3, r3, #67108864	; 0x4000000
 80005dc:	604b      	str	r3, [r1, #4]
 80005de:	b002      	add	sp, #8
 80005e0:	4770      	bx	lr
 80005e2:	bf00      	nop
 80005e4:	40021000 	.word	0x40021000
 80005e8:	40010000 	.word	0x40010000

080005ec <HAL_I2C_MspInit>:
 80005ec:	2300      	movs	r3, #0
 80005ee:	b5d0      	push	{r4, r6, r7, lr}
 80005f0:	4a15      	ldr	r2, [pc, #84]	; (8000648 <HAL_I2C_MspInit+0x5c>)
 80005f2:	6801      	ldr	r1, [r0, #0]
 80005f4:	b086      	sub	sp, #24
 80005f6:	4291      	cmp	r1, r2
 80005f8:	e9cd 3302 	strd	r3, r3, [sp, #8]
 80005fc:	e9cd 3304 	strd	r3, r3, [sp, #16]
 8000600:	d001      	beq.n	8000606 <HAL_I2C_MspInit+0x1a>
 8000602:	b006      	add	sp, #24
 8000604:	bdd0      	pop	{r4, r6, r7, pc}
 8000606:	2203      	movs	r2, #3
 8000608:	f44f 6640 	mov.w	r6, #3072	; 0xc00
 800060c:	2712      	movs	r7, #18
 800060e:	4c0f      	ldr	r4, [pc, #60]	; (800064c <HAL_I2C_MspInit+0x60>)
 8000610:	480f      	ldr	r0, [pc, #60]	; (8000650 <HAL_I2C_MspInit+0x64>)
 8000612:	69a3      	ldr	r3, [r4, #24]
 8000614:	a902      	add	r1, sp, #8
 8000616:	f043 0308 	orr.w	r3, r3, #8
 800061a:	61a3      	str	r3, [r4, #24]
 800061c:	69a3      	ldr	r3, [r4, #24]
 800061e:	e9cd 6702 	strd	r6, r7, [sp, #8]
 8000622:	f003 0308 	and.w	r3, r3, #8
 8000626:	9300      	str	r3, [sp, #0]
 8000628:	9b00      	ldr	r3, [sp, #0]
 800062a:	9205      	str	r2, [sp, #20]
 800062c:	f000 fed8 	bl	80013e0 <HAL_GPIO_Init>
 8000630:	69e3      	ldr	r3, [r4, #28]
 8000632:	f443 0380 	orr.w	r3, r3, #4194304	; 0x400000
 8000636:	61e3      	str	r3, [r4, #28]
 8000638:	69e3      	ldr	r3, [r4, #28]
 800063a:	f403 0380 	and.w	r3, r3, #4194304	; 0x400000
 800063e:	9301      	str	r3, [sp, #4]
 8000640:	9b01      	ldr	r3, [sp, #4]
 8000642:	b006      	add	sp, #24
 8000644:	bdd0      	pop	{r4, r6, r7, pc}
 8000646:	bf00      	nop
 8000648:	40005800 	.word	0x40005800
 800064c:	40021000 	.word	0x40021000
 8000650:	40010c00 	.word	0x40010c00

08000654 <HAL_UART_MspInit>:
 8000654:	b5d0      	push	{r4, r6, r7, lr}
 8000656:	2400      	movs	r4, #0
 8000658:	4a75      	ldr	r2, [pc, #468]	; (8000830 <HAL_UART_MspInit+0x1dc>)
 800065a:	6803      	ldr	r3, [r0, #0]
 800065c:	b08e      	sub	sp, #56	; 0x38
 800065e:	4293      	cmp	r3, r2
 8000660:	e9cd 440a 	strd	r4, r4, [sp, #40]	; 0x28
 8000664:	e9cd 440c 	strd	r4, r4, [sp, #48]	; 0x30
 8000668:	d045      	beq.n	80006f6 <HAL_UART_MspInit+0xa2>
 800066a:	4a72      	ldr	r2, [pc, #456]	; (8000834 <HAL_UART_MspInit+0x1e0>)
 800066c:	4293      	cmp	r3, r2
 800066e:	d07c      	beq.n	800076a <HAL_UART_MspInit+0x116>
 8000670:	4a71      	ldr	r2, [pc, #452]	; (8000838 <HAL_UART_MspInit+0x1e4>)
 8000672:	4293      	cmp	r3, r2
 8000674:	f000 80ab 	beq.w	80007ce <HAL_UART_MspInit+0x17a>
 8000678:	4a70      	ldr	r2, [pc, #448]	; (800083c <HAL_UART_MspInit+0x1e8>)
 800067a:	4293      	cmp	r3, r2
 800067c:	d001      	beq.n	8000682 <HAL_UART_MspInit+0x2e>
 800067e:	b00e      	add	sp, #56	; 0x38
 8000680:	bdd0      	pop	{r4, r6, r7, pc}
 8000682:	4b6f      	ldr	r3, [pc, #444]	; (8000840 <HAL_UART_MspInit+0x1ec>)
 8000684:	f44f 6680 	mov.w	r6, #1024	; 0x400
 8000688:	69da      	ldr	r2, [r3, #28]
 800068a:	2702      	movs	r7, #2
 800068c:	f442 2280 	orr.w	r2, r2, #262144	; 0x40000
 8000690:	61da      	str	r2, [r3, #28]
 8000692:	69da      	ldr	r2, [r3, #28]
 8000694:	a90a      	add	r1, sp, #40	; 0x28
 8000696:	f402 2280 	and.w	r2, r2, #262144	; 0x40000
 800069a:	9208      	str	r2, [sp, #32]
 800069c:	9a08      	ldr	r2, [sp, #32]
 800069e:	699a      	ldr	r2, [r3, #24]
 80006a0:	4868      	ldr	r0, [pc, #416]	; (8000844 <HAL_UART_MspInit+0x1f0>)
 80006a2:	f042 0210 	orr.w	r2, r2, #16
 80006a6:	619a      	str	r2, [r3, #24]
 80006a8:	699b      	ldr	r3, [r3, #24]
 80006aa:	e9cd 670a 	strd	r6, r7, [sp, #40]	; 0x28
 80006ae:	f003 0310 	and.w	r3, r3, #16
 80006b2:	9309      	str	r3, [sp, #36]	; 0x24
 80006b4:	2303      	movs	r3, #3
 80006b6:	9a09      	ldr	r2, [sp, #36]	; 0x24
 80006b8:	930d      	str	r3, [sp, #52]	; 0x34
 80006ba:	f000 fe91 	bl	80013e0 <HAL_GPIO_Init>
 80006be:	f44f 6200 	mov.w	r2, #2048	; 0x800
 80006c2:	2300      	movs	r3, #0
 80006c4:	4e60      	ldr	r6, [pc, #384]	; (8000848 <HAL_UART_MspInit+0x1f4>)
 80006c6:	a90a      	add	r1, sp, #40	; 0x28
 80006c8:	485e      	ldr	r0, [pc, #376]	; (8000844 <HAL_UART_MspInit+0x1f0>)
 80006ca:	e9cd 230a 	strd	r2, r3, [sp, #40]	; 0x28
 80006ce:	940c      	str	r4, [sp, #48]	; 0x30
 80006d0:	f000 fe86 	bl	80013e0 <HAL_GPIO_Init>
 80006d4:	6873      	ldr	r3, [r6, #4]
 80006d6:	2027      	movs	r0, #39	; 0x27
 80006d8:	f023 0330 	bic.w	r3, r3, #48	; 0x30
 80006dc:	f043 63e0 	orr.w	r3, r3, #117440512	; 0x7000000
 80006e0:	f043 0310 	orr.w	r3, r3, #16
 80006e4:	4622      	mov	r2, r4
 80006e6:	4621      	mov	r1, r4
 80006e8:	6073      	str	r3, [r6, #4]
 80006ea:	f000 f9d1 	bl	8000a90 <HAL_NVIC_SetPriority>
 80006ee:	2027      	movs	r0, #39	; 0x27
 80006f0:	f000 fa0c 	bl	8000b0c <HAL_NVIC_EnableIRQ>
 80006f4:	e7c3      	b.n	800067e <HAL_UART_MspInit+0x2a>
 80006f6:	4b52      	ldr	r3, [pc, #328]	; (8000840 <HAL_UART_MspInit+0x1ec>)
 80006f8:	f44f 5680 	mov.w	r6, #4096	; 0x1000
 80006fc:	69da      	ldr	r2, [r3, #28]
 80006fe:	2702      	movs	r7, #2
 8000700:	f442 1280 	orr.w	r2, r2, #1048576	; 0x100000
 8000704:	61da      	str	r2, [r3, #28]
 8000706:	69da      	ldr	r2, [r3, #28]
 8000708:	a90a      	add	r1, sp, #40	; 0x28
 800070a:	f402 1280 	and.w	r2, r2, #1048576	; 0x100000
 800070e:	9201      	str	r2, [sp, #4]
 8000710:	9a01      	ldr	r2, [sp, #4]
 8000712:	699a      	ldr	r2, [r3, #24]
 8000714:	484b      	ldr	r0, [pc, #300]	; (8000844 <HAL_UART_MspInit+0x1f0>)
 8000716:	f042 0210 	orr.w	r2, r2, #16
 800071a:	619a      	str	r2, [r3, #24]
 800071c:	699a      	ldr	r2, [r3, #24]
 800071e:	f002 0210 	and.w	r2, r2, #16
 8000722:	9202      	str	r2, [sp, #8]
 8000724:	9a02      	ldr	r2, [sp, #8]
 8000726:	699a      	ldr	r2, [r3, #24]
 8000728:	f042 0220 	orr.w	r2, r2, #32
 800072c:	619a      	str	r2, [r3, #24]
 800072e:	699b      	ldr	r3, [r3, #24]
 8000730:	e9cd 670a 	strd	r6, r7, [sp, #40]	; 0x28
 8000734:	f003 0320 	and.w	r3, r3, #32
 8000738:	9303      	str	r3, [sp, #12]
 800073a:	2303      	movs	r3, #3
 800073c:	9a03      	ldr	r2, [sp, #12]
 800073e:	930d      	str	r3, [sp, #52]	; 0x34
 8000740:	f000 fe4e 	bl	80013e0 <HAL_GPIO_Init>
 8000744:	2300      	movs	r3, #0
 8000746:	2204      	movs	r2, #4
 8000748:	a90a      	add	r1, sp, #40	; 0x28
 800074a:	4840      	ldr	r0, [pc, #256]	; (800084c <HAL_UART_MspInit+0x1f8>)
 800074c:	e9cd 230a 	strd	r2, r3, [sp, #40]	; 0x28
 8000750:	940c      	str	r4, [sp, #48]	; 0x30
 8000752:	f000 fe45 	bl	80013e0 <HAL_GPIO_Init>
 8000756:	4622      	mov	r2, r4
 8000758:	4621      	mov	r1, r4
 800075a:	2035      	movs	r0, #53	; 0x35
 800075c:	f000 f998 	bl	8000a90 <HAL_NVIC_SetPriority>
 8000760:	2035      	movs	r0, #53	; 0x35
 8000762:	f000 f9d3 	bl	8000b0c <HAL_NVIC_EnableIRQ>
 8000766:	b00e      	add	sp, #56	; 0x38
 8000768:	bdd0      	pop	{r4, r6, r7, pc}
 800076a:	4b35      	ldr	r3, [pc, #212]	; (8000840 <HAL_UART_MspInit+0x1ec>)
 800076c:	f44f 7600 	mov.w	r6, #512	; 0x200
 8000770:	699a      	ldr	r2, [r3, #24]
 8000772:	2702      	movs	r7, #2
 8000774:	f442 4280 	orr.w	r2, r2, #16384	; 0x4000
 8000778:	619a      	str	r2, [r3, #24]
 800077a:	699a      	ldr	r2, [r3, #24]
 800077c:	a90a      	add	r1, sp, #40	; 0x28
 800077e:	f402 4280 	and.w	r2, r2, #16384	; 0x4000
 8000782:	9204      	str	r2, [sp, #16]
 8000784:	9a04      	ldr	r2, [sp, #16]
 8000786:	699a      	ldr	r2, [r3, #24]
 8000788:	4831      	ldr	r0, [pc, #196]	; (8000850 <HAL_UART_MspInit+0x1fc>)
 800078a:	f042 0204 	orr.w	r2, r2, #4
 800078e:	619a      	str	r2, [r3, #24]
 8000790:	699b      	ldr	r3, [r3, #24]
 8000792:	e9cd 670a 	strd	r6, r7, [sp, #40]	; 0x28
 8000796:	f003 0304 	and.w	r3, r3, #4
 800079a:	9305      	str	r3, [sp, #20]
 800079c:	2303      	movs	r3, #3
 800079e:	9a05      	ldr	r2, [sp, #20]
 80007a0:	930d      	str	r3, [sp, #52]	; 0x34
 80007a2:	f000 fe1d 	bl	80013e0 <HAL_GPIO_Init>
 80007a6:	2300      	movs	r3, #0
 80007a8:	f44f 6280 	mov.w	r2, #1024	; 0x400
 80007ac:	a90a      	add	r1, sp, #40	; 0x28
 80007ae:	4828      	ldr	r0, [pc, #160]	; (8000850 <HAL_UART_MspInit+0x1fc>)
 80007b0:	e9cd 230a 	strd	r2, r3, [sp, #40]	; 0x28
 80007b4:	940c      	str	r4, [sp, #48]	; 0x30
 80007b6:	f000 fe13 	bl	80013e0 <HAL_GPIO_Init>
 80007ba:	4622      	mov	r2, r4
 80007bc:	4621      	mov	r1, r4
 80007be:	2025      	movs	r0, #37	; 0x25
 80007c0:	f000 f966 	bl	8000a90 <HAL_NVIC_SetPriority>
 80007c4:	2025      	movs	r0, #37	; 0x25
 80007c6:	f000 f9a1 	bl	8000b0c <HAL_NVIC_EnableIRQ>
 80007ca:	b00e      	add	sp, #56	; 0x38
 80007cc:	bdd0      	pop	{r4, r6, r7, pc}
 80007ce:	4b1c      	ldr	r3, [pc, #112]	; (8000840 <HAL_UART_MspInit+0x1ec>)
 80007d0:	2604      	movs	r6, #4
 80007d2:	69da      	ldr	r2, [r3, #28]
 80007d4:	2702      	movs	r7, #2
 80007d6:	f442 3200 	orr.w	r2, r2, #131072	; 0x20000
 80007da:	61da      	str	r2, [r3, #28]
 80007dc:	69da      	ldr	r2, [r3, #28]
 80007de:	a90a      	add	r1, sp, #40	; 0x28
 80007e0:	f402 3200 	and.w	r2, r2, #131072	; 0x20000
 80007e4:	9206      	str	r2, [sp, #24]
 80007e6:	9a06      	ldr	r2, [sp, #24]
 80007e8:	699a      	ldr	r2, [r3, #24]
 80007ea:	4819      	ldr	r0, [pc, #100]	; (8000850 <HAL_UART_MspInit+0x1fc>)
 80007ec:	f042 0204 	orr.w	r2, r2, #4
 80007f0:	619a      	str	r2, [r3, #24]
 80007f2:	699b      	ldr	r3, [r3, #24]
 80007f4:	e9cd 670a 	strd	r6, r7, [sp, #40]	; 0x28
 80007f8:	f003 0304 	and.w	r3, r3, #4
 80007fc:	9307      	str	r3, [sp, #28]
 80007fe:	2303      	movs	r3, #3
 8000800:	9a07      	ldr	r2, [sp, #28]
 8000802:	930d      	str	r3, [sp, #52]	; 0x34
 8000804:	f000 fdec 	bl	80013e0 <HAL_GPIO_Init>
 8000808:	2300      	movs	r3, #0
 800080a:	2208      	movs	r2, #8
 800080c:	a90a      	add	r1, sp, #40	; 0x28
 800080e:	4810      	ldr	r0, [pc, #64]	; (8000850 <HAL_UART_MspInit+0x1fc>)
 8000810:	e9cd 230a 	strd	r2, r3, [sp, #40]	; 0x28
 8000814:	940c      	str	r4, [sp, #48]	; 0x30
 8000816:	f000 fde3 	bl	80013e0 <HAL_GPIO_Init>
 800081a:	4622      	mov	r2, r4
 800081c:	4621      	mov	r1, r4
 800081e:	2026      	movs	r0, #38	; 0x26
 8000820:	f000 f936 	bl	8000a90 <HAL_NVIC_SetPriority>
 8000824:	2026      	movs	r0, #38	; 0x26
 8000826:	f000 f971 	bl	8000b0c <HAL_NVIC_EnableIRQ>
 800082a:	b00e      	add	sp, #56	; 0x38
 800082c:	bdd0      	pop	{r4, r6, r7, pc}
 800082e:	bf00      	nop
 8000830:	40005000 	.word	0x40005000
 8000834:	40013800 	.word	0x40013800
 8000838:	40004400 	.word	0x40004400
 800083c:	40004800 	.word	0x40004800
 8000840:	40021000 	.word	0x40021000
 8000844:	40011000 	.word	0x40011000
 8000848:	40010000 	.word	0x40010000
 800084c:	40011400 	.word	0x40011400
 8000850:	40010800 	.word	0x40010800

08000854 <NMI_Handler>:
 8000854:	4770      	bx	lr
 8000856:	bf00      	nop

08000858 <HardFault_Handler>:
 8000858:	e7fe      	b.n	8000858 <HardFault_Handler>
 800085a:	bf00      	nop

0800085c <MemManage_Handler>:
 800085c:	e7fe      	b.n	800085c <MemManage_Handler>
 800085e:	bf00      	nop

08000860 <BusFault_Handler>:
 8000860:	e7fe      	b.n	8000860 <BusFault_Handler>
 8000862:	bf00      	nop

08000864 <UsageFault_Handler>:
 8000864:	e7fe      	b.n	8000864 <UsageFault_Handler>
 8000866:	bf00      	nop

08000868 <SVC_Handler>:
 8000868:	4770      	bx	lr
 800086a:	bf00      	nop

0800086c <DebugMon_Handler>:
 800086c:	4770      	bx	lr
 800086e:	bf00      	nop

08000870 <PendSV_Handler>:
 8000870:	4770      	bx	lr
 8000872:	bf00      	nop

08000874 <SysTick_Handler>:
 8000874:	f000 b8d6 	b.w	8000a24 <HAL_IncTick>

08000878 <USART1_IRQHandler>:
 8000878:	4801      	ldr	r0, [pc, #4]	; (8000880 <USART1_IRQHandler+0x8>)
 800087a:	f002 b9ab 	b.w	8002bd4 <HAL_UART_IRQHandler>
 800087e:	bf00      	nop
 8000880:	200000e0 	.word	0x200000e0

08000884 <USART2_IRQHandler>:
 8000884:	4801      	ldr	r0, [pc, #4]	; (800088c <USART2_IRQHandler+0x8>)
 8000886:	f002 b9a5 	b.w	8002bd4 <HAL_UART_IRQHandler>
 800088a:	bf00      	nop
 800088c:	20000120 	.word	0x20000120

08000890 <USART3_IRQHandler>:
 8000890:	4801      	ldr	r0, [pc, #4]	; (8000898 <USART3_IRQHandler+0x8>)
 8000892:	f002 b99f 	b.w	8002bd4 <HAL_UART_IRQHandler>
 8000896:	bf00      	nop
 8000898:	20000160 	.word	0x20000160

0800089c <UART5_IRQHandler>:
 800089c:	4801      	ldr	r0, [pc, #4]	; (80008a4 <UART5_IRQHandler+0x8>)
 800089e:	f002 b999 	b.w	8002bd4 <HAL_UART_IRQHandler>
 80008a2:	bf00      	nop
 80008a4:	200001a0 	.word	0x200001a0

080008a8 <_read>:
 80008a8:	b570      	push	{r4, r5, r6, lr}
 80008aa:	1e16      	subs	r6, r2, #0
 80008ac:	dd07      	ble.n	80008be <_read+0x16>
 80008ae:	460c      	mov	r4, r1
 80008b0:	198d      	adds	r5, r1, r6
 80008b2:	f3af 8000 	nop.w
 80008b6:	f804 0b01 	strb.w	r0, [r4], #1
 80008ba:	42a5      	cmp	r5, r4
 80008bc:	d1f9      	bne.n	80008b2 <_read+0xa>
 80008be:	4630      	mov	r0, r6
 80008c0:	bd70      	pop	{r4, r5, r6, pc}
 80008c2:	bf00      	nop

080008c4 <_write>:
 80008c4:	b570      	push	{r4, r5, r6, lr}
 80008c6:	1e16      	subs	r6, r2, #0
 80008c8:	dd07      	ble.n	80008da <_write+0x16>
 80008ca:	460c      	mov	r4, r1
 80008cc:	198d      	adds	r5, r1, r6
 80008ce:	f814 0b01 	ldrb.w	r0, [r4], #1
 80008d2:	f7ff fca7 	bl	8000224 <__io_putchar>
 80008d6:	42ac      	cmp	r4, r5
 80008d8:	d1f9      	bne.n	80008ce <_write+0xa>
 80008da:	4630      	mov	r0, r6
 80008dc:	bd70      	pop	{r4, r5, r6, pc}
 80008de:	bf00      	nop

080008e0 <_close>:
 80008e0:	f04f 30ff 	mov.w	r0, #4294967295
 80008e4:	4770      	bx	lr
 80008e6:	bf00      	nop

080008e8 <_fstat>:
 80008e8:	f44f 5300 	mov.w	r3, #8192	; 0x2000
 80008ec:	2000      	movs	r0, #0
 80008ee:	604b      	str	r3, [r1, #4]
 80008f0:	4770      	bx	lr
 80008f2:	bf00      	nop

080008f4 <_isatty>:
 80008f4:	2001      	movs	r0, #1
 80008f6:	4770      	bx	lr

080008f8 <_lseek>:
 80008f8:	2000      	movs	r0, #0
 80008fa:	4770      	bx	lr

080008fc <_sbrk>:
 80008fc:	4a0c      	ldr	r2, [pc, #48]	; (8000930 <_sbrk+0x34>)
 80008fe:	b508      	push	{r3, lr}
 8000900:	4603      	mov	r3, r0
 8000902:	6810      	ldr	r0, [r2, #0]
 8000904:	b128      	cbz	r0, 8000912 <_sbrk+0x16>
 8000906:	4669      	mov	r1, sp
 8000908:	4403      	add	r3, r0
 800090a:	428b      	cmp	r3, r1
 800090c:	d808      	bhi.n	8000920 <_sbrk+0x24>
 800090e:	6013      	str	r3, [r2, #0]
 8000910:	bd08      	pop	{r3, pc}
 8000912:	4908      	ldr	r1, [pc, #32]	; (8000934 <_sbrk+0x38>)
 8000914:	4608      	mov	r0, r1
 8000916:	6011      	str	r1, [r2, #0]
 8000918:	4669      	mov	r1, sp
 800091a:	4403      	add	r3, r0
 800091c:	428b      	cmp	r3, r1
 800091e:	d9f6      	bls.n	800090e <_sbrk+0x12>
 8000920:	f002 fbfc 	bl	800311c <__errno>
 8000924:	220c      	movs	r2, #12
 8000926:	4603      	mov	r3, r0
 8000928:	f04f 30ff 	mov.w	r0, #4294967295
 800092c:	601a      	str	r2, [r3, #0]
 800092e:	bd08      	pop	{r3, pc}
 8000930:	200001e0 	.word	0x200001e0
 8000934:	20000220 	.word	0x20000220

08000938 <SystemInit>:
 8000938:	f04f 6200 	mov.w	r2, #134217728	; 0x8000000
 800093c:	4b01      	ldr	r3, [pc, #4]	; (8000944 <SystemInit+0xc>)
 800093e:	609a      	str	r2, [r3, #8]
 8000940:	4770      	bx	lr
 8000942:	bf00      	nop
 8000944:	e000ed00 	.word	0xe000ed00

08000948 <Reset_Handler>:
 8000948:	2100      	movs	r1, #0
 800094a:	e003      	b.n	8000954 <LoopCopyDataInit>

0800094c <CopyDataInit>:
 800094c:	4b0b      	ldr	r3, [pc, #44]	; (800097c <LoopFillZerobss+0x14>)
 800094e:	585b      	ldr	r3, [r3, r1]
 8000950:	5043      	str	r3, [r0, r1]
 8000952:	3104      	adds	r1, #4

08000954 <LoopCopyDataInit>:
 8000954:	480a      	ldr	r0, [pc, #40]	; (8000980 <LoopFillZerobss+0x18>)
 8000956:	4b0b      	ldr	r3, [pc, #44]	; (8000984 <LoopFillZerobss+0x1c>)
 8000958:	1842      	adds	r2, r0, r1
 800095a:	429a      	cmp	r2, r3
 800095c:	d3f6      	bcc.n	800094c <CopyDataInit>
 800095e:	4a0a      	ldr	r2, [pc, #40]	; (8000988 <LoopFillZerobss+0x20>)
 8000960:	e002      	b.n	8000968 <LoopFillZerobss>

08000962 <FillZerobss>:
 8000962:	2300      	movs	r3, #0
 8000964:	f842 3b04 	str.w	r3, [r2], #4

08000968 <LoopFillZerobss>:
 8000968:	4b08      	ldr	r3, [pc, #32]	; (800098c <LoopFillZerobss+0x24>)
 800096a:	429a      	cmp	r2, r3
 800096c:	d3f9      	bcc.n	8000962 <FillZerobss>
 800096e:	f7ff ffe3 	bl	8000938 <SystemInit>
 8000972:	f002 fbd9 	bl	8003128 <__libc_init_array>
 8000976:	f7ff fcbb 	bl	80002f0 <main>
 800097a:	4770      	bx	lr
 800097c:	08003f68 	.word	0x08003f68
 8000980:	20000000 	.word	0x20000000
 8000984:	20000070 	.word	0x20000070
 8000988:	20000070 	.word	0x20000070
 800098c:	20000220 	.word	0x20000220

08000990 <ADC1_2_IRQHandler>:
 8000990:	e7fe      	b.n	8000990 <ADC1_2_IRQHandler>
	...

08000994 <HAL_MspDeInit>:
 8000994:	4770      	bx	lr
 8000996:	bf00      	nop

08000998 <HAL_DeInit>:
 8000998:	b510      	push	{r4, lr}
 800099a:	f04f 32ff 	mov.w	r2, #4294967295
 800099e:	2400      	movs	r4, #0
 80009a0:	4b04      	ldr	r3, [pc, #16]	; (80009b4 <HAL_DeInit+0x1c>)
 80009a2:	60da      	str	r2, [r3, #12]
 80009a4:	611c      	str	r4, [r3, #16]
 80009a6:	60da      	str	r2, [r3, #12]
 80009a8:	60dc      	str	r4, [r3, #12]
 80009aa:	f7ff fff3 	bl	8000994 <HAL_MspDeInit>
 80009ae:	4620      	mov	r0, r4
 80009b0:	bd10      	pop	{r4, pc}
 80009b2:	bf00      	nop
 80009b4:	40021000 	.word	0x40021000

080009b8 <HAL_InitTick>:
 80009b8:	b538      	push	{r3, r4, r5, lr}
 80009ba:	f44f 737a 	mov.w	r3, #1000	; 0x3e8
 80009be:	4a0d      	ldr	r2, [pc, #52]	; (80009f4 <HAL_InitTick+0x3c>)
 80009c0:	4605      	mov	r5, r0
 80009c2:	7811      	ldrb	r1, [r2, #0]
 80009c4:	4a0c      	ldr	r2, [pc, #48]	; (80009f8 <HAL_InitTick+0x40>)
 80009c6:	fbb3 f3f1 	udiv	r3, r3, r1
 80009ca:	6812      	ldr	r2, [r2, #0]
 80009cc:	fbb2 f0f3 	udiv	r0, r2, r3
 80009d0:	f000 f8aa 	bl	8000b28 <HAL_SYSTICK_Config>
 80009d4:	b908      	cbnz	r0, 80009da <HAL_InitTick+0x22>
 80009d6:	2d0f      	cmp	r5, #15
 80009d8:	d901      	bls.n	80009de <HAL_InitTick+0x26>
 80009da:	2001      	movs	r0, #1
 80009dc:	bd38      	pop	{r3, r4, r5, pc}
 80009de:	4604      	mov	r4, r0
 80009e0:	4602      	mov	r2, r0
 80009e2:	4629      	mov	r1, r5
 80009e4:	f04f 30ff 	mov.w	r0, #4294967295
 80009e8:	f000 f852 	bl	8000a90 <HAL_NVIC_SetPriority>
 80009ec:	4b03      	ldr	r3, [pc, #12]	; (80009fc <HAL_InitTick+0x44>)
 80009ee:	4620      	mov	r0, r4
 80009f0:	601d      	str	r5, [r3, #0]
 80009f2:	bd38      	pop	{r3, r4, r5, pc}
 80009f4:	20000004 	.word	0x20000004
 80009f8:	20000000 	.word	0x20000000
 80009fc:	20000008 	.word	0x20000008

08000a00 <HAL_Init>:
 8000a00:	4a07      	ldr	r2, [pc, #28]	; (8000a20 <HAL_Init+0x20>)
 8000a02:	b508      	push	{r3, lr}
 8000a04:	6813      	ldr	r3, [r2, #0]
 8000a06:	2003      	movs	r0, #3
 8000a08:	f043 0310 	orr.w	r3, r3, #16
 8000a0c:	6013      	str	r3, [r2, #0]
 8000a0e:	f000 f82d 	bl	8000a6c <HAL_NVIC_SetPriorityGrouping>
 8000a12:	2000      	movs	r0, #0
 8000a14:	f7ff ffd0 	bl	80009b8 <HAL_InitTick>
 8000a18:	f7ff fdc6 	bl	80005a8 <HAL_MspInit>
 8000a1c:	2000      	movs	r0, #0
 8000a1e:	bd08      	pop	{r3, pc}
 8000a20:	40022000 	.word	0x40022000

08000a24 <HAL_IncTick>:
 8000a24:	4a03      	ldr	r2, [pc, #12]	; (8000a34 <HAL_IncTick+0x10>)
 8000a26:	4b04      	ldr	r3, [pc, #16]	; (8000a38 <HAL_IncTick+0x14>)
 8000a28:	6811      	ldr	r1, [r2, #0]
 8000a2a:	781b      	ldrb	r3, [r3, #0]
 8000a2c:	440b      	add	r3, r1
 8000a2e:	6013      	str	r3, [r2, #0]
 8000a30:	4770      	bx	lr
 8000a32:	bf00      	nop
 8000a34:	200001e4 	.word	0x200001e4
 8000a38:	20000004 	.word	0x20000004

08000a3c <HAL_GetTick>:
 8000a3c:	4b01      	ldr	r3, [pc, #4]	; (8000a44 <HAL_GetTick+0x8>)
 8000a3e:	6818      	ldr	r0, [r3, #0]
 8000a40:	4770      	bx	lr
 8000a42:	bf00      	nop
 8000a44:	200001e4 	.word	0x200001e4

08000a48 <HAL_Delay>:
 8000a48:	b538      	push	{r3, r4, r5, lr}
 8000a4a:	4604      	mov	r4, r0
 8000a4c:	f7ff fff6 	bl	8000a3c <HAL_GetTick>
 8000a50:	1c63      	adds	r3, r4, #1
 8000a52:	4605      	mov	r5, r0
 8000a54:	d002      	beq.n	8000a5c <HAL_Delay+0x14>
 8000a56:	4b04      	ldr	r3, [pc, #16]	; (8000a68 <HAL_Delay+0x20>)
 8000a58:	781b      	ldrb	r3, [r3, #0]
 8000a5a:	441c      	add	r4, r3
 8000a5c:	f7ff ffee 	bl	8000a3c <HAL_GetTick>
 8000a60:	1b40      	subs	r0, r0, r5
 8000a62:	42a0      	cmp	r0, r4
 8000a64:	d3fa      	bcc.n	8000a5c <HAL_Delay+0x14>
 8000a66:	bd38      	pop	{r3, r4, r5, pc}
 8000a68:	20000004 	.word	0x20000004

08000a6c <HAL_NVIC_SetPriorityGrouping>:
 8000a6c:	f64f 0cff 	movw	ip, #63743	; 0xf8ff
 8000a70:	4906      	ldr	r1, [pc, #24]	; (8000a8c <HAL_NVIC_SetPriorityGrouping+0x20>)
 8000a72:	0203      	lsls	r3, r0, #8
 8000a74:	68ca      	ldr	r2, [r1, #12]
 8000a76:	f403 63e0 	and.w	r3, r3, #1792	; 0x700
 8000a7a:	ea02 020c 	and.w	r2, r2, ip
 8000a7e:	4313      	orrs	r3, r2
 8000a80:	f043 63bf 	orr.w	r3, r3, #100139008	; 0x5f80000
 8000a84:	f443 3300 	orr.w	r3, r3, #131072	; 0x20000
 8000a88:	60cb      	str	r3, [r1, #12]
 8000a8a:	4770      	bx	lr
 8000a8c:	e000ed00 	.word	0xe000ed00

08000a90 <HAL_NVIC_SetPriority>:
 8000a90:	4b1c      	ldr	r3, [pc, #112]	; (8000b04 <HAL_NVIC_SetPriority+0x74>)
 8000a92:	b500      	push	{lr}
 8000a94:	68db      	ldr	r3, [r3, #12]
 8000a96:	f3c3 2302 	ubfx	r3, r3, #8, #3
 8000a9a:	f1c3 0e07 	rsb	lr, r3, #7
 8000a9e:	f1be 0f04 	cmp.w	lr, #4
 8000aa2:	f103 0c04 	add.w	ip, r3, #4
 8000aa6:	bf28      	it	cs
 8000aa8:	f04f 0e04 	movcs.w	lr, #4
 8000aac:	f1bc 0f06 	cmp.w	ip, #6
 8000ab0:	d91b      	bls.n	8000aea <HAL_NVIC_SetPriority+0x5a>
 8000ab2:	f04f 3cff 	mov.w	ip, #4294967295
 8000ab6:	3b03      	subs	r3, #3
 8000ab8:	fa0c fc03 	lsl.w	ip, ip, r3
 8000abc:	ea22 020c 	bic.w	r2, r2, ip
 8000ac0:	f04f 3cff 	mov.w	ip, #4294967295
 8000ac4:	fa0c fc0e 	lsl.w	ip, ip, lr
 8000ac8:	ea21 010c 	bic.w	r1, r1, ip
 8000acc:	4099      	lsls	r1, r3
 8000ace:	2800      	cmp	r0, #0
 8000ad0:	ea41 0102 	orr.w	r1, r1, r2
 8000ad4:	db0c      	blt.n	8000af0 <HAL_NVIC_SetPriority+0x60>
 8000ad6:	0109      	lsls	r1, r1, #4
 8000ad8:	f100 4060 	add.w	r0, r0, #3758096384	; 0xe0000000
 8000adc:	b2c9      	uxtb	r1, r1
 8000ade:	f500 4061 	add.w	r0, r0, #57600	; 0xe100
 8000ae2:	f880 1300 	strb.w	r1, [r0, #768]	; 0x300
 8000ae6:	f85d fb04 	ldr.w	pc, [sp], #4
 8000aea:	2200      	movs	r2, #0
 8000aec:	4613      	mov	r3, r2
 8000aee:	e7e7      	b.n	8000ac0 <HAL_NVIC_SetPriority+0x30>
 8000af0:	4b05      	ldr	r3, [pc, #20]	; (8000b08 <HAL_NVIC_SetPriority+0x78>)
 8000af2:	f000 000f 	and.w	r0, r0, #15
 8000af6:	0109      	lsls	r1, r1, #4
 8000af8:	b2c9      	uxtb	r1, r1
 8000afa:	4403      	add	r3, r0
 8000afc:	7619      	strb	r1, [r3, #24]
 8000afe:	f85d fb04 	ldr.w	pc, [sp], #4
 8000b02:	bf00      	nop
 8000b04:	e000ed00 	.word	0xe000ed00
 8000b08:	e000ecfc 	.word	0xe000ecfc

08000b0c <HAL_NVIC_EnableIRQ>:
 8000b0c:	2800      	cmp	r0, #0
 8000b0e:	db07      	blt.n	8000b20 <HAL_NVIC_EnableIRQ+0x14>
 8000b10:	2301      	movs	r3, #1
 8000b12:	f000 011f 	and.w	r1, r0, #31
 8000b16:	4a03      	ldr	r2, [pc, #12]	; (8000b24 <HAL_NVIC_EnableIRQ+0x18>)
 8000b18:	0940      	lsrs	r0, r0, #5
 8000b1a:	408b      	lsls	r3, r1
 8000b1c:	f842 3020 	str.w	r3, [r2, r0, lsl #2]
 8000b20:	4770      	bx	lr
 8000b22:	bf00      	nop
 8000b24:	e000e100 	.word	0xe000e100

08000b28 <HAL_SYSTICK_Config>:
 8000b28:	3801      	subs	r0, #1
 8000b2a:	f1b0 7f80 	cmp.w	r0, #16777216	; 0x1000000
 8000b2e:	d20f      	bcs.n	8000b50 <HAL_SYSTICK_Config+0x28>
 8000b30:	f04f 23e0 	mov.w	r3, #3758153728	; 0xe000e000
 8000b34:	f04f 0cf0 	mov.w	ip, #240	; 0xf0
 8000b38:	2200      	movs	r2, #0
 8000b3a:	2107      	movs	r1, #7
 8000b3c:	b410      	push	{r4}
 8000b3e:	4c05      	ldr	r4, [pc, #20]	; (8000b54 <HAL_SYSTICK_Config+0x2c>)
 8000b40:	6158      	str	r0, [r3, #20]
 8000b42:	f884 c023 	strb.w	ip, [r4, #35]	; 0x23
 8000b46:	4610      	mov	r0, r2
 8000b48:	619a      	str	r2, [r3, #24]
 8000b4a:	bc10      	pop	{r4}
 8000b4c:	6119      	str	r1, [r3, #16]
 8000b4e:	4770      	bx	lr
 8000b50:	2001      	movs	r0, #1
 8000b52:	4770      	bx	lr
 8000b54:	e000ed00 	.word	0xe000ed00

08000b58 <HAL_SYSTICK_CLKSourceConfig>:
 8000b58:	f04f 22e0 	mov.w	r2, #3758153728	; 0xe000e000
 8000b5c:	6913      	ldr	r3, [r2, #16]
 8000b5e:	2804      	cmp	r0, #4
 8000b60:	bf0c      	ite	eq
 8000b62:	f043 0304 	orreq.w	r3, r3, #4
 8000b66:	f023 0304 	bicne.w	r3, r3, #4
 8000b6a:	6113      	str	r3, [r2, #16]
 8000b6c:	4770      	bx	lr
 8000b6e:	bf00      	nop

08000b70 <HAL_DMA_Abort_IT>:
 8000b70:	b508      	push	{r3, lr}
 8000b72:	f890 2021 	ldrb.w	r2, [r0, #33]	; 0x21
 8000b76:	4603      	mov	r3, r0
 8000b78:	2a02      	cmp	r2, #2
 8000b7a:	d003      	beq.n	8000b84 <HAL_DMA_Abort_IT+0x14>
 8000b7c:	2204      	movs	r2, #4
 8000b7e:	2001      	movs	r0, #1
 8000b80:	639a      	str	r2, [r3, #56]	; 0x38
 8000b82:	bd08      	pop	{r3, pc}
 8000b84:	6802      	ldr	r2, [r0, #0]
 8000b86:	4845      	ldr	r0, [pc, #276]	; (8000c9c <HAL_DMA_Abort_IT+0x12c>)
 8000b88:	6811      	ldr	r1, [r2, #0]
 8000b8a:	4282      	cmp	r2, r0
 8000b8c:	f021 010e 	bic.w	r1, r1, #14
 8000b90:	6011      	str	r1, [r2, #0]
 8000b92:	6811      	ldr	r1, [r2, #0]
 8000b94:	f021 0101 	bic.w	r1, r1, #1
 8000b98:	6011      	str	r1, [r2, #0]
 8000b9a:	4941      	ldr	r1, [pc, #260]	; (8000ca0 <HAL_DMA_Abort_IT+0x130>)
 8000b9c:	d924      	bls.n	8000be8 <HAL_DMA_Abort_IT+0x78>
 8000b9e:	428a      	cmp	r2, r1
 8000ba0:	d055      	beq.n	8000c4e <HAL_DMA_Abort_IT+0xde>
 8000ba2:	3114      	adds	r1, #20
 8000ba4:	428a      	cmp	r2, r1
 8000ba6:	d05e      	beq.n	8000c66 <HAL_DMA_Abort_IT+0xf6>
 8000ba8:	3114      	adds	r1, #20
 8000baa:	428a      	cmp	r2, r1
 8000bac:	d05d      	beq.n	8000c6a <HAL_DMA_Abort_IT+0xfa>
 8000bae:	3114      	adds	r1, #20
 8000bb0:	428a      	cmp	r2, r1
 8000bb2:	d053      	beq.n	8000c5c <HAL_DMA_Abort_IT+0xec>
 8000bb4:	3114      	adds	r1, #20
 8000bb6:	428a      	cmp	r2, r1
 8000bb8:	d060      	beq.n	8000c7c <HAL_DMA_Abort_IT+0x10c>
 8000bba:	3114      	adds	r1, #20
 8000bbc:	428a      	cmp	r2, r1
 8000bbe:	d063      	beq.n	8000c88 <HAL_DMA_Abort_IT+0x118>
 8000bc0:	4282      	cmp	r2, r0
 8000bc2:	d067      	beq.n	8000c94 <HAL_DMA_Abort_IT+0x124>
 8000bc4:	f501 7167 	add.w	r1, r1, #924	; 0x39c
 8000bc8:	428a      	cmp	r2, r1
 8000bca:	d040      	beq.n	8000c4e <HAL_DMA_Abort_IT+0xde>
 8000bcc:	3114      	adds	r1, #20
 8000bce:	428a      	cmp	r2, r1
 8000bd0:	d049      	beq.n	8000c66 <HAL_DMA_Abort_IT+0xf6>
 8000bd2:	3114      	adds	r1, #20
 8000bd4:	428a      	cmp	r2, r1
 8000bd6:	d048      	beq.n	8000c6a <HAL_DMA_Abort_IT+0xfa>
 8000bd8:	3114      	adds	r1, #20
 8000bda:	428a      	cmp	r2, r1
 8000bdc:	bf14      	ite	ne
 8000bde:	f44f 3280 	movne.w	r2, #65536	; 0x10000
 8000be2:	f44f 5280 	moveq.w	r2, #4096	; 0x1000
 8000be6:	e033      	b.n	8000c50 <HAL_DMA_Abort_IT+0xe0>
 8000be8:	428a      	cmp	r2, r1
 8000bea:	d022      	beq.n	8000c32 <HAL_DMA_Abort_IT+0xc2>
 8000bec:	3114      	adds	r1, #20
 8000bee:	428a      	cmp	r2, r1
 8000bf0:	d037      	beq.n	8000c62 <HAL_DMA_Abort_IT+0xf2>
 8000bf2:	3114      	adds	r1, #20
 8000bf4:	428a      	cmp	r2, r1
 8000bf6:	d03b      	beq.n	8000c70 <HAL_DMA_Abort_IT+0x100>
 8000bf8:	3114      	adds	r1, #20
 8000bfa:	428a      	cmp	r2, r1
 8000bfc:	d02b      	beq.n	8000c56 <HAL_DMA_Abort_IT+0xe6>
 8000bfe:	3114      	adds	r1, #20
 8000c00:	428a      	cmp	r2, r1
 8000c02:	d038      	beq.n	8000c76 <HAL_DMA_Abort_IT+0x106>
 8000c04:	3114      	adds	r1, #20
 8000c06:	428a      	cmp	r2, r1
 8000c08:	d03b      	beq.n	8000c82 <HAL_DMA_Abort_IT+0x112>
 8000c0a:	4282      	cmp	r2, r0
 8000c0c:	d03f      	beq.n	8000c8e <HAL_DMA_Abort_IT+0x11e>
 8000c0e:	f501 7167 	add.w	r1, r1, #924	; 0x39c
 8000c12:	428a      	cmp	r2, r1
 8000c14:	d00d      	beq.n	8000c32 <HAL_DMA_Abort_IT+0xc2>
 8000c16:	3114      	adds	r1, #20
 8000c18:	428a      	cmp	r2, r1
 8000c1a:	d022      	beq.n	8000c62 <HAL_DMA_Abort_IT+0xf2>
 8000c1c:	3114      	adds	r1, #20
 8000c1e:	428a      	cmp	r2, r1
 8000c20:	d026      	beq.n	8000c70 <HAL_DMA_Abort_IT+0x100>
 8000c22:	3114      	adds	r1, #20
 8000c24:	428a      	cmp	r2, r1
 8000c26:	bf14      	ite	ne
 8000c28:	f44f 3280 	movne.w	r2, #65536	; 0x10000
 8000c2c:	f44f 5280 	moveq.w	r2, #4096	; 0x1000
 8000c30:	e000      	b.n	8000c34 <HAL_DMA_Abort_IT+0xc4>
 8000c32:	2201      	movs	r2, #1
 8000c34:	491b      	ldr	r1, [pc, #108]	; (8000ca4 <HAL_DMA_Abort_IT+0x134>)
 8000c36:	604a      	str	r2, [r1, #4]
 8000c38:	f44f 7180 	mov.w	r1, #256	; 0x100
 8000c3c:	6b5a      	ldr	r2, [r3, #52]	; 0x34
 8000c3e:	8419      	strh	r1, [r3, #32]
 8000c40:	b11a      	cbz	r2, 8000c4a <HAL_DMA_Abort_IT+0xda>
 8000c42:	4618      	mov	r0, r3
 8000c44:	4790      	blx	r2
 8000c46:	2000      	movs	r0, #0
 8000c48:	bd08      	pop	{r3, pc}
 8000c4a:	4610      	mov	r0, r2
 8000c4c:	bd08      	pop	{r3, pc}
 8000c4e:	2201      	movs	r2, #1
 8000c50:	4915      	ldr	r1, [pc, #84]	; (8000ca8 <HAL_DMA_Abort_IT+0x138>)
 8000c52:	604a      	str	r2, [r1, #4]
 8000c54:	e7f0      	b.n	8000c38 <HAL_DMA_Abort_IT+0xc8>
 8000c56:	f44f 5280 	mov.w	r2, #4096	; 0x1000
 8000c5a:	e7eb      	b.n	8000c34 <HAL_DMA_Abort_IT+0xc4>
 8000c5c:	f44f 5280 	mov.w	r2, #4096	; 0x1000
 8000c60:	e7f6      	b.n	8000c50 <HAL_DMA_Abort_IT+0xe0>
 8000c62:	2210      	movs	r2, #16
 8000c64:	e7e6      	b.n	8000c34 <HAL_DMA_Abort_IT+0xc4>
 8000c66:	2210      	movs	r2, #16
 8000c68:	e7f2      	b.n	8000c50 <HAL_DMA_Abort_IT+0xe0>
 8000c6a:	f44f 7280 	mov.w	r2, #256	; 0x100
 8000c6e:	e7ef      	b.n	8000c50 <HAL_DMA_Abort_IT+0xe0>
 8000c70:	f44f 7280 	mov.w	r2, #256	; 0x100
 8000c74:	e7de      	b.n	8000c34 <HAL_DMA_Abort_IT+0xc4>
 8000c76:	f44f 3280 	mov.w	r2, #65536	; 0x10000
 8000c7a:	e7db      	b.n	8000c34 <HAL_DMA_Abort_IT+0xc4>
 8000c7c:	f44f 3280 	mov.w	r2, #65536	; 0x10000
 8000c80:	e7e6      	b.n	8000c50 <HAL_DMA_Abort_IT+0xe0>
 8000c82:	f44f 1280 	mov.w	r2, #1048576	; 0x100000
 8000c86:	e7d5      	b.n	8000c34 <HAL_DMA_Abort_IT+0xc4>
 8000c88:	f44f 1280 	mov.w	r2, #1048576	; 0x100000
 8000c8c:	e7e0      	b.n	8000c50 <HAL_DMA_Abort_IT+0xe0>
 8000c8e:	f04f 7280 	mov.w	r2, #16777216	; 0x1000000
 8000c92:	e7cf      	b.n	8000c34 <HAL_DMA_Abort_IT+0xc4>
 8000c94:	f04f 7280 	mov.w	r2, #16777216	; 0x1000000
 8000c98:	e7da      	b.n	8000c50 <HAL_DMA_Abort_IT+0xe0>
 8000c9a:	bf00      	nop
 8000c9c:	40020080 	.word	0x40020080
 8000ca0:	40020008 	.word	0x40020008
 8000ca4:	40020000 	.word	0x40020000
 8000ca8:	40020400 	.word	0x40020400

08000cac <HAL_FLASH_Program>:
 8000cac:	e92d 4ff0 	stmdb	sp!, {r4, r5, r6, r7, r8, r9, sl, fp, lr}
 8000cb0:	f8df 91c4 	ldr.w	r9, [pc, #452]	; 8000e78 <HAL_FLASH_Program+0x1cc>
 8000cb4:	b083      	sub	sp, #12
 8000cb6:	f899 4018 	ldrb.w	r4, [r9, #24]
 8000cba:	2c01      	cmp	r4, #1
 8000cbc:	f000 80cf 	beq.w	8000e5e <HAL_FLASH_Program+0x1b2>
 8000cc0:	469a      	mov	sl, r3
 8000cc2:	2301      	movs	r3, #1
 8000cc4:	4606      	mov	r6, r0
 8000cc6:	4688      	mov	r8, r1
 8000cc8:	4693      	mov	fp, r2
 8000cca:	f889 3018 	strb.w	r3, [r9, #24]
 8000cce:	f7ff feb5 	bl	8000a3c <HAL_GetTick>
 8000cd2:	f24c 3750 	movw	r7, #50000	; 0xc350
 8000cd6:	4604      	mov	r4, r0
 8000cd8:	4d68      	ldr	r5, [pc, #416]	; (8000e7c <HAL_FLASH_Program+0x1d0>)
 8000cda:	e005      	b.n	8000ce8 <HAL_FLASH_Program+0x3c>
 8000cdc:	f7ff feae 	bl	8000a3c <HAL_GetTick>
 8000ce0:	1b00      	subs	r0, r0, r4
 8000ce2:	42b8      	cmp	r0, r7
 8000ce4:	f200 80b9 	bhi.w	8000e5a <HAL_FLASH_Program+0x1ae>
 8000ce8:	68eb      	ldr	r3, [r5, #12]
 8000cea:	07da      	lsls	r2, r3, #31
 8000cec:	d4f6      	bmi.n	8000cdc <HAL_FLASH_Program+0x30>
 8000cee:	68eb      	ldr	r3, [r5, #12]
 8000cf0:	069b      	lsls	r3, r3, #26
 8000cf2:	bf44      	itt	mi
 8000cf4:	2320      	movmi	r3, #32
 8000cf6:	60eb      	strmi	r3, [r5, #12]
 8000cf8:	4b60      	ldr	r3, [pc, #384]	; (8000e7c <HAL_FLASH_Program+0x1d0>)
 8000cfa:	68da      	ldr	r2, [r3, #12]
 8000cfc:	06d7      	lsls	r7, r2, #27
 8000cfe:	d453      	bmi.n	8000da8 <HAL_FLASH_Program+0xfc>
 8000d00:	69da      	ldr	r2, [r3, #28]
 8000d02:	07d5      	lsls	r5, r2, #31
 8000d04:	d450      	bmi.n	8000da8 <HAL_FLASH_Program+0xfc>
 8000d06:	68df      	ldr	r7, [r3, #12]
 8000d08:	f017 0704 	ands.w	r7, r7, #4
 8000d0c:	d14c      	bne.n	8000da8 <HAL_FLASH_Program+0xfc>
 8000d0e:	2e01      	cmp	r6, #1
 8000d10:	d003      	beq.n	8000d1a <HAL_FLASH_Program+0x6e>
 8000d12:	2e02      	cmp	r6, #2
 8000d14:	bf0c      	ite	eq
 8000d16:	2602      	moveq	r6, #2
 8000d18:	2604      	movne	r6, #4
 8000d1a:	eb08 0346 	add.w	r3, r8, r6, lsl #1
 8000d1e:	f24c 3650 	movw	r6, #50000	; 0xc350
 8000d22:	4c56      	ldr	r4, [pc, #344]	; (8000e7c <HAL_FLASH_Program+0x1d0>)
 8000d24:	9301      	str	r3, [sp, #4]
 8000d26:	f1c7 0120 	rsb	r1, r7, #32
 8000d2a:	fa0a f101 	lsl.w	r1, sl, r1
 8000d2e:	fa2b f307 	lsr.w	r3, fp, r7
 8000d32:	430b      	orrs	r3, r1
 8000d34:	2100      	movs	r1, #0
 8000d36:	f1a7 0220 	sub.w	r2, r7, #32
 8000d3a:	f8c9 101c 	str.w	r1, [r9, #28]
 8000d3e:	fa2a f202 	lsr.w	r2, sl, r2
 8000d42:	4313      	orrs	r3, r2
 8000d44:	6922      	ldr	r2, [r4, #16]
 8000d46:	b29b      	uxth	r3, r3
 8000d48:	f042 0201 	orr.w	r2, r2, #1
 8000d4c:	6122      	str	r2, [r4, #16]
 8000d4e:	f8a8 3000 	strh.w	r3, [r8]
 8000d52:	f7ff fe73 	bl	8000a3c <HAL_GetTick>
 8000d56:	4605      	mov	r5, r0
 8000d58:	e004      	b.n	8000d64 <HAL_FLASH_Program+0xb8>
 8000d5a:	f7ff fe6f 	bl	8000a3c <HAL_GetTick>
 8000d5e:	1b40      	subs	r0, r0, r5
 8000d60:	42b0      	cmp	r0, r6
 8000d62:	d872      	bhi.n	8000e4a <HAL_FLASH_Program+0x19e>
 8000d64:	68e3      	ldr	r3, [r4, #12]
 8000d66:	07d9      	lsls	r1, r3, #31
 8000d68:	d4f7      	bmi.n	8000d5a <HAL_FLASH_Program+0xae>
 8000d6a:	68e3      	ldr	r3, [r4, #12]
 8000d6c:	069a      	lsls	r2, r3, #26
 8000d6e:	bf44      	itt	mi
 8000d70:	2320      	movmi	r3, #32
 8000d72:	60e3      	strmi	r3, [r4, #12]
 8000d74:	68e3      	ldr	r3, [r4, #12]
 8000d76:	06db      	lsls	r3, r3, #27
 8000d78:	d439      	bmi.n	8000dee <HAL_FLASH_Program+0x142>
 8000d7a:	69e3      	ldr	r3, [r4, #28]
 8000d7c:	07dd      	lsls	r5, r3, #31
 8000d7e:	d436      	bmi.n	8000dee <HAL_FLASH_Program+0x142>
 8000d80:	68e0      	ldr	r0, [r4, #12]
 8000d82:	f010 0004 	ands.w	r0, r0, #4
 8000d86:	d132      	bne.n	8000dee <HAL_FLASH_Program+0x142>
 8000d88:	6923      	ldr	r3, [r4, #16]
 8000d8a:	f108 0802 	add.w	r8, r8, #2
 8000d8e:	f023 0301 	bic.w	r3, r3, #1
 8000d92:	6123      	str	r3, [r4, #16]
 8000d94:	9b01      	ldr	r3, [sp, #4]
 8000d96:	3710      	adds	r7, #16
 8000d98:	4598      	cmp	r8, r3
 8000d9a:	d1c4      	bne.n	8000d26 <HAL_FLASH_Program+0x7a>
 8000d9c:	2300      	movs	r3, #0
 8000d9e:	f889 3018 	strb.w	r3, [r9, #24]
 8000da2:	b003      	add	sp, #12
 8000da4:	e8bd 8ff0 	ldmia.w	sp!, {r4, r5, r6, r7, r8, r9, sl, fp, pc}
 8000da8:	4b34      	ldr	r3, [pc, #208]	; (8000e7c <HAL_FLASH_Program+0x1d0>)
 8000daa:	68db      	ldr	r3, [r3, #12]
 8000dac:	f013 0310 	ands.w	r3, r3, #16
 8000db0:	d159      	bne.n	8000e66 <HAL_FLASH_Program+0x1ba>
 8000db2:	2104      	movs	r1, #4
 8000db4:	4a31      	ldr	r2, [pc, #196]	; (8000e7c <HAL_FLASH_Program+0x1d0>)
 8000db6:	68d2      	ldr	r2, [r2, #12]
 8000db8:	0754      	lsls	r4, r2, #29
 8000dba:	d506      	bpl.n	8000dca <HAL_FLASH_Program+0x11e>
 8000dbc:	460b      	mov	r3, r1
 8000dbe:	f8d9 201c 	ldr.w	r2, [r9, #28]
 8000dc2:	f042 0201 	orr.w	r2, r2, #1
 8000dc6:	f8c9 201c 	str.w	r2, [r9, #28]
 8000dca:	4a2c      	ldr	r2, [pc, #176]	; (8000e7c <HAL_FLASH_Program+0x1d0>)
 8000dcc:	69d1      	ldr	r1, [r2, #28]
 8000dce:	07c8      	lsls	r0, r1, #31
 8000dd0:	d509      	bpl.n	8000de6 <HAL_FLASH_Program+0x13a>
 8000dd2:	f8d9 101c 	ldr.w	r1, [r9, #28]
 8000dd6:	f041 0104 	orr.w	r1, r1, #4
 8000dda:	f8c9 101c 	str.w	r1, [r9, #28]
 8000dde:	69d1      	ldr	r1, [r2, #28]
 8000de0:	f021 0101 	bic.w	r1, r1, #1
 8000de4:	61d1      	str	r1, [r2, #28]
 8000de6:	4a25      	ldr	r2, [pc, #148]	; (8000e7c <HAL_FLASH_Program+0x1d0>)
 8000de8:	2001      	movs	r0, #1
 8000dea:	60d3      	str	r3, [r2, #12]
 8000dec:	e7d6      	b.n	8000d9c <HAL_FLASH_Program+0xf0>
 8000dee:	4b23      	ldr	r3, [pc, #140]	; (8000e7c <HAL_FLASH_Program+0x1d0>)
 8000df0:	68da      	ldr	r2, [r3, #12]
 8000df2:	f012 0210 	ands.w	r2, r2, #16
 8000df6:	d02e      	beq.n	8000e56 <HAL_FLASH_Program+0x1aa>
 8000df8:	2114      	movs	r1, #20
 8000dfa:	2210      	movs	r2, #16
 8000dfc:	f8d9 301c 	ldr.w	r3, [r9, #28]
 8000e00:	f043 0302 	orr.w	r3, r3, #2
 8000e04:	f8c9 301c 	str.w	r3, [r9, #28]
 8000e08:	4b1c      	ldr	r3, [pc, #112]	; (8000e7c <HAL_FLASH_Program+0x1d0>)
 8000e0a:	68db      	ldr	r3, [r3, #12]
 8000e0c:	0758      	lsls	r0, r3, #29
 8000e0e:	d506      	bpl.n	8000e1e <HAL_FLASH_Program+0x172>
 8000e10:	460a      	mov	r2, r1
 8000e12:	f8d9 301c 	ldr.w	r3, [r9, #28]
 8000e16:	f043 0301 	orr.w	r3, r3, #1
 8000e1a:	f8c9 301c 	str.w	r3, [r9, #28]
 8000e1e:	4b17      	ldr	r3, [pc, #92]	; (8000e7c <HAL_FLASH_Program+0x1d0>)
 8000e20:	69d9      	ldr	r1, [r3, #28]
 8000e22:	07c9      	lsls	r1, r1, #31
 8000e24:	d509      	bpl.n	8000e3a <HAL_FLASH_Program+0x18e>
 8000e26:	f8d9 101c 	ldr.w	r1, [r9, #28]
 8000e2a:	f041 0104 	orr.w	r1, r1, #4
 8000e2e:	f8c9 101c 	str.w	r1, [r9, #28]
 8000e32:	69d9      	ldr	r1, [r3, #28]
 8000e34:	f021 0101 	bic.w	r1, r1, #1
 8000e38:	61d9      	str	r1, [r3, #28]
 8000e3a:	4b10      	ldr	r3, [pc, #64]	; (8000e7c <HAL_FLASH_Program+0x1d0>)
 8000e3c:	2001      	movs	r0, #1
 8000e3e:	60da      	str	r2, [r3, #12]
 8000e40:	691a      	ldr	r2, [r3, #16]
 8000e42:	f022 0201 	bic.w	r2, r2, #1
 8000e46:	611a      	str	r2, [r3, #16]
 8000e48:	e7a8      	b.n	8000d9c <HAL_FLASH_Program+0xf0>
 8000e4a:	6923      	ldr	r3, [r4, #16]
 8000e4c:	2003      	movs	r0, #3
 8000e4e:	f023 0301 	bic.w	r3, r3, #1
 8000e52:	6123      	str	r3, [r4, #16]
 8000e54:	e7a2      	b.n	8000d9c <HAL_FLASH_Program+0xf0>
 8000e56:	2104      	movs	r1, #4
 8000e58:	e7d6      	b.n	8000e08 <HAL_FLASH_Program+0x15c>
 8000e5a:	2003      	movs	r0, #3
 8000e5c:	e79e      	b.n	8000d9c <HAL_FLASH_Program+0xf0>
 8000e5e:	2002      	movs	r0, #2
 8000e60:	b003      	add	sp, #12
 8000e62:	e8bd 8ff0 	ldmia.w	sp!, {r4, r5, r6, r7, r8, r9, sl, fp, pc}
 8000e66:	f8d9 201c 	ldr.w	r2, [r9, #28]
 8000e6a:	2114      	movs	r1, #20
 8000e6c:	f042 0202 	orr.w	r2, r2, #2
 8000e70:	2310      	movs	r3, #16
 8000e72:	f8c9 201c 	str.w	r2, [r9, #28]
 8000e76:	e79d      	b.n	8000db4 <HAL_FLASH_Program+0x108>
 8000e78:	200001e8 	.word	0x200001e8
 8000e7c:	40022000 	.word	0x40022000

08000e80 <HAL_FLASH_Unlock>:
 8000e80:	4b06      	ldr	r3, [pc, #24]	; (8000e9c <HAL_FLASH_Unlock+0x1c>)
 8000e82:	6918      	ldr	r0, [r3, #16]
 8000e84:	f010 0080 	ands.w	r0, r0, #128	; 0x80
 8000e88:	d006      	beq.n	8000e98 <HAL_FLASH_Unlock+0x18>
 8000e8a:	4905      	ldr	r1, [pc, #20]	; (8000ea0 <HAL_FLASH_Unlock+0x20>)
 8000e8c:	4a05      	ldr	r2, [pc, #20]	; (8000ea4 <HAL_FLASH_Unlock+0x24>)
 8000e8e:	6059      	str	r1, [r3, #4]
 8000e90:	605a      	str	r2, [r3, #4]
 8000e92:	6918      	ldr	r0, [r3, #16]
 8000e94:	f3c0 10c0 	ubfx	r0, r0, #7, #1
 8000e98:	4770      	bx	lr
 8000e9a:	bf00      	nop
 8000e9c:	40022000 	.word	0x40022000
 8000ea0:	45670123 	.word	0x45670123
 8000ea4:	cdef89ab 	.word	0xcdef89ab

08000ea8 <HAL_FLASH_Lock>:
 8000ea8:	4a03      	ldr	r2, [pc, #12]	; (8000eb8 <HAL_FLASH_Lock+0x10>)
 8000eaa:	2000      	movs	r0, #0
 8000eac:	6913      	ldr	r3, [r2, #16]
 8000eae:	f043 0380 	orr.w	r3, r3, #128	; 0x80
 8000eb2:	6113      	str	r3, [r2, #16]
 8000eb4:	4770      	bx	lr
 8000eb6:	bf00      	nop
 8000eb8:	40022000 	.word	0x40022000

08000ebc <HAL_FLASH_OB_Unlock>:
 8000ebc:	4b05      	ldr	r3, [pc, #20]	; (8000ed4 <HAL_FLASH_OB_Unlock+0x18>)
 8000ebe:	6918      	ldr	r0, [r3, #16]
 8000ec0:	f410 7000 	ands.w	r0, r0, #512	; 0x200
 8000ec4:	d104      	bne.n	8000ed0 <HAL_FLASH_OB_Unlock+0x14>
 8000ec6:	4904      	ldr	r1, [pc, #16]	; (8000ed8 <HAL_FLASH_OB_Unlock+0x1c>)
 8000ec8:	4a04      	ldr	r2, [pc, #16]	; (8000edc <HAL_FLASH_OB_Unlock+0x20>)
 8000eca:	6099      	str	r1, [r3, #8]
 8000ecc:	609a      	str	r2, [r3, #8]
 8000ece:	4770      	bx	lr
 8000ed0:	2001      	movs	r0, #1
 8000ed2:	4770      	bx	lr
 8000ed4:	40022000 	.word	0x40022000
 8000ed8:	45670123 	.word	0x45670123
 8000edc:	cdef89ab 	.word	0xcdef89ab

08000ee0 <FLASH_WaitForLastOperation>:
 8000ee0:	b570      	push	{r4, r5, r6, lr}
 8000ee2:	4604      	mov	r4, r0
 8000ee4:	f7ff fdaa 	bl	8000a3c <HAL_GetTick>
 8000ee8:	4605      	mov	r5, r0
 8000eea:	4e26      	ldr	r6, [pc, #152]	; (8000f84 <FLASH_WaitForLastOperation+0xa4>)
 8000eec:	1c60      	adds	r0, r4, #1
 8000eee:	d136      	bne.n	8000f5e <FLASH_WaitForLastOperation+0x7e>
 8000ef0:	4a24      	ldr	r2, [pc, #144]	; (8000f84 <FLASH_WaitForLastOperation+0xa4>)
 8000ef2:	68d3      	ldr	r3, [r2, #12]
 8000ef4:	07d9      	lsls	r1, r3, #31
 8000ef6:	d4fc      	bmi.n	8000ef2 <FLASH_WaitForLastOperation+0x12>
 8000ef8:	4b22      	ldr	r3, [pc, #136]	; (8000f84 <FLASH_WaitForLastOperation+0xa4>)
 8000efa:	68da      	ldr	r2, [r3, #12]
 8000efc:	0696      	lsls	r6, r2, #26
 8000efe:	bf44      	itt	mi
 8000f00:	2220      	movmi	r2, #32
 8000f02:	60da      	strmi	r2, [r3, #12]
 8000f04:	4b1f      	ldr	r3, [pc, #124]	; (8000f84 <FLASH_WaitForLastOperation+0xa4>)
 8000f06:	68da      	ldr	r2, [r3, #12]
 8000f08:	06d5      	lsls	r5, r2, #27
 8000f0a:	d407      	bmi.n	8000f1c <FLASH_WaitForLastOperation+0x3c>
 8000f0c:	69da      	ldr	r2, [r3, #28]
 8000f0e:	07d4      	lsls	r4, r2, #31
 8000f10:	d404      	bmi.n	8000f1c <FLASH_WaitForLastOperation+0x3c>
 8000f12:	68d8      	ldr	r0, [r3, #12]
 8000f14:	f010 0004 	ands.w	r0, r0, #4
 8000f18:	d100      	bne.n	8000f1c <FLASH_WaitForLastOperation+0x3c>
 8000f1a:	bd70      	pop	{r4, r5, r6, pc}
 8000f1c:	4b19      	ldr	r3, [pc, #100]	; (8000f84 <FLASH_WaitForLastOperation+0xa4>)
 8000f1e:	68db      	ldr	r3, [r3, #12]
 8000f20:	f013 0310 	ands.w	r3, r3, #16
 8000f24:	d126      	bne.n	8000f74 <FLASH_WaitForLastOperation+0x94>
 8000f26:	2104      	movs	r1, #4
 8000f28:	4a16      	ldr	r2, [pc, #88]	; (8000f84 <FLASH_WaitForLastOperation+0xa4>)
 8000f2a:	68d2      	ldr	r2, [r2, #12]
 8000f2c:	0750      	lsls	r0, r2, #29
 8000f2e:	d505      	bpl.n	8000f3c <FLASH_WaitForLastOperation+0x5c>
 8000f30:	460b      	mov	r3, r1
 8000f32:	4915      	ldr	r1, [pc, #84]	; (8000f88 <FLASH_WaitForLastOperation+0xa8>)
 8000f34:	69ca      	ldr	r2, [r1, #28]
 8000f36:	f042 0201 	orr.w	r2, r2, #1
 8000f3a:	61ca      	str	r2, [r1, #28]
 8000f3c:	4a11      	ldr	r2, [pc, #68]	; (8000f84 <FLASH_WaitForLastOperation+0xa4>)
 8000f3e:	69d1      	ldr	r1, [r2, #28]
 8000f40:	07c9      	lsls	r1, r1, #31
 8000f42:	d508      	bpl.n	8000f56 <FLASH_WaitForLastOperation+0x76>
 8000f44:	4810      	ldr	r0, [pc, #64]	; (8000f88 <FLASH_WaitForLastOperation+0xa8>)
 8000f46:	69c1      	ldr	r1, [r0, #28]
 8000f48:	f041 0104 	orr.w	r1, r1, #4
 8000f4c:	61c1      	str	r1, [r0, #28]
 8000f4e:	69d1      	ldr	r1, [r2, #28]
 8000f50:	f021 0101 	bic.w	r1, r1, #1
 8000f54:	61d1      	str	r1, [r2, #28]
 8000f56:	4a0b      	ldr	r2, [pc, #44]	; (8000f84 <FLASH_WaitForLastOperation+0xa4>)
 8000f58:	2001      	movs	r0, #1
 8000f5a:	60d3      	str	r3, [r2, #12]
 8000f5c:	bd70      	pop	{r4, r5, r6, pc}
 8000f5e:	68f3      	ldr	r3, [r6, #12]
 8000f60:	07db      	lsls	r3, r3, #31
 8000f62:	d5c9      	bpl.n	8000ef8 <FLASH_WaitForLastOperation+0x18>
 8000f64:	b124      	cbz	r4, 8000f70 <FLASH_WaitForLastOperation+0x90>
 8000f66:	f7ff fd69 	bl	8000a3c <HAL_GetTick>
 8000f6a:	1b40      	subs	r0, r0, r5
 8000f6c:	42a0      	cmp	r0, r4
 8000f6e:	d9bd      	bls.n	8000eec <FLASH_WaitForLastOperation+0xc>
 8000f70:	2003      	movs	r0, #3
 8000f72:	bd70      	pop	{r4, r5, r6, pc}
 8000f74:	4804      	ldr	r0, [pc, #16]	; (8000f88 <FLASH_WaitForLastOperation+0xa8>)
 8000f76:	2114      	movs	r1, #20
 8000f78:	69c2      	ldr	r2, [r0, #28]
 8000f7a:	2310      	movs	r3, #16
 8000f7c:	f042 0202 	orr.w	r2, r2, #2
 8000f80:	61c2      	str	r2, [r0, #28]
 8000f82:	e7d1      	b.n	8000f28 <FLASH_WaitForLastOperation+0x48>
 8000f84:	40022000 	.word	0x40022000
 8000f88:	200001e8 	.word	0x200001e8

08000f8c <HAL_FLASHEx_Erase>:
 8000f8c:	e92d 43f8 	stmdb	sp!, {r3, r4, r5, r6, r7, r8, r9, lr}
 8000f90:	4e2d      	ldr	r6, [pc, #180]	; (8001048 <HAL_FLASHEx_Erase+0xbc>)
 8000f92:	7e33      	ldrb	r3, [r6, #24]
 8000f94:	2b01      	cmp	r3, #1
 8000f96:	d054      	beq.n	8001042 <HAL_FLASHEx_Erase+0xb6>
 8000f98:	2301      	movs	r3, #1
 8000f9a:	7633      	strb	r3, [r6, #24]
 8000f9c:	6803      	ldr	r3, [r0, #0]
 8000f9e:	4681      	mov	r9, r0
 8000fa0:	2b02      	cmp	r3, #2
 8000fa2:	d031      	beq.n	8001008 <HAL_FLASHEx_Erase+0x7c>
 8000fa4:	f24c 3050 	movw	r0, #50000	; 0xc350
 8000fa8:	4688      	mov	r8, r1
 8000faa:	f7ff ff99 	bl	8000ee0 <FLASH_WaitForLastOperation>
 8000fae:	4607      	mov	r7, r0
 8000fb0:	bb78      	cbnz	r0, 8001012 <HAL_FLASHEx_Erase+0x86>
 8000fb2:	f04f 33ff 	mov.w	r3, #4294967295
 8000fb6:	f8c8 3000 	str.w	r3, [r8]
 8000fba:	e9d9 5302 	ldrd	r5, r3, [r9, #8]
 8000fbe:	eb05 23c3 	add.w	r3, r5, r3, lsl #11
 8000fc2:	429d      	cmp	r5, r3
 8000fc4:	d225      	bcs.n	8001012 <HAL_FLASHEx_Erase+0x86>
 8000fc6:	4c21      	ldr	r4, [pc, #132]	; (800104c <HAL_FLASHEx_Erase+0xc0>)
 8000fc8:	e007      	b.n	8000fda <HAL_FLASHEx_Erase+0x4e>
 8000fca:	f505 6500 	add.w	r5, r5, #2048	; 0x800
 8000fce:	e9d9 3202 	ldrd	r3, r2, [r9, #8]
 8000fd2:	eb03 23c2 	add.w	r3, r3, r2, lsl #11
 8000fd6:	42ab      	cmp	r3, r5
 8000fd8:	d91c      	bls.n	8001014 <HAL_FLASHEx_Erase+0x88>
 8000fda:	61f7      	str	r7, [r6, #28]
 8000fdc:	6923      	ldr	r3, [r4, #16]
 8000fde:	f24c 3050 	movw	r0, #50000	; 0xc350
 8000fe2:	f043 0302 	orr.w	r3, r3, #2
 8000fe6:	6123      	str	r3, [r4, #16]
 8000fe8:	6165      	str	r5, [r4, #20]
 8000fea:	6923      	ldr	r3, [r4, #16]
 8000fec:	f043 0340 	orr.w	r3, r3, #64	; 0x40
 8000ff0:	6123      	str	r3, [r4, #16]
 8000ff2:	f7ff ff75 	bl	8000ee0 <FLASH_WaitForLastOperation>
 8000ff6:	6923      	ldr	r3, [r4, #16]
 8000ff8:	f023 0302 	bic.w	r3, r3, #2
 8000ffc:	6123      	str	r3, [r4, #16]
 8000ffe:	2800      	cmp	r0, #0
 8001000:	d0e3      	beq.n	8000fca <HAL_FLASHEx_Erase+0x3e>
 8001002:	f8c8 5000 	str.w	r5, [r8]
 8001006:	e005      	b.n	8001014 <HAL_FLASHEx_Erase+0x88>
 8001008:	f24c 3050 	movw	r0, #50000	; 0xc350
 800100c:	f7ff ff68 	bl	8000ee0 <FLASH_WaitForLastOperation>
 8001010:	b120      	cbz	r0, 800101c <HAL_FLASHEx_Erase+0x90>
 8001012:	2001      	movs	r0, #1
 8001014:	2300      	movs	r3, #0
 8001016:	7633      	strb	r3, [r6, #24]
 8001018:	e8bd 83f8 	ldmia.w	sp!, {r3, r4, r5, r6, r7, r8, r9, pc}
 800101c:	4c0b      	ldr	r4, [pc, #44]	; (800104c <HAL_FLASHEx_Erase+0xc0>)
 800101e:	61f0      	str	r0, [r6, #28]
 8001020:	6923      	ldr	r3, [r4, #16]
 8001022:	f24c 3050 	movw	r0, #50000	; 0xc350
 8001026:	f043 0304 	orr.w	r3, r3, #4
 800102a:	6123      	str	r3, [r4, #16]
 800102c:	6923      	ldr	r3, [r4, #16]
 800102e:	f043 0340 	orr.w	r3, r3, #64	; 0x40
 8001032:	6123      	str	r3, [r4, #16]
 8001034:	f7ff ff54 	bl	8000ee0 <FLASH_WaitForLastOperation>
 8001038:	6923      	ldr	r3, [r4, #16]
 800103a:	f023 0304 	bic.w	r3, r3, #4
 800103e:	6123      	str	r3, [r4, #16]
 8001040:	e7e8      	b.n	8001014 <HAL_FLASHEx_Erase+0x88>
 8001042:	2002      	movs	r0, #2
 8001044:	e8bd 83f8 	ldmia.w	sp!, {r3, r4, r5, r6, r7, r8, r9, pc}
 8001048:	200001e8 	.word	0x200001e8
 800104c:	40022000 	.word	0x40022000

08001050 <HAL_FLASHEx_OBErase>:
 8001050:	b570      	push	{r4, r5, r6, lr}
 8001052:	4c27      	ldr	r4, [pc, #156]	; (80010f0 <HAL_FLASHEx_OBErase+0xa0>)
 8001054:	f24c 3050 	movw	r0, #50000	; 0xc350
 8001058:	69e3      	ldr	r3, [r4, #28]
 800105a:	f013 0f02 	tst.w	r3, #2
 800105e:	bf14      	ite	ne
 8001060:	2500      	movne	r5, #0
 8001062:	25a5      	moveq	r5, #165	; 0xa5
 8001064:	f7ff ff3c 	bl	8000ee0 <FLASH_WaitForLastOperation>
 8001068:	4603      	mov	r3, r0
 800106a:	b108      	cbz	r0, 8001070 <HAL_FLASHEx_OBErase+0x20>
 800106c:	4618      	mov	r0, r3
 800106e:	bd70      	pop	{r4, r5, r6, pc}
 8001070:	4e20      	ldr	r6, [pc, #128]	; (80010f4 <HAL_FLASHEx_OBErase+0xa4>)
 8001072:	f24c 3050 	movw	r0, #50000	; 0xc350
 8001076:	61f3      	str	r3, [r6, #28]
 8001078:	6923      	ldr	r3, [r4, #16]
 800107a:	f043 0320 	orr.w	r3, r3, #32
 800107e:	6123      	str	r3, [r4, #16]
 8001080:	6923      	ldr	r3, [r4, #16]
 8001082:	f043 0340 	orr.w	r3, r3, #64	; 0x40
 8001086:	6123      	str	r3, [r4, #16]
 8001088:	f7ff ff2a 	bl	8000ee0 <FLASH_WaitForLastOperation>
 800108c:	6923      	ldr	r3, [r4, #16]
 800108e:	f023 0320 	bic.w	r3, r3, #32
 8001092:	6123      	str	r3, [r4, #16]
 8001094:	4603      	mov	r3, r0
 8001096:	2800      	cmp	r0, #0
 8001098:	d1e8      	bne.n	800106c <HAL_FLASHEx_OBErase+0x1c>
 800109a:	f24c 3050 	movw	r0, #50000	; 0xc350
 800109e:	f7ff ff1f 	bl	8000ee0 <FLASH_WaitForLastOperation>
 80010a2:	4603      	mov	r3, r0
 80010a4:	2800      	cmp	r0, #0
 80010a6:	d1e1      	bne.n	800106c <HAL_FLASHEx_OBErase+0x1c>
 80010a8:	61f0      	str	r0, [r6, #28]
 80010aa:	6923      	ldr	r3, [r4, #16]
 80010ac:	f24c 3050 	movw	r0, #50000	; 0xc350
 80010b0:	f043 0320 	orr.w	r3, r3, #32
 80010b4:	6123      	str	r3, [r4, #16]
 80010b6:	6923      	ldr	r3, [r4, #16]
 80010b8:	f043 0340 	orr.w	r3, r3, #64	; 0x40
 80010bc:	6123      	str	r3, [r4, #16]
 80010be:	f7ff ff0f 	bl	8000ee0 <FLASH_WaitForLastOperation>
 80010c2:	6923      	ldr	r3, [r4, #16]
 80010c4:	f023 0320 	bic.w	r3, r3, #32
 80010c8:	6123      	str	r3, [r4, #16]
 80010ca:	4603      	mov	r3, r0
 80010cc:	2800      	cmp	r0, #0
 80010ce:	d1cd      	bne.n	800106c <HAL_FLASHEx_OBErase+0x1c>
 80010d0:	6923      	ldr	r3, [r4, #16]
 80010d2:	4a09      	ldr	r2, [pc, #36]	; (80010f8 <HAL_FLASHEx_OBErase+0xa8>)
 80010d4:	f043 0310 	orr.w	r3, r3, #16
 80010d8:	6123      	str	r3, [r4, #16]
 80010da:	f24c 3050 	movw	r0, #50000	; 0xc350
 80010de:	8015      	strh	r5, [r2, #0]
 80010e0:	f7ff fefe 	bl	8000ee0 <FLASH_WaitForLastOperation>
 80010e4:	6923      	ldr	r3, [r4, #16]
 80010e6:	f023 0310 	bic.w	r3, r3, #16
 80010ea:	6123      	str	r3, [r4, #16]
 80010ec:	4603      	mov	r3, r0
 80010ee:	e7bd      	b.n	800106c <HAL_FLASHEx_OBErase+0x1c>
 80010f0:	40022000 	.word	0x40022000
 80010f4:	200001e8 	.word	0x200001e8
 80010f8:	1ffff800 	.word	0x1ffff800

080010fc <HAL_FLASHEx_OBProgram>:
 80010fc:	e92d 43f8 	stmdb	sp!, {r3, r4, r5, r6, r7, r8, r9, lr}
 8001100:	4eaa      	ldr	r6, [pc, #680]	; (80013ac <HAL_FLASHEx_OBProgram+0x2b0>)
 8001102:	7e33      	ldrb	r3, [r6, #24]
 8001104:	2b01      	cmp	r3, #1
 8001106:	f000 8109 	beq.w	800131c <HAL_FLASHEx_OBProgram+0x220>
 800110a:	4605      	mov	r5, r0
 800110c:	2001      	movs	r0, #1
 800110e:	7630      	strb	r0, [r6, #24]
 8001110:	682b      	ldr	r3, [r5, #0]
 8001112:	07dc      	lsls	r4, r3, #31
 8001114:	d40d      	bmi.n	8001132 <HAL_FLASHEx_OBProgram+0x36>
 8001116:	4604      	mov	r4, r0
 8001118:	0799      	lsls	r1, r3, #30
 800111a:	d45e      	bmi.n	80011da <HAL_FLASHEx_OBProgram+0xde>
 800111c:	075a      	lsls	r2, r3, #29
 800111e:	f100 8093 	bmi.w	8001248 <HAL_FLASHEx_OBProgram+0x14c>
 8001122:	071b      	lsls	r3, r3, #28
 8001124:	f100 80b5 	bmi.w	8001292 <HAL_FLASHEx_OBProgram+0x196>
 8001128:	2300      	movs	r3, #0
 800112a:	4620      	mov	r0, r4
 800112c:	7633      	strb	r3, [r6, #24]
 800112e:	e8bd 83f8 	ldmia.w	sp!, {r3, r4, r5, r6, r7, r8, r9, pc}
 8001132:	686b      	ldr	r3, [r5, #4]
 8001134:	4f9e      	ldr	r7, [pc, #632]	; (80013b0 <HAL_FLASHEx_OBProgram+0x2b4>)
 8001136:	4283      	cmp	r3, r0
 8001138:	f8d5 9008 	ldr.w	r9, [r5, #8]
 800113c:	f24c 3050 	movw	r0, #50000	; 0xc350
 8001140:	f8d7 8020 	ldr.w	r8, [r7, #32]
 8001144:	f000 80c3 	beq.w	80012ce <HAL_FLASHEx_OBProgram+0x1d2>
 8001148:	f7ff feca 	bl	8000ee0 <FLASH_WaitForLastOperation>
 800114c:	4604      	mov	r4, r0
 800114e:	2800      	cmp	r0, #0
 8001150:	d1ea      	bne.n	8001128 <HAL_FLASHEx_OBProgram+0x2c>
 8001152:	61f0      	str	r0, [r6, #28]
 8001154:	f7ff ff7c 	bl	8001050 <HAL_FLASHEx_OBErase>
 8001158:	4604      	mov	r4, r0
 800115a:	2800      	cmp	r0, #0
 800115c:	d1e4      	bne.n	8001128 <HAL_FLASHEx_OBProgram+0x2c>
 800115e:	693b      	ldr	r3, [r7, #16]
 8001160:	ea49 0808 	orr.w	r8, r9, r8
 8001164:	f043 0310 	orr.w	r3, r3, #16
 8001168:	613b      	str	r3, [r7, #16]
 800116a:	fa5f f388 	uxtb.w	r3, r8
 800116e:	2bff      	cmp	r3, #255	; 0xff
 8001170:	d009      	beq.n	8001186 <HAL_FLASHEx_OBProgram+0x8a>
 8001172:	4990      	ldr	r1, [pc, #576]	; (80013b4 <HAL_FLASHEx_OBProgram+0x2b8>)
 8001174:	f24c 3050 	movw	r0, #50000	; 0xc350
 8001178:	890a      	ldrh	r2, [r1, #8]
 800117a:	b292      	uxth	r2, r2
 800117c:	4313      	orrs	r3, r2
 800117e:	810b      	strh	r3, [r1, #8]
 8001180:	f7ff feae 	bl	8000ee0 <FLASH_WaitForLastOperation>
 8001184:	b9f0      	cbnz	r0, 80011c4 <HAL_FLASHEx_OBProgram+0xc8>
 8001186:	f3c8 2307 	ubfx	r3, r8, #8, #8
 800118a:	2bff      	cmp	r3, #255	; 0xff
 800118c:	d009      	beq.n	80011a2 <HAL_FLASHEx_OBProgram+0xa6>
 800118e:	4989      	ldr	r1, [pc, #548]	; (80013b4 <HAL_FLASHEx_OBProgram+0x2b8>)
 8001190:	f24c 3050 	movw	r0, #50000	; 0xc350
 8001194:	894a      	ldrh	r2, [r1, #10]
 8001196:	b292      	uxth	r2, r2
 8001198:	4313      	orrs	r3, r2
 800119a:	814b      	strh	r3, [r1, #10]
 800119c:	f7ff fea0 	bl	8000ee0 <FLASH_WaitForLastOperation>
 80011a0:	b980      	cbnz	r0, 80011c4 <HAL_FLASHEx_OBProgram+0xc8>
 80011a2:	f3c8 4307 	ubfx	r3, r8, #16, #8
 80011a6:	2bff      	cmp	r3, #255	; 0xff
 80011a8:	f000 80bc 	beq.w	8001324 <HAL_FLASHEx_OBProgram+0x228>
 80011ac:	4981      	ldr	r1, [pc, #516]	; (80013b4 <HAL_FLASHEx_OBProgram+0x2b8>)
 80011ae:	f24c 3050 	movw	r0, #50000	; 0xc350
 80011b2:	898a      	ldrh	r2, [r1, #12]
 80011b4:	b292      	uxth	r2, r2
 80011b6:	4313      	orrs	r3, r2
 80011b8:	818b      	strh	r3, [r1, #12]
 80011ba:	f7ff fe91 	bl	8000ee0 <FLASH_WaitForLastOperation>
 80011be:	2800      	cmp	r0, #0
 80011c0:	f000 80b0 	beq.w	8001324 <HAL_FLASHEx_OBProgram+0x228>
 80011c4:	4604      	mov	r4, r0
 80011c6:	4a7a      	ldr	r2, [pc, #488]	; (80013b0 <HAL_FLASHEx_OBProgram+0x2b4>)
 80011c8:	6913      	ldr	r3, [r2, #16]
 80011ca:	f023 0310 	bic.w	r3, r3, #16
 80011ce:	6113      	str	r3, [r2, #16]
 80011d0:	2c00      	cmp	r4, #0
 80011d2:	d1a9      	bne.n	8001128 <HAL_FLASHEx_OBProgram+0x2c>
 80011d4:	682b      	ldr	r3, [r5, #0]
 80011d6:	0799      	lsls	r1, r3, #30
 80011d8:	d5a0      	bpl.n	800111c <HAL_FLASHEx_OBProgram+0x20>
 80011da:	f24c 3050 	movw	r0, #50000	; 0xc350
 80011de:	f895 8010 	ldrb.w	r8, [r5, #16]
 80011e2:	f7ff fe7d 	bl	8000ee0 <FLASH_WaitForLastOperation>
 80011e6:	4604      	mov	r4, r0
 80011e8:	2800      	cmp	r0, #0
 80011ea:	d19d      	bne.n	8001128 <HAL_FLASHEx_OBProgram+0x2c>
 80011ec:	4f70      	ldr	r7, [pc, #448]	; (80013b0 <HAL_FLASHEx_OBProgram+0x2b4>)
 80011ee:	61f0      	str	r0, [r6, #28]
 80011f0:	693b      	ldr	r3, [r7, #16]
 80011f2:	f24c 3050 	movw	r0, #50000	; 0xc350
 80011f6:	f043 0320 	orr.w	r3, r3, #32
 80011fa:	613b      	str	r3, [r7, #16]
 80011fc:	693b      	ldr	r3, [r7, #16]
 80011fe:	f043 0340 	orr.w	r3, r3, #64	; 0x40
 8001202:	613b      	str	r3, [r7, #16]
 8001204:	f7ff fe6c 	bl	8000ee0 <FLASH_WaitForLastOperation>
 8001208:	693b      	ldr	r3, [r7, #16]
 800120a:	4604      	mov	r4, r0
 800120c:	f023 0320 	bic.w	r3, r3, #32
 8001210:	613b      	str	r3, [r7, #16]
 8001212:	2800      	cmp	r0, #0
 8001214:	d188      	bne.n	8001128 <HAL_FLASHEx_OBProgram+0x2c>
 8001216:	693b      	ldr	r3, [r7, #16]
 8001218:	fa1f f888 	uxth.w	r8, r8
 800121c:	f043 0310 	orr.w	r3, r3, #16
 8001220:	613b      	str	r3, [r7, #16]
 8001222:	4b64      	ldr	r3, [pc, #400]	; (80013b4 <HAL_FLASHEx_OBProgram+0x2b8>)
 8001224:	f24c 3050 	movw	r0, #50000	; 0xc350
 8001228:	f8a3 8000 	strh.w	r8, [r3]
 800122c:	f7ff fe58 	bl	8000ee0 <FLASH_WaitForLastOperation>
 8001230:	693b      	ldr	r3, [r7, #16]
 8001232:	4604      	mov	r4, r0
 8001234:	f023 0310 	bic.w	r3, r3, #16
 8001238:	613b      	str	r3, [r7, #16]
 800123a:	2800      	cmp	r0, #0
 800123c:	f47f af74 	bne.w	8001128 <HAL_FLASHEx_OBProgram+0x2c>
 8001240:	682b      	ldr	r3, [r5, #0]
 8001242:	075a      	lsls	r2, r3, #29
 8001244:	f57f af6d 	bpl.w	8001122 <HAL_FLASHEx_OBProgram+0x26>
 8001248:	f24c 3050 	movw	r0, #50000	; 0xc350
 800124c:	f895 8011 	ldrb.w	r8, [r5, #17]
 8001250:	f7ff fe46 	bl	8000ee0 <FLASH_WaitForLastOperation>
 8001254:	4604      	mov	r4, r0
 8001256:	2800      	cmp	r0, #0
 8001258:	f47f af66 	bne.w	8001128 <HAL_FLASHEx_OBProgram+0x2c>
 800125c:	4f54      	ldr	r7, [pc, #336]	; (80013b0 <HAL_FLASHEx_OBProgram+0x2b4>)
 800125e:	61f0      	str	r0, [r6, #28]
 8001260:	693b      	ldr	r3, [r7, #16]
 8001262:	f048 0888 	orr.w	r8, r8, #136	; 0x88
 8001266:	f043 0310 	orr.w	r3, r3, #16
 800126a:	613b      	str	r3, [r7, #16]
 800126c:	4b51      	ldr	r3, [pc, #324]	; (80013b4 <HAL_FLASHEx_OBProgram+0x2b8>)
 800126e:	f24c 3050 	movw	r0, #50000	; 0xc350
 8001272:	f8a3 8002 	strh.w	r8, [r3, #2]
 8001276:	f7ff fe33 	bl	8000ee0 <FLASH_WaitForLastOperation>
 800127a:	693b      	ldr	r3, [r7, #16]
 800127c:	4604      	mov	r4, r0
 800127e:	f023 0310 	bic.w	r3, r3, #16
 8001282:	613b      	str	r3, [r7, #16]
 8001284:	2800      	cmp	r0, #0
 8001286:	f47f af4f 	bne.w	8001128 <HAL_FLASHEx_OBProgram+0x2c>
 800128a:	682b      	ldr	r3, [r5, #0]
 800128c:	071b      	lsls	r3, r3, #28
 800128e:	f57f af4b 	bpl.w	8001128 <HAL_FLASHEx_OBProgram+0x2c>
 8001292:	f24c 3050 	movw	r0, #50000	; 0xc350
 8001296:	f8d5 8014 	ldr.w	r8, [r5, #20]
 800129a:	7e2f      	ldrb	r7, [r5, #24]
 800129c:	f7ff fe20 	bl	8000ee0 <FLASH_WaitForLastOperation>
 80012a0:	4604      	mov	r4, r0
 80012a2:	2800      	cmp	r0, #0
 80012a4:	f47f af40 	bne.w	8001128 <HAL_FLASHEx_OBProgram+0x2c>
 80012a8:	4d41      	ldr	r5, [pc, #260]	; (80013b0 <HAL_FLASHEx_OBProgram+0x2b4>)
 80012aa:	61f0      	str	r0, [r6, #28]
 80012ac:	692b      	ldr	r3, [r5, #16]
 80012ae:	b2bf      	uxth	r7, r7
 80012b0:	f043 0310 	orr.w	r3, r3, #16
 80012b4:	612b      	str	r3, [r5, #16]
 80012b6:	f24c 3050 	movw	r0, #50000	; 0xc350
 80012ba:	f8a8 7000 	strh.w	r7, [r8]
 80012be:	f7ff fe0f 	bl	8000ee0 <FLASH_WaitForLastOperation>
 80012c2:	692b      	ldr	r3, [r5, #16]
 80012c4:	4604      	mov	r4, r0
 80012c6:	f023 0310 	bic.w	r3, r3, #16
 80012ca:	612b      	str	r3, [r5, #16]
 80012cc:	e72c      	b.n	8001128 <HAL_FLASHEx_OBProgram+0x2c>
 80012ce:	f7ff fe07 	bl	8000ee0 <FLASH_WaitForLastOperation>
 80012d2:	4604      	mov	r4, r0
 80012d4:	2800      	cmp	r0, #0
 80012d6:	f47f af27 	bne.w	8001128 <HAL_FLASHEx_OBProgram+0x2c>
 80012da:	61f0      	str	r0, [r6, #28]
 80012dc:	f7ff feb8 	bl	8001050 <HAL_FLASHEx_OBErase>
 80012e0:	4604      	mov	r4, r0
 80012e2:	2800      	cmp	r0, #0
 80012e4:	f47f af20 	bne.w	8001128 <HAL_FLASHEx_OBProgram+0x2c>
 80012e8:	693b      	ldr	r3, [r7, #16]
 80012ea:	ea28 0809 	bic.w	r8, r8, r9
 80012ee:	f043 0310 	orr.w	r3, r3, #16
 80012f2:	613b      	str	r3, [r7, #16]
 80012f4:	fa5f f388 	uxtb.w	r3, r8
 80012f8:	2bff      	cmp	r3, #255	; 0xff
 80012fa:	d02b      	beq.n	8001354 <HAL_FLASHEx_OBProgram+0x258>
 80012fc:	4a2d      	ldr	r2, [pc, #180]	; (80013b4 <HAL_FLASHEx_OBProgram+0x2b8>)
 80012fe:	f24c 3050 	movw	r0, #50000	; 0xc350
 8001302:	8911      	ldrh	r1, [r2, #8]
 8001304:	400b      	ands	r3, r1
 8001306:	8113      	strh	r3, [r2, #8]
 8001308:	f7ff fdea 	bl	8000ee0 <FLASH_WaitForLastOperation>
 800130c:	b310      	cbz	r0, 8001354 <HAL_FLASHEx_OBProgram+0x258>
 800130e:	4a28      	ldr	r2, [pc, #160]	; (80013b0 <HAL_FLASHEx_OBProgram+0x2b4>)
 8001310:	4604      	mov	r4, r0
 8001312:	6913      	ldr	r3, [r2, #16]
 8001314:	f023 0310 	bic.w	r3, r3, #16
 8001318:	6113      	str	r3, [r2, #16]
 800131a:	e759      	b.n	80011d0 <HAL_FLASHEx_OBProgram+0xd4>
 800131c:	2402      	movs	r4, #2
 800131e:	4620      	mov	r0, r4
 8001320:	e8bd 83f8 	ldmia.w	sp!, {r3, r4, r5, r6, r7, r8, r9, pc}
 8001324:	ea4f 6818 	mov.w	r8, r8, lsr #24
 8001328:	f1b8 0fff 	cmp.w	r8, #255	; 0xff
 800132c:	d00b      	beq.n	8001346 <HAL_FLASHEx_OBProgram+0x24a>
 800132e:	4a21      	ldr	r2, [pc, #132]	; (80013b4 <HAL_FLASHEx_OBProgram+0x2b8>)
 8001330:	f24c 3050 	movw	r0, #50000	; 0xc350
 8001334:	89d3      	ldrh	r3, [r2, #14]
 8001336:	b29b      	uxth	r3, r3
 8001338:	ea43 0308 	orr.w	r3, r3, r8
 800133c:	81d3      	strh	r3, [r2, #14]
 800133e:	f7ff fdcf 	bl	8000ee0 <FLASH_WaitForLastOperation>
 8001342:	4604      	mov	r4, r0
 8001344:	e73f      	b.n	80011c6 <HAL_FLASHEx_OBProgram+0xca>
 8001346:	4a1a      	ldr	r2, [pc, #104]	; (80013b0 <HAL_FLASHEx_OBProgram+0x2b4>)
 8001348:	6913      	ldr	r3, [r2, #16]
 800134a:	f023 0310 	bic.w	r3, r3, #16
 800134e:	6113      	str	r3, [r2, #16]
 8001350:	682b      	ldr	r3, [r5, #0]
 8001352:	e6e1      	b.n	8001118 <HAL_FLASHEx_OBProgram+0x1c>
 8001354:	f3c8 2307 	ubfx	r3, r8, #8, #8
 8001358:	2bff      	cmp	r3, #255	; 0xff
 800135a:	d009      	beq.n	8001370 <HAL_FLASHEx_OBProgram+0x274>
 800135c:	4a15      	ldr	r2, [pc, #84]	; (80013b4 <HAL_FLASHEx_OBProgram+0x2b8>)
 800135e:	f24c 3050 	movw	r0, #50000	; 0xc350
 8001362:	8951      	ldrh	r1, [r2, #10]
 8001364:	400b      	ands	r3, r1
 8001366:	8153      	strh	r3, [r2, #10]
 8001368:	f7ff fdba 	bl	8000ee0 <FLASH_WaitForLastOperation>
 800136c:	2800      	cmp	r0, #0
 800136e:	d1ce      	bne.n	800130e <HAL_FLASHEx_OBProgram+0x212>
 8001370:	f3c8 4307 	ubfx	r3, r8, #16, #8
 8001374:	2bff      	cmp	r3, #255	; 0xff
 8001376:	d009      	beq.n	800138c <HAL_FLASHEx_OBProgram+0x290>
 8001378:	4a0e      	ldr	r2, [pc, #56]	; (80013b4 <HAL_FLASHEx_OBProgram+0x2b8>)
 800137a:	f24c 3050 	movw	r0, #50000	; 0xc350
 800137e:	8991      	ldrh	r1, [r2, #12]
 8001380:	400b      	ands	r3, r1
 8001382:	8193      	strh	r3, [r2, #12]
 8001384:	f7ff fdac 	bl	8000ee0 <FLASH_WaitForLastOperation>
 8001388:	2800      	cmp	r0, #0
 800138a:	d1c0      	bne.n	800130e <HAL_FLASHEx_OBProgram+0x212>
 800138c:	ea4f 6818 	mov.w	r8, r8, lsr #24
 8001390:	f1b8 0fff 	cmp.w	r8, #255	; 0xff
 8001394:	d0d7      	beq.n	8001346 <HAL_FLASHEx_OBProgram+0x24a>
 8001396:	4b07      	ldr	r3, [pc, #28]	; (80013b4 <HAL_FLASHEx_OBProgram+0x2b8>)
 8001398:	f24c 3050 	movw	r0, #50000	; 0xc350
 800139c:	89da      	ldrh	r2, [r3, #14]
 800139e:	ea08 0802 	and.w	r8, r8, r2
 80013a2:	f8a3 800e 	strh.w	r8, [r3, #14]
 80013a6:	f7ff fd9b 	bl	8000ee0 <FLASH_WaitForLastOperation>
 80013aa:	e7b0      	b.n	800130e <HAL_FLASHEx_OBProgram+0x212>
 80013ac:	200001e8 	.word	0x200001e8
 80013b0:	40022000 	.word	0x40022000
 80013b4:	1ffff800 	.word	0x1ffff800

080013b8 <HAL_FLASHEx_OBGetConfig>:
 80013b8:	2207      	movs	r2, #7
 80013ba:	4b08      	ldr	r3, [pc, #32]	; (80013dc <HAL_FLASHEx_OBGetConfig+0x24>)
 80013bc:	6002      	str	r2, [r0, #0]
 80013be:	6a1a      	ldr	r2, [r3, #32]
 80013c0:	6082      	str	r2, [r0, #8]
 80013c2:	69da      	ldr	r2, [r3, #28]
 80013c4:	f012 0f02 	tst.w	r2, #2
 80013c8:	bf14      	ite	ne
 80013ca:	2200      	movne	r2, #0
 80013cc:	22a5      	moveq	r2, #165	; 0xa5
 80013ce:	7402      	strb	r2, [r0, #16]
 80013d0:	69db      	ldr	r3, [r3, #28]
 80013d2:	f3c3 0382 	ubfx	r3, r3, #2, #3
 80013d6:	7443      	strb	r3, [r0, #17]
 80013d8:	4770      	bx	lr
 80013da:	bf00      	nop
 80013dc:	40022000 	.word	0x40022000

080013e0 <HAL_GPIO_Init>:
 80013e0:	e92d 4ff0 	stmdb	sp!, {r4, r5, r6, r7, r8, r9, sl, fp, lr}
 80013e4:	680e      	ldr	r6, [r1, #0]
 80013e6:	b083      	sub	sp, #12
 80013e8:	2e00      	cmp	r6, #0
 80013ea:	f000 80be 	beq.w	800156a <HAL_GPIO_Init+0x18a>
 80013ee:	2200      	movs	r2, #0
 80013f0:	4f85      	ldr	r7, [pc, #532]	; (8001608 <HAL_GPIO_Init+0x228>)
 80013f2:	4692      	mov	sl, r2
 80013f4:	4613      	mov	r3, r2
 80013f6:	4d85      	ldr	r5, [pc, #532]	; (800160c <HAL_GPIO_Init+0x22c>)
 80013f8:	f8df 8214 	ldr.w	r8, [pc, #532]	; 8001610 <HAL_GPIO_Init+0x230>
 80013fc:	e006      	b.n	800140c <HAL_GPIO_Init+0x2c>
 80013fe:	3301      	adds	r3, #1
 8001400:	fa36 f403 	lsrs.w	r4, r6, r3
 8001404:	f102 0204 	add.w	r2, r2, #4
 8001408:	f000 80af 	beq.w	800156a <HAL_GPIO_Init+0x18a>
 800140c:	2401      	movs	r4, #1
 800140e:	409c      	lsls	r4, r3
 8001410:	ea34 0e06 	bics.w	lr, r4, r6
 8001414:	ea04 0c06 	and.w	ip, r4, r6
 8001418:	d1f1      	bne.n	80013fe <HAL_GPIO_Init+0x1e>
 800141a:	684e      	ldr	r6, [r1, #4]
 800141c:	2e12      	cmp	r6, #18
 800141e:	f200 80a7 	bhi.w	8001570 <HAL_GPIO_Init+0x190>
 8001422:	2e12      	cmp	r6, #18
 8001424:	d81a      	bhi.n	800145c <HAL_GPIO_Init+0x7c>
 8001426:	e8df f006 	tbb	[pc, r6]
 800142a:	c2b0      	.short	0xc2b0
 800142c:	1919d7be 	.word	0x1919d7be
 8001430:	19191919 	.word	0x19191919
 8001434:	19191919 	.word	0x19191919
 8001438:	ba191919 	.word	0xba191919
 800143c:	c5          	.byte	0xc5
 800143d:	00          	.byte	0x00
 800143e:	f8df e1d4 	ldr.w	lr, [pc, #468]	; 8001614 <HAL_GPIO_Init+0x234>
 8001442:	4576      	cmp	r6, lr
 8001444:	f000 80a1 	beq.w	800158a <HAL_GPIO_Init+0x1aa>
 8001448:	f50e 2e70 	add.w	lr, lr, #983040	; 0xf0000
 800144c:	4576      	cmp	r6, lr
 800144e:	f000 809c 	beq.w	800158a <HAL_GPIO_Init+0x1aa>
 8001452:	f5ae 1e80 	sub.w	lr, lr, #1048576	; 0x100000
 8001456:	4576      	cmp	r6, lr
 8001458:	f000 8097 	beq.w	800158a <HAL_GPIO_Init+0x1aa>
 800145c:	f1bc 0fff 	cmp.w	ip, #255	; 0xff
 8001460:	bf9c      	itt	ls
 8001462:	4686      	movls	lr, r0
 8001464:	4693      	movls	fp, r2
 8001466:	f04f 060f 	mov.w	r6, #15
 800146a:	bf84      	itt	hi
 800146c:	f100 0e04 	addhi.w	lr, r0, #4
 8001470:	f1a2 0b20 	subhi.w	fp, r2, #32
 8001474:	f8de 4000 	ldr.w	r4, [lr]
 8001478:	fa0a f90b 	lsl.w	r9, sl, fp
 800147c:	fa06 fb0b 	lsl.w	fp, r6, fp
 8001480:	ea24 040b 	bic.w	r4, r4, fp
 8001484:	ea44 0409 	orr.w	r4, r4, r9
 8001488:	f8ce 4000 	str.w	r4, [lr]
 800148c:	684c      	ldr	r4, [r1, #4]
 800148e:	f014 5f80 	tst.w	r4, #268435456	; 0x10000000
 8001492:	f000 8082 	beq.w	800159a <HAL_GPIO_Init+0x1ba>
 8001496:	f8d7 e018 	ldr.w	lr, [r7, #24]
 800149a:	f003 0903 	and.w	r9, r3, #3
 800149e:	f04e 0e01 	orr.w	lr, lr, #1
 80014a2:	f8c7 e018 	str.w	lr, [r7, #24]
 80014a6:	f8d7 e018 	ldr.w	lr, [r7, #24]
 80014aa:	ea4f 0989 	mov.w	r9, r9, lsl #2
 80014ae:	f00e 0e01 	and.w	lr, lr, #1
 80014b2:	f8cd e004 	str.w	lr, [sp, #4]
 80014b6:	f8dd e004 	ldr.w	lr, [sp, #4]
 80014ba:	f023 0e03 	bic.w	lr, r3, #3
 80014be:	f10e 4e80 	add.w	lr, lr, #1073741824	; 0x40000000
 80014c2:	f50e 3e80 	add.w	lr, lr, #65536	; 0x10000
 80014c6:	f8de b008 	ldr.w	fp, [lr, #8]
 80014ca:	fa06 f609 	lsl.w	r6, r6, r9
 80014ce:	ea2b 0606 	bic.w	r6, fp, r6
 80014d2:	f8df b144 	ldr.w	fp, [pc, #324]	; 8001618 <HAL_GPIO_Init+0x238>
 80014d6:	4558      	cmp	r0, fp
 80014d8:	d01b      	beq.n	8001512 <HAL_GPIO_Init+0x132>
 80014da:	f50b 6b80 	add.w	fp, fp, #1024	; 0x400
 80014de:	4558      	cmp	r0, fp
 80014e0:	d073      	beq.n	80015ca <HAL_GPIO_Init+0x1ea>
 80014e2:	f8df b138 	ldr.w	fp, [pc, #312]	; 800161c <HAL_GPIO_Init+0x23c>
 80014e6:	4558      	cmp	r0, fp
 80014e8:	d068      	beq.n	80015bc <HAL_GPIO_Init+0x1dc>
 80014ea:	f8df b134 	ldr.w	fp, [pc, #308]	; 8001620 <HAL_GPIO_Init+0x240>
 80014ee:	4558      	cmp	r0, fp
 80014f0:	d07c      	beq.n	80015ec <HAL_GPIO_Init+0x20c>
 80014f2:	f8df b130 	ldr.w	fp, [pc, #304]	; 8001624 <HAL_GPIO_Init+0x244>
 80014f6:	4558      	cmp	r0, fp
 80014f8:	d07f      	beq.n	80015fa <HAL_GPIO_Init+0x21a>
 80014fa:	f8df b12c 	ldr.w	fp, [pc, #300]	; 8001628 <HAL_GPIO_Init+0x248>
 80014fe:	4558      	cmp	r0, fp
 8001500:	bf0c      	ite	eq
 8001502:	f04f 0b05 	moveq.w	fp, #5
 8001506:	f04f 0b06 	movne.w	fp, #6
 800150a:	fa0b f909 	lsl.w	r9, fp, r9
 800150e:	ea46 0609 	orr.w	r6, r6, r9
 8001512:	f8ce 6008 	str.w	r6, [lr, #8]
 8001516:	682e      	ldr	r6, [r5, #0]
 8001518:	f414 3f80 	tst.w	r4, #65536	; 0x10000
 800151c:	bf14      	ite	ne
 800151e:	ea46 060c 	orrne.w	r6, r6, ip
 8001522:	ea26 060c 	biceq.w	r6, r6, ip
 8001526:	602e      	str	r6, [r5, #0]
 8001528:	686e      	ldr	r6, [r5, #4]
 800152a:	f414 3f00 	tst.w	r4, #131072	; 0x20000
 800152e:	bf14      	ite	ne
 8001530:	ea46 060c 	orrne.w	r6, r6, ip
 8001534:	ea26 060c 	biceq.w	r6, r6, ip
 8001538:	606e      	str	r6, [r5, #4]
 800153a:	68ae      	ldr	r6, [r5, #8]
 800153c:	f414 1f80 	tst.w	r4, #1048576	; 0x100000
 8001540:	bf14      	ite	ne
 8001542:	ea46 060c 	orrne.w	r6, r6, ip
 8001546:	ea26 060c 	biceq.w	r6, r6, ip
 800154a:	60ae      	str	r6, [r5, #8]
 800154c:	f414 1f00 	tst.w	r4, #2097152	; 0x200000
 8001550:	68ec      	ldr	r4, [r5, #12]
 8001552:	d01f      	beq.n	8001594 <HAL_GPIO_Init+0x1b4>
 8001554:	ea44 040c 	orr.w	r4, r4, ip
 8001558:	60ec      	str	r4, [r5, #12]
 800155a:	680e      	ldr	r6, [r1, #0]
 800155c:	3301      	adds	r3, #1
 800155e:	fa36 f403 	lsrs.w	r4, r6, r3
 8001562:	f102 0204 	add.w	r2, r2, #4
 8001566:	f47f af51 	bne.w	800140c <HAL_GPIO_Init+0x2c>
 800156a:	b003      	add	sp, #12
 800156c:	e8bd 8ff0 	ldmia.w	sp!, {r4, r5, r6, r7, r8, r9, sl, fp, pc}
 8001570:	4546      	cmp	r6, r8
 8001572:	d00a      	beq.n	800158a <HAL_GPIO_Init+0x1aa>
 8001574:	f67f af63 	bls.w	800143e <HAL_GPIO_Init+0x5e>
 8001578:	f8df e0b0 	ldr.w	lr, [pc, #176]	; 800162c <HAL_GPIO_Init+0x24c>
 800157c:	4576      	cmp	r6, lr
 800157e:	d004      	beq.n	800158a <HAL_GPIO_Init+0x1aa>
 8001580:	f50e 3e80 	add.w	lr, lr, #65536	; 0x10000
 8001584:	4576      	cmp	r6, lr
 8001586:	f47f af69 	bne.w	800145c <HAL_GPIO_Init+0x7c>
 800158a:	688e      	ldr	r6, [r1, #8]
 800158c:	bb3e      	cbnz	r6, 80015de <HAL_GPIO_Init+0x1fe>
 800158e:	f04f 0a04 	mov.w	sl, #4
 8001592:	e763      	b.n	800145c <HAL_GPIO_Init+0x7c>
 8001594:	ea24 040c 	bic.w	r4, r4, ip
 8001598:	60ec      	str	r4, [r5, #12]
 800159a:	680e      	ldr	r6, [r1, #0]
 800159c:	e72f      	b.n	80013fe <HAL_GPIO_Init+0x1e>
 800159e:	68cc      	ldr	r4, [r1, #12]
 80015a0:	f104 0a04 	add.w	sl, r4, #4
 80015a4:	e75a      	b.n	800145c <HAL_GPIO_Init+0x7c>
 80015a6:	68cc      	ldr	r4, [r1, #12]
 80015a8:	f104 0a08 	add.w	sl, r4, #8
 80015ac:	e756      	b.n	800145c <HAL_GPIO_Init+0x7c>
 80015ae:	f8d1 a00c 	ldr.w	sl, [r1, #12]
 80015b2:	e753      	b.n	800145c <HAL_GPIO_Init+0x7c>
 80015b4:	68cc      	ldr	r4, [r1, #12]
 80015b6:	f104 0a0c 	add.w	sl, r4, #12
 80015ba:	e74f      	b.n	800145c <HAL_GPIO_Init+0x7c>
 80015bc:	f04f 0b02 	mov.w	fp, #2
 80015c0:	fa0b f909 	lsl.w	r9, fp, r9
 80015c4:	ea46 0609 	orr.w	r6, r6, r9
 80015c8:	e7a3      	b.n	8001512 <HAL_GPIO_Init+0x132>
 80015ca:	f04f 0b01 	mov.w	fp, #1
 80015ce:	fa0b f909 	lsl.w	r9, fp, r9
 80015d2:	ea46 0609 	orr.w	r6, r6, r9
 80015d6:	e79c      	b.n	8001512 <HAL_GPIO_Init+0x132>
 80015d8:	f04f 0a00 	mov.w	sl, #0
 80015dc:	e73e      	b.n	800145c <HAL_GPIO_Init+0x7c>
 80015de:	2e01      	cmp	r6, #1
 80015e0:	f04f 0a08 	mov.w	sl, #8
 80015e4:	bf0c      	ite	eq
 80015e6:	6104      	streq	r4, [r0, #16]
 80015e8:	6144      	strne	r4, [r0, #20]
 80015ea:	e737      	b.n	800145c <HAL_GPIO_Init+0x7c>
 80015ec:	f04f 0b03 	mov.w	fp, #3
 80015f0:	fa0b f909 	lsl.w	r9, fp, r9
 80015f4:	ea46 0609 	orr.w	r6, r6, r9
 80015f8:	e78b      	b.n	8001512 <HAL_GPIO_Init+0x132>
 80015fa:	f04f 0b04 	mov.w	fp, #4
 80015fe:	fa0b f909 	lsl.w	r9, fp, r9
 8001602:	ea46 0609 	orr.w	r6, r6, r9
 8001606:	e784      	b.n	8001512 <HAL_GPIO_Init+0x132>
 8001608:	40021000 	.word	0x40021000
 800160c:	40010400 	.word	0x40010400
 8001610:	10220000 	.word	0x10220000
 8001614:	10120000 	.word	0x10120000
 8001618:	40010800 	.word	0x40010800
 800161c:	40011000 	.word	0x40011000
 8001620:	40011400 	.word	0x40011400
 8001624:	40011800 	.word	0x40011800
 8001628:	40011c00 	.word	0x40011c00
 800162c:	10310000 	.word	0x10310000

08001630 <HAL_GPIO_WritePin>:
 8001630:	b902      	cbnz	r2, 8001634 <HAL_GPIO_WritePin+0x4>
 8001632:	0409      	lsls	r1, r1, #16
 8001634:	6101      	str	r1, [r0, #16]
 8001636:	4770      	bx	lr

08001638 <I2C_RequestMemoryWrite>:
 8001638:	e92d 4ff0 	stmdb	sp!, {r4, r5, r6, r7, r8, r9, sl, fp, lr}
 800163c:	4606      	mov	r6, r0
 800163e:	468a      	mov	sl, r1
 8001640:	4617      	mov	r7, r2
 8001642:	6804      	ldr	r4, [r0, #0]
 8001644:	4698      	mov	r8, r3
 8001646:	6823      	ldr	r3, [r4, #0]
 8001648:	b083      	sub	sp, #12
 800164a:	f443 7380 	orr.w	r3, r3, #256	; 0x100
 800164e:	6023      	str	r3, [r4, #0]
 8001650:	e9dd 9b0c 	ldrd	r9, fp, [sp, #48]	; 0x30
 8001654:	f1b9 3fff 	cmp.w	r9, #4294967295
 8001658:	d136      	bne.n	80016c8 <I2C_RequestMemoryWrite+0x90>
 800165a:	6965      	ldr	r5, [r4, #20]
 800165c:	07e8      	lsls	r0, r5, #31
 800165e:	d5fc      	bpl.n	800165a <I2C_RequestMemoryWrite+0x22>
 8001660:	f00a 01fe 	and.w	r1, sl, #254	; 0xfe
 8001664:	6121      	str	r1, [r4, #16]
 8001666:	f1b9 3fff 	cmp.w	r9, #4294967295
 800166a:	d003      	beq.n	8001674 <I2C_RequestMemoryWrite+0x3c>
 800166c:	e052      	b.n	8001714 <I2C_RequestMemoryWrite+0xdc>
 800166e:	6961      	ldr	r1, [r4, #20]
 8001670:	054d      	lsls	r5, r1, #21
 8001672:	d460      	bmi.n	8001736 <I2C_RequestMemoryWrite+0xfe>
 8001674:	6961      	ldr	r1, [r4, #20]
 8001676:	078b      	lsls	r3, r1, #30
 8001678:	d5f9      	bpl.n	800166e <I2C_RequestMemoryWrite+0x36>
 800167a:	2300      	movs	r3, #0
 800167c:	9301      	str	r3, [sp, #4]
 800167e:	6963      	ldr	r3, [r4, #20]
 8001680:	9301      	str	r3, [sp, #4]
 8001682:	69a3      	ldr	r3, [r4, #24]
 8001684:	9301      	str	r3, [sp, #4]
 8001686:	9b01      	ldr	r3, [sp, #4]
 8001688:	f1b9 3fff 	cmp.w	r9, #4294967295
 800168c:	f040 80a4 	bne.w	80017d8 <I2C_RequestMemoryWrite+0x1a0>
 8001690:	6963      	ldr	r3, [r4, #20]
 8001692:	061a      	lsls	r2, r3, #24
 8001694:	d467      	bmi.n	8001766 <I2C_RequestMemoryWrite+0x12e>
 8001696:	6963      	ldr	r3, [r4, #20]
 8001698:	055b      	lsls	r3, r3, #21
 800169a:	d5f9      	bpl.n	8001690 <I2C_RequestMemoryWrite+0x58>
 800169c:	2200      	movs	r2, #0
 800169e:	2320      	movs	r3, #32
 80016a0:	f46f 6180 	mvn.w	r1, #1024	; 0x400
 80016a4:	6161      	str	r1, [r4, #20]
 80016a6:	6332      	str	r2, [r6, #48]	; 0x30
 80016a8:	f886 303d 	strb.w	r3, [r6, #61]	; 0x3d
 80016ac:	f886 203e 	strb.w	r2, [r6, #62]	; 0x3e
 80016b0:	6c33      	ldr	r3, [r6, #64]	; 0x40
 80016b2:	f886 203c 	strb.w	r2, [r6, #60]	; 0x3c
 80016b6:	f043 0304 	orr.w	r3, r3, #4
 80016ba:	6433      	str	r3, [r6, #64]	; 0x40
 80016bc:	6c33      	ldr	r3, [r6, #64]	; 0x40
 80016be:	2b04      	cmp	r3, #4
 80016c0:	f000 8083 	beq.w	80017ca <I2C_RequestMemoryWrite+0x192>
 80016c4:	2001      	movs	r0, #1
 80016c6:	e04b      	b.n	8001760 <I2C_RequestMemoryWrite+0x128>
 80016c8:	6963      	ldr	r3, [r4, #20]
 80016ca:	07d9      	lsls	r1, r3, #31
 80016cc:	d4c8      	bmi.n	8001660 <I2C_RequestMemoryWrite+0x28>
 80016ce:	f7ff f9b5 	bl	8000a3c <HAL_GetTick>
 80016d2:	eba0 000b 	sub.w	r0, r0, fp
 80016d6:	4581      	cmp	r9, r0
 80016d8:	d304      	bcc.n	80016e4 <I2C_RequestMemoryWrite+0xac>
 80016da:	f1b9 0f00 	cmp.w	r9, #0
 80016de:	d001      	beq.n	80016e4 <I2C_RequestMemoryWrite+0xac>
 80016e0:	6834      	ldr	r4, [r6, #0]
 80016e2:	e7b7      	b.n	8001654 <I2C_RequestMemoryWrite+0x1c>
 80016e4:	2200      	movs	r2, #0
 80016e6:	2320      	movs	r3, #32
 80016e8:	6332      	str	r2, [r6, #48]	; 0x30
 80016ea:	f886 303d 	strb.w	r3, [r6, #61]	; 0x3d
 80016ee:	f886 203e 	strb.w	r2, [r6, #62]	; 0x3e
 80016f2:	6c33      	ldr	r3, [r6, #64]	; 0x40
 80016f4:	6831      	ldr	r1, [r6, #0]
 80016f6:	f043 0320 	orr.w	r3, r3, #32
 80016fa:	f886 203c 	strb.w	r2, [r6, #60]	; 0x3c
 80016fe:	6433      	str	r3, [r6, #64]	; 0x40
 8001700:	680b      	ldr	r3, [r1, #0]
 8001702:	05dc      	lsls	r4, r3, #23
 8001704:	d538      	bpl.n	8001778 <I2C_RequestMemoryWrite+0x140>
 8001706:	f44f 7300 	mov.w	r3, #512	; 0x200
 800170a:	2003      	movs	r0, #3
 800170c:	6433      	str	r3, [r6, #64]	; 0x40
 800170e:	b003      	add	sp, #12
 8001710:	e8bd 8ff0 	ldmia.w	sp!, {r4, r5, r6, r7, r8, r9, sl, fp, pc}
 8001714:	6963      	ldr	r3, [r4, #20]
 8001716:	0798      	lsls	r0, r3, #30
 8001718:	d4af      	bmi.n	800167a <I2C_RequestMemoryWrite+0x42>
 800171a:	6963      	ldr	r3, [r4, #20]
 800171c:	055a      	lsls	r2, r3, #21
 800171e:	d40a      	bmi.n	8001736 <I2C_RequestMemoryWrite+0xfe>
 8001720:	f7ff f98c 	bl	8000a3c <HAL_GetTick>
 8001724:	eba0 000b 	sub.w	r0, r0, fp
 8001728:	4581      	cmp	r9, r0
 800172a:	d367      	bcc.n	80017fc <I2C_RequestMemoryWrite+0x1c4>
 800172c:	f1b9 0f00 	cmp.w	r9, #0
 8001730:	d064      	beq.n	80017fc <I2C_RequestMemoryWrite+0x1c4>
 8001732:	6834      	ldr	r4, [r6, #0]
 8001734:	e797      	b.n	8001666 <I2C_RequestMemoryWrite+0x2e>
 8001736:	2200      	movs	r2, #0
 8001738:	f46f 6580 	mvn.w	r5, #1024	; 0x400
 800173c:	2120      	movs	r1, #32
 800173e:	2001      	movs	r0, #1
 8001740:	6823      	ldr	r3, [r4, #0]
 8001742:	f443 7300 	orr.w	r3, r3, #512	; 0x200
 8001746:	6023      	str	r3, [r4, #0]
 8001748:	6165      	str	r5, [r4, #20]
 800174a:	6332      	str	r2, [r6, #48]	; 0x30
 800174c:	f886 103d 	strb.w	r1, [r6, #61]	; 0x3d
 8001750:	f886 203e 	strb.w	r2, [r6, #62]	; 0x3e
 8001754:	6c33      	ldr	r3, [r6, #64]	; 0x40
 8001756:	f886 203c 	strb.w	r2, [r6, #60]	; 0x3c
 800175a:	f043 0304 	orr.w	r3, r3, #4
 800175e:	6433      	str	r3, [r6, #64]	; 0x40
 8001760:	b003      	add	sp, #12
 8001762:	e8bd 8ff0 	ldmia.w	sp!, {r4, r5, r6, r7, r8, r9, sl, fp, pc}
 8001766:	f1b8 0f01 	cmp.w	r8, #1
 800176a:	d109      	bne.n	8001780 <I2C_RequestMemoryWrite+0x148>
 800176c:	2000      	movs	r0, #0
 800176e:	b2ff      	uxtb	r7, r7
 8001770:	6127      	str	r7, [r4, #16]
 8001772:	b003      	add	sp, #12
 8001774:	e8bd 8ff0 	ldmia.w	sp!, {r4, r5, r6, r7, r8, r9, sl, fp, pc}
 8001778:	2003      	movs	r0, #3
 800177a:	b003      	add	sp, #12
 800177c:	e8bd 8ff0 	ldmia.w	sp!, {r4, r5, r6, r7, r8, r9, sl, fp, pc}
 8001780:	0a3b      	lsrs	r3, r7, #8
 8001782:	6123      	str	r3, [r4, #16]
 8001784:	f1b9 3fff 	cmp.w	r9, #4294967295
 8001788:	d147      	bne.n	800181a <I2C_RequestMemoryWrite+0x1e2>
 800178a:	6963      	ldr	r3, [r4, #20]
 800178c:	0619      	lsls	r1, r3, #24
 800178e:	d4ed      	bmi.n	800176c <I2C_RequestMemoryWrite+0x134>
 8001790:	6963      	ldr	r3, [r4, #20]
 8001792:	055a      	lsls	r2, r3, #21
 8001794:	d5f9      	bpl.n	800178a <I2C_RequestMemoryWrite+0x152>
 8001796:	2200      	movs	r2, #0
 8001798:	2320      	movs	r3, #32
 800179a:	f46f 6180 	mvn.w	r1, #1024	; 0x400
 800179e:	6161      	str	r1, [r4, #20]
 80017a0:	6332      	str	r2, [r6, #48]	; 0x30
 80017a2:	f886 303d 	strb.w	r3, [r6, #61]	; 0x3d
 80017a6:	f886 203e 	strb.w	r2, [r6, #62]	; 0x3e
 80017aa:	6c33      	ldr	r3, [r6, #64]	; 0x40
 80017ac:	f886 203c 	strb.w	r2, [r6, #60]	; 0x3c
 80017b0:	f043 0304 	orr.w	r3, r3, #4
 80017b4:	6433      	str	r3, [r6, #64]	; 0x40
 80017b6:	6c33      	ldr	r3, [r6, #64]	; 0x40
 80017b8:	2b04      	cmp	r3, #4
 80017ba:	d183      	bne.n	80016c4 <I2C_RequestMemoryWrite+0x8c>
 80017bc:	6832      	ldr	r2, [r6, #0]
 80017be:	2001      	movs	r0, #1
 80017c0:	6813      	ldr	r3, [r2, #0]
 80017c2:	f443 7300 	orr.w	r3, r3, #512	; 0x200
 80017c6:	6013      	str	r3, [r2, #0]
 80017c8:	e7ca      	b.n	8001760 <I2C_RequestMemoryWrite+0x128>
 80017ca:	6832      	ldr	r2, [r6, #0]
 80017cc:	2001      	movs	r0, #1
 80017ce:	6813      	ldr	r3, [r2, #0]
 80017d0:	f443 7300 	orr.w	r3, r3, #512	; 0x200
 80017d4:	6013      	str	r3, [r2, #0]
 80017d6:	e7c3      	b.n	8001760 <I2C_RequestMemoryWrite+0x128>
 80017d8:	6963      	ldr	r3, [r4, #20]
 80017da:	061d      	lsls	r5, r3, #24
 80017dc:	d4c3      	bmi.n	8001766 <I2C_RequestMemoryWrite+0x12e>
 80017de:	6963      	ldr	r3, [r4, #20]
 80017e0:	0559      	lsls	r1, r3, #21
 80017e2:	f53f af5b 	bmi.w	800169c <I2C_RequestMemoryWrite+0x64>
 80017e6:	f7ff f929 	bl	8000a3c <HAL_GetTick>
 80017ea:	eba0 030b 	sub.w	r3, r0, fp
 80017ee:	4599      	cmp	r9, r3
 80017f0:	d324      	bcc.n	800183c <I2C_RequestMemoryWrite+0x204>
 80017f2:	f1b9 0f00 	cmp.w	r9, #0
 80017f6:	d021      	beq.n	800183c <I2C_RequestMemoryWrite+0x204>
 80017f8:	6834      	ldr	r4, [r6, #0]
 80017fa:	e745      	b.n	8001688 <I2C_RequestMemoryWrite+0x50>
 80017fc:	2200      	movs	r2, #0
 80017fe:	2320      	movs	r3, #32
 8001800:	6332      	str	r2, [r6, #48]	; 0x30
 8001802:	f886 303d 	strb.w	r3, [r6, #61]	; 0x3d
 8001806:	f886 203e 	strb.w	r2, [r6, #62]	; 0x3e
 800180a:	6c33      	ldr	r3, [r6, #64]	; 0x40
 800180c:	2001      	movs	r0, #1
 800180e:	f043 0320 	orr.w	r3, r3, #32
 8001812:	f886 203c 	strb.w	r2, [r6, #60]	; 0x3c
 8001816:	6433      	str	r3, [r6, #64]	; 0x40
 8001818:	e7a2      	b.n	8001760 <I2C_RequestMemoryWrite+0x128>
 800181a:	6963      	ldr	r3, [r4, #20]
 800181c:	061b      	lsls	r3, r3, #24
 800181e:	d4a5      	bmi.n	800176c <I2C_RequestMemoryWrite+0x134>
 8001820:	6963      	ldr	r3, [r4, #20]
 8001822:	0558      	lsls	r0, r3, #21
 8001824:	d4b7      	bmi.n	8001796 <I2C_RequestMemoryWrite+0x15e>
 8001826:	f7ff f909 	bl	8000a3c <HAL_GetTick>
 800182a:	eba0 030b 	sub.w	r3, r0, fp
 800182e:	4599      	cmp	r9, r3
 8001830:	d312      	bcc.n	8001858 <I2C_RequestMemoryWrite+0x220>
 8001832:	f1b9 0f00 	cmp.w	r9, #0
 8001836:	d00f      	beq.n	8001858 <I2C_RequestMemoryWrite+0x220>
 8001838:	6834      	ldr	r4, [r6, #0]
 800183a:	e7a3      	b.n	8001784 <I2C_RequestMemoryWrite+0x14c>
 800183c:	2200      	movs	r2, #0
 800183e:	2320      	movs	r3, #32
 8001840:	6332      	str	r2, [r6, #48]	; 0x30
 8001842:	f886 303d 	strb.w	r3, [r6, #61]	; 0x3d
 8001846:	f886 203e 	strb.w	r2, [r6, #62]	; 0x3e
 800184a:	6c33      	ldr	r3, [r6, #64]	; 0x40
 800184c:	f886 203c 	strb.w	r2, [r6, #60]	; 0x3c
 8001850:	f043 0320 	orr.w	r3, r3, #32
 8001854:	6433      	str	r3, [r6, #64]	; 0x40
 8001856:	e731      	b.n	80016bc <I2C_RequestMemoryWrite+0x84>
 8001858:	2200      	movs	r2, #0
 800185a:	2320      	movs	r3, #32
 800185c:	6332      	str	r2, [r6, #48]	; 0x30
 800185e:	f886 303d 	strb.w	r3, [r6, #61]	; 0x3d
 8001862:	f886 203e 	strb.w	r2, [r6, #62]	; 0x3e
 8001866:	6c33      	ldr	r3, [r6, #64]	; 0x40
 8001868:	f886 203c 	strb.w	r2, [r6, #60]	; 0x3c
 800186c:	f043 0320 	orr.w	r3, r3, #32
 8001870:	6433      	str	r3, [r6, #64]	; 0x40
 8001872:	e7a0      	b.n	80017b6 <I2C_RequestMemoryWrite+0x17e>

08001874 <I2C_RequestMemoryRead>:
 8001874:	e92d 4ff0 	stmdb	sp!, {r4, r5, r6, r7, r8, r9, sl, fp, lr}
 8001878:	4606      	mov	r6, r0
 800187a:	468b      	mov	fp, r1
 800187c:	4617      	mov	r7, r2
 800187e:	6804      	ldr	r4, [r0, #0]
 8001880:	4698      	mov	r8, r3
 8001882:	6823      	ldr	r3, [r4, #0]
 8001884:	b083      	sub	sp, #12
 8001886:	f443 6380 	orr.w	r3, r3, #1024	; 0x400
 800188a:	6023      	str	r3, [r4, #0]
 800188c:	6823      	ldr	r3, [r4, #0]
 800188e:	e9dd a90c 	ldrd	sl, r9, [sp, #48]	; 0x30
 8001892:	f443 7380 	orr.w	r3, r3, #256	; 0x100
 8001896:	6023      	str	r3, [r4, #0]
 8001898:	f1ba 3fff 	cmp.w	sl, #4294967295
 800189c:	d139      	bne.n	8001912 <I2C_RequestMemoryRead+0x9e>
 800189e:	6965      	ldr	r5, [r4, #20]
 80018a0:	07eb      	lsls	r3, r5, #31
 80018a2:	d5fc      	bpl.n	800189e <I2C_RequestMemoryRead+0x2a>
 80018a4:	f00b 03fe 	and.w	r3, fp, #254	; 0xfe
 80018a8:	6123      	str	r3, [r4, #16]
 80018aa:	fa5f fb8b 	uxtb.w	fp, fp
 80018ae:	f1ba 3fff 	cmp.w	sl, #4294967295
 80018b2:	d003      	beq.n	80018bc <I2C_RequestMemoryRead+0x48>
 80018b4:	e06b      	b.n	800198e <I2C_RequestMemoryRead+0x11a>
 80018b6:	6961      	ldr	r1, [r4, #20]
 80018b8:	054a      	lsls	r2, r1, #21
 80018ba:	d450      	bmi.n	800195e <I2C_RequestMemoryRead+0xea>
 80018bc:	6961      	ldr	r1, [r4, #20]
 80018be:	0789      	lsls	r1, r1, #30
 80018c0:	d5f9      	bpl.n	80018b6 <I2C_RequestMemoryRead+0x42>
 80018c2:	2300      	movs	r3, #0
 80018c4:	9301      	str	r3, [sp, #4]
 80018c6:	6963      	ldr	r3, [r4, #20]
 80018c8:	9301      	str	r3, [sp, #4]
 80018ca:	69a3      	ldr	r3, [r4, #24]
 80018cc:	9301      	str	r3, [sp, #4]
 80018ce:	9b01      	ldr	r3, [sp, #4]
 80018d0:	f1ba 3fff 	cmp.w	sl, #4294967295
 80018d4:	f040 80bf 	bne.w	8001a56 <I2C_RequestMemoryRead+0x1e2>
 80018d8:	6963      	ldr	r3, [r4, #20]
 80018da:	0618      	lsls	r0, r3, #24
 80018dc:	d46a      	bmi.n	80019b4 <I2C_RequestMemoryRead+0x140>
 80018de:	6963      	ldr	r3, [r4, #20]
 80018e0:	0559      	lsls	r1, r3, #21
 80018e2:	d5f9      	bpl.n	80018d8 <I2C_RequestMemoryRead+0x64>
 80018e4:	2200      	movs	r2, #0
 80018e6:	2320      	movs	r3, #32
 80018e8:	f46f 6180 	mvn.w	r1, #1024	; 0x400
 80018ec:	6161      	str	r1, [r4, #20]
 80018ee:	6332      	str	r2, [r6, #48]	; 0x30
 80018f0:	f886 303d 	strb.w	r3, [r6, #61]	; 0x3d
 80018f4:	f886 203e 	strb.w	r2, [r6, #62]	; 0x3e
 80018f8:	6c33      	ldr	r3, [r6, #64]	; 0x40
 80018fa:	f886 203c 	strb.w	r2, [r6, #60]	; 0x3c
 80018fe:	f043 0304 	orr.w	r3, r3, #4
 8001902:	6433      	str	r3, [r6, #64]	; 0x40
 8001904:	6c33      	ldr	r3, [r6, #64]	; 0x40
 8001906:	2b04      	cmp	r3, #4
 8001908:	d073      	beq.n	80019f2 <I2C_RequestMemoryRead+0x17e>
 800190a:	2001      	movs	r0, #1
 800190c:	b003      	add	sp, #12
 800190e:	e8bd 8ff0 	ldmia.w	sp!, {r4, r5, r6, r7, r8, r9, sl, fp, pc}
 8001912:	6963      	ldr	r3, [r4, #20]
 8001914:	07dd      	lsls	r5, r3, #31
 8001916:	d4c5      	bmi.n	80018a4 <I2C_RequestMemoryRead+0x30>
 8001918:	f7ff f890 	bl	8000a3c <HAL_GetTick>
 800191c:	eba0 0009 	sub.w	r0, r0, r9
 8001920:	4582      	cmp	sl, r0
 8001922:	d304      	bcc.n	800192e <I2C_RequestMemoryRead+0xba>
 8001924:	f1ba 0f00 	cmp.w	sl, #0
 8001928:	d001      	beq.n	800192e <I2C_RequestMemoryRead+0xba>
 800192a:	6834      	ldr	r4, [r6, #0]
 800192c:	e7b4      	b.n	8001898 <I2C_RequestMemoryRead+0x24>
 800192e:	2200      	movs	r2, #0
 8001930:	2320      	movs	r3, #32
 8001932:	6332      	str	r2, [r6, #48]	; 0x30
 8001934:	f886 303d 	strb.w	r3, [r6, #61]	; 0x3d
 8001938:	f886 203e 	strb.w	r2, [r6, #62]	; 0x3e
 800193c:	6c33      	ldr	r3, [r6, #64]	; 0x40
 800193e:	6831      	ldr	r1, [r6, #0]
 8001940:	f043 0320 	orr.w	r3, r3, #32
 8001944:	f886 203c 	strb.w	r2, [r6, #60]	; 0x3c
 8001948:	6433      	str	r3, [r6, #64]	; 0x40
 800194a:	680b      	ldr	r3, [r1, #0]
 800194c:	05da      	lsls	r2, r3, #23
 800194e:	d540      	bpl.n	80019d2 <I2C_RequestMemoryRead+0x15e>
 8001950:	f44f 7300 	mov.w	r3, #512	; 0x200
 8001954:	2003      	movs	r0, #3
 8001956:	6433      	str	r3, [r6, #64]	; 0x40
 8001958:	b003      	add	sp, #12
 800195a:	e8bd 8ff0 	ldmia.w	sp!, {r4, r5, r6, r7, r8, r9, sl, fp, pc}
 800195e:	2200      	movs	r2, #0
 8001960:	f46f 6580 	mvn.w	r5, #1024	; 0x400
 8001964:	2120      	movs	r1, #32
 8001966:	2001      	movs	r0, #1
 8001968:	6823      	ldr	r3, [r4, #0]
 800196a:	f443 7300 	orr.w	r3, r3, #512	; 0x200
 800196e:	6023      	str	r3, [r4, #0]
 8001970:	6165      	str	r5, [r4, #20]
 8001972:	6332      	str	r2, [r6, #48]	; 0x30
 8001974:	f886 103d 	strb.w	r1, [r6, #61]	; 0x3d
 8001978:	f886 203e 	strb.w	r2, [r6, #62]	; 0x3e
 800197c:	6c33      	ldr	r3, [r6, #64]	; 0x40
 800197e:	f886 203c 	strb.w	r2, [r6, #60]	; 0x3c
 8001982:	f043 0304 	orr.w	r3, r3, #4
 8001986:	6433      	str	r3, [r6, #64]	; 0x40
 8001988:	b003      	add	sp, #12
 800198a:	e8bd 8ff0 	ldmia.w	sp!, {r4, r5, r6, r7, r8, r9, sl, fp, pc}
 800198e:	6963      	ldr	r3, [r4, #20]
 8001990:	079b      	lsls	r3, r3, #30
 8001992:	d496      	bmi.n	80018c2 <I2C_RequestMemoryRead+0x4e>
 8001994:	6963      	ldr	r3, [r4, #20]
 8001996:	0558      	lsls	r0, r3, #21
 8001998:	d4e1      	bmi.n	800195e <I2C_RequestMemoryRead+0xea>
 800199a:	f7ff f84f 	bl	8000a3c <HAL_GetTick>
 800199e:	eba0 0009 	sub.w	r0, r0, r9
 80019a2:	4582      	cmp	sl, r0
 80019a4:	f0c0 808f 	bcc.w	8001ac6 <I2C_RequestMemoryRead+0x252>
 80019a8:	f1ba 0f00 	cmp.w	sl, #0
 80019ac:	f000 808b 	beq.w	8001ac6 <I2C_RequestMemoryRead+0x252>
 80019b0:	6834      	ldr	r4, [r6, #0]
 80019b2:	e77c      	b.n	80018ae <I2C_RequestMemoryRead+0x3a>
 80019b4:	f1b8 0f01 	cmp.w	r8, #1
 80019b8:	d10f      	bne.n	80019da <I2C_RequestMemoryRead+0x166>
 80019ba:	b2ff      	uxtb	r7, r7
 80019bc:	6127      	str	r7, [r4, #16]
 80019be:	f1ba 3fff 	cmp.w	sl, #4294967295
 80019c2:	d16e      	bne.n	8001aa2 <I2C_RequestMemoryRead+0x22e>
 80019c4:	6963      	ldr	r3, [r4, #20]
 80019c6:	061b      	lsls	r3, r3, #24
 80019c8:	d41a      	bmi.n	8001a00 <I2C_RequestMemoryRead+0x18c>
 80019ca:	6963      	ldr	r3, [r4, #20]
 80019cc:	055f      	lsls	r7, r3, #21
 80019ce:	d5f9      	bpl.n	80019c4 <I2C_RequestMemoryRead+0x150>
 80019d0:	e788      	b.n	80018e4 <I2C_RequestMemoryRead+0x70>
 80019d2:	2003      	movs	r0, #3
 80019d4:	b003      	add	sp, #12
 80019d6:	e8bd 8ff0 	ldmia.w	sp!, {r4, r5, r6, r7, r8, r9, sl, fp, pc}
 80019da:	0a3b      	lsrs	r3, r7, #8
 80019dc:	6123      	str	r3, [r4, #16]
 80019de:	f1ba 3fff 	cmp.w	sl, #4294967295
 80019e2:	d17f      	bne.n	8001ae4 <I2C_RequestMemoryRead+0x270>
 80019e4:	6963      	ldr	r3, [r4, #20]
 80019e6:	061d      	lsls	r5, r3, #24
 80019e8:	d4e7      	bmi.n	80019ba <I2C_RequestMemoryRead+0x146>
 80019ea:	6963      	ldr	r3, [r4, #20]
 80019ec:	0558      	lsls	r0, r3, #21
 80019ee:	d5f9      	bpl.n	80019e4 <I2C_RequestMemoryRead+0x170>
 80019f0:	e778      	b.n	80018e4 <I2C_RequestMemoryRead+0x70>
 80019f2:	6832      	ldr	r2, [r6, #0]
 80019f4:	2001      	movs	r0, #1
 80019f6:	6813      	ldr	r3, [r2, #0]
 80019f8:	f443 7300 	orr.w	r3, r3, #512	; 0x200
 80019fc:	6013      	str	r3, [r2, #0]
 80019fe:	e7c3      	b.n	8001988 <I2C_RequestMemoryRead+0x114>
 8001a00:	6823      	ldr	r3, [r4, #0]
 8001a02:	f443 7380 	orr.w	r3, r3, #256	; 0x100
 8001a06:	6023      	str	r3, [r4, #0]
 8001a08:	f1ba 3fff 	cmp.w	sl, #4294967295
 8001a0c:	d113      	bne.n	8001a36 <I2C_RequestMemoryRead+0x1c2>
 8001a0e:	6963      	ldr	r3, [r4, #20]
 8001a10:	07d8      	lsls	r0, r3, #31
 8001a12:	d5fc      	bpl.n	8001a0e <I2C_RequestMemoryRead+0x19a>
 8001a14:	f04b 0301 	orr.w	r3, fp, #1
 8001a18:	6123      	str	r3, [r4, #16]
 8001a1a:	f1ba 3fff 	cmp.w	sl, #4294967295
 8001a1e:	d003      	beq.n	8001a28 <I2C_RequestMemoryRead+0x1b4>
 8001a20:	e02b      	b.n	8001a7a <I2C_RequestMemoryRead+0x206>
 8001a22:	6963      	ldr	r3, [r4, #20]
 8001a24:	055b      	lsls	r3, r3, #21
 8001a26:	d49a      	bmi.n	800195e <I2C_RequestMemoryRead+0xea>
 8001a28:	6963      	ldr	r3, [r4, #20]
 8001a2a:	43db      	mvns	r3, r3
 8001a2c:	f013 0302 	ands.w	r3, r3, #2
 8001a30:	d1f7      	bne.n	8001a22 <I2C_RequestMemoryRead+0x1ae>
 8001a32:	4618      	mov	r0, r3
 8001a34:	e7a8      	b.n	8001988 <I2C_RequestMemoryRead+0x114>
 8001a36:	6963      	ldr	r3, [r4, #20]
 8001a38:	07d9      	lsls	r1, r3, #31
 8001a3a:	d4eb      	bmi.n	8001a14 <I2C_RequestMemoryRead+0x1a0>
 8001a3c:	f7fe fffe 	bl	8000a3c <HAL_GetTick>
 8001a40:	eba0 0309 	sub.w	r3, r0, r9
 8001a44:	459a      	cmp	sl, r3
 8001a46:	f4ff af72 	bcc.w	800192e <I2C_RequestMemoryRead+0xba>
 8001a4a:	f1ba 0f00 	cmp.w	sl, #0
 8001a4e:	f43f af6e 	beq.w	800192e <I2C_RequestMemoryRead+0xba>
 8001a52:	6834      	ldr	r4, [r6, #0]
 8001a54:	e7d8      	b.n	8001a08 <I2C_RequestMemoryRead+0x194>
 8001a56:	6963      	ldr	r3, [r4, #20]
 8001a58:	061a      	lsls	r2, r3, #24
 8001a5a:	d4ab      	bmi.n	80019b4 <I2C_RequestMemoryRead+0x140>
 8001a5c:	6963      	ldr	r3, [r4, #20]
 8001a5e:	055d      	lsls	r5, r3, #21
 8001a60:	f53f af40 	bmi.w	80018e4 <I2C_RequestMemoryRead+0x70>
 8001a64:	f7fe ffea 	bl	8000a3c <HAL_GetTick>
 8001a68:	eba0 0309 	sub.w	r3, r0, r9
 8001a6c:	459a      	cmp	sl, r3
 8001a6e:	d34c      	bcc.n	8001b0a <I2C_RequestMemoryRead+0x296>
 8001a70:	f1ba 0f00 	cmp.w	sl, #0
 8001a74:	d049      	beq.n	8001b0a <I2C_RequestMemoryRead+0x296>
 8001a76:	6834      	ldr	r4, [r6, #0]
 8001a78:	e72a      	b.n	80018d0 <I2C_RequestMemoryRead+0x5c>
 8001a7a:	6963      	ldr	r3, [r4, #20]
 8001a7c:	43db      	mvns	r3, r3
 8001a7e:	f013 0302 	ands.w	r3, r3, #2
 8001a82:	d0d6      	beq.n	8001a32 <I2C_RequestMemoryRead+0x1be>
 8001a84:	6963      	ldr	r3, [r4, #20]
 8001a86:	055a      	lsls	r2, r3, #21
 8001a88:	f53f af69 	bmi.w	800195e <I2C_RequestMemoryRead+0xea>
 8001a8c:	f7fe ffd6 	bl	8000a3c <HAL_GetTick>
 8001a90:	eba0 0309 	sub.w	r3, r0, r9
 8001a94:	459a      	cmp	sl, r3
 8001a96:	d316      	bcc.n	8001ac6 <I2C_RequestMemoryRead+0x252>
 8001a98:	f1ba 0f00 	cmp.w	sl, #0
 8001a9c:	d013      	beq.n	8001ac6 <I2C_RequestMemoryRead+0x252>
 8001a9e:	6834      	ldr	r4, [r6, #0]
 8001aa0:	e7bb      	b.n	8001a1a <I2C_RequestMemoryRead+0x1a6>
 8001aa2:	6963      	ldr	r3, [r4, #20]
 8001aa4:	061d      	lsls	r5, r3, #24
 8001aa6:	d4ab      	bmi.n	8001a00 <I2C_RequestMemoryRead+0x18c>
 8001aa8:	6963      	ldr	r3, [r4, #20]
 8001aaa:	055a      	lsls	r2, r3, #21
 8001aac:	f53f af1a 	bmi.w	80018e4 <I2C_RequestMemoryRead+0x70>
 8001ab0:	f7fe ffc4 	bl	8000a3c <HAL_GetTick>
 8001ab4:	eba0 0309 	sub.w	r3, r0, r9
 8001ab8:	459a      	cmp	sl, r3
 8001aba:	d326      	bcc.n	8001b0a <I2C_RequestMemoryRead+0x296>
 8001abc:	f1ba 0f00 	cmp.w	sl, #0
 8001ac0:	d023      	beq.n	8001b0a <I2C_RequestMemoryRead+0x296>
 8001ac2:	6834      	ldr	r4, [r6, #0]
 8001ac4:	e77b      	b.n	80019be <I2C_RequestMemoryRead+0x14a>
 8001ac6:	2200      	movs	r2, #0
 8001ac8:	2320      	movs	r3, #32
 8001aca:	6332      	str	r2, [r6, #48]	; 0x30
 8001acc:	f886 303d 	strb.w	r3, [r6, #61]	; 0x3d
 8001ad0:	f886 203e 	strb.w	r2, [r6, #62]	; 0x3e
 8001ad4:	6c33      	ldr	r3, [r6, #64]	; 0x40
 8001ad6:	2001      	movs	r0, #1
 8001ad8:	f043 0320 	orr.w	r3, r3, #32
 8001adc:	f886 203c 	strb.w	r2, [r6, #60]	; 0x3c
 8001ae0:	6433      	str	r3, [r6, #64]	; 0x40
 8001ae2:	e751      	b.n	8001988 <I2C_RequestMemoryRead+0x114>
 8001ae4:	6963      	ldr	r3, [r4, #20]
 8001ae6:	0619      	lsls	r1, r3, #24
 8001ae8:	f53f af67 	bmi.w	80019ba <I2C_RequestMemoryRead+0x146>
 8001aec:	6963      	ldr	r3, [r4, #20]
 8001aee:	055b      	lsls	r3, r3, #21
 8001af0:	f53f aef8 	bmi.w	80018e4 <I2C_RequestMemoryRead+0x70>
 8001af4:	f7fe ffa2 	bl	8000a3c <HAL_GetTick>
 8001af8:	eba0 0309 	sub.w	r3, r0, r9
 8001afc:	459a      	cmp	sl, r3
 8001afe:	d304      	bcc.n	8001b0a <I2C_RequestMemoryRead+0x296>
 8001b00:	f1ba 0f00 	cmp.w	sl, #0
 8001b04:	d001      	beq.n	8001b0a <I2C_RequestMemoryRead+0x296>
 8001b06:	6834      	ldr	r4, [r6, #0]
 8001b08:	e769      	b.n	80019de <I2C_RequestMemoryRead+0x16a>
 8001b0a:	2200      	movs	r2, #0
 8001b0c:	2320      	movs	r3, #32
 8001b0e:	6332      	str	r2, [r6, #48]	; 0x30
 8001b10:	f886 303d 	strb.w	r3, [r6, #61]	; 0x3d
 8001b14:	f886 203e 	strb.w	r2, [r6, #62]	; 0x3e
 8001b18:	6c33      	ldr	r3, [r6, #64]	; 0x40
 8001b1a:	f886 203c 	strb.w	r2, [r6, #60]	; 0x3c
 8001b1e:	f043 0320 	orr.w	r3, r3, #32
 8001b22:	6433      	str	r3, [r6, #64]	; 0x40
 8001b24:	e6ee      	b.n	8001904 <I2C_RequestMemoryRead+0x90>
 8001b26:	bf00      	nop

08001b28 <HAL_I2C_Init>:
 8001b28:	2800      	cmp	r0, #0
 8001b2a:	f000 80b9 	beq.w	8001ca0 <HAL_I2C_Init+0x178>
 8001b2e:	b538      	push	{r3, r4, r5, lr}
 8001b30:	f890 303d 	ldrb.w	r3, [r0, #61]	; 0x3d
 8001b34:	4604      	mov	r4, r0
 8001b36:	f003 02ff 	and.w	r2, r3, #255	; 0xff
 8001b3a:	2b00      	cmp	r3, #0
 8001b3c:	f000 8098 	beq.w	8001c70 <HAL_I2C_Init+0x148>
 8001b40:	2224      	movs	r2, #36	; 0x24
 8001b42:	6823      	ldr	r3, [r4, #0]
 8001b44:	f884 203d 	strb.w	r2, [r4, #61]	; 0x3d
 8001b48:	681a      	ldr	r2, [r3, #0]
 8001b4a:	f022 0201 	bic.w	r2, r2, #1
 8001b4e:	601a      	str	r2, [r3, #0]
 8001b50:	681a      	ldr	r2, [r3, #0]
 8001b52:	f442 4200 	orr.w	r2, r2, #32768	; 0x8000
 8001b56:	601a      	str	r2, [r3, #0]
 8001b58:	681a      	ldr	r2, [r3, #0]
 8001b5a:	f422 4200 	bic.w	r2, r2, #32768	; 0x8000
 8001b5e:	601a      	str	r2, [r3, #0]
 8001b60:	f000 fe5a 	bl	8002818 <HAL_RCC_GetPCLK1Freq>
 8001b64:	6863      	ldr	r3, [r4, #4]
 8001b66:	494f      	ldr	r1, [pc, #316]	; (8001ca4 <HAL_I2C_Init+0x17c>)
 8001b68:	428b      	cmp	r3, r1
 8001b6a:	d84f      	bhi.n	8001c0c <HAL_I2C_Init+0xe4>
 8001b6c:	4a4e      	ldr	r2, [pc, #312]	; (8001ca8 <HAL_I2C_Init+0x180>)
 8001b6e:	4290      	cmp	r0, r2
 8001b70:	d97c      	bls.n	8001c6c <HAL_I2C_Init+0x144>
 8001b72:	4d4e      	ldr	r5, [pc, #312]	; (8001cac <HAL_I2C_Init+0x184>)
 8001b74:	005a      	lsls	r2, r3, #1
 8001b76:	fba5 3500 	umull	r3, r5, r5, r0
 8001b7a:	1e43      	subs	r3, r0, #1
 8001b7c:	fbb3 f3f2 	udiv	r3, r3, r2
 8001b80:	f640 7efc 	movw	lr, #4092	; 0xffc
 8001b84:	6822      	ldr	r2, [r4, #0]
 8001b86:	0ca9      	lsrs	r1, r5, #18
 8001b88:	6850      	ldr	r0, [r2, #4]
 8001b8a:	f101 0c01 	add.w	ip, r1, #1
 8001b8e:	f020 003f 	bic.w	r0, r0, #63	; 0x3f
 8001b92:	ea40 4095 	orr.w	r0, r0, r5, lsr #18
 8001b96:	6050      	str	r0, [r2, #4]
 8001b98:	6a11      	ldr	r1, [r2, #32]
 8001b9a:	3301      	adds	r3, #1
 8001b9c:	f021 013f 	bic.w	r1, r1, #63	; 0x3f
 8001ba0:	ea41 010c 	orr.w	r1, r1, ip
 8001ba4:	6211      	str	r1, [r2, #32]
 8001ba6:	69d1      	ldr	r1, [r2, #28]
 8001ba8:	ea13 0f0e 	tst.w	r3, lr
 8001bac:	f421 414f 	bic.w	r1, r1, #52992	; 0xcf00
 8001bb0:	f021 01ff 	bic.w	r1, r1, #255	; 0xff
 8001bb4:	d161      	bne.n	8001c7a <HAL_I2C_Init+0x152>
 8001bb6:	2304      	movs	r3, #4
 8001bb8:	430b      	orrs	r3, r1
 8001bba:	61d3      	str	r3, [r2, #28]
 8001bbc:	6811      	ldr	r1, [r2, #0]
 8001bbe:	e9d4 3007 	ldrd	r3, r0, [r4, #28]
 8001bc2:	f021 01c0 	bic.w	r1, r1, #192	; 0xc0
 8001bc6:	4303      	orrs	r3, r0
 8001bc8:	430b      	orrs	r3, r1
 8001bca:	6013      	str	r3, [r2, #0]
 8001bcc:	6891      	ldr	r1, [r2, #8]
 8001bce:	e9d4 0303 	ldrd	r0, r3, [r4, #12]
 8001bd2:	f421 4103 	bic.w	r1, r1, #33536	; 0x8300
 8001bd6:	4303      	orrs	r3, r0
 8001bd8:	f021 01ff 	bic.w	r1, r1, #255	; 0xff
 8001bdc:	430b      	orrs	r3, r1
 8001bde:	6093      	str	r3, [r2, #8]
 8001be0:	68d0      	ldr	r0, [r2, #12]
 8001be2:	e9d4 3105 	ldrd	r3, r1, [r4, #20]
 8001be6:	f020 00ff 	bic.w	r0, r0, #255	; 0xff
 8001bea:	430b      	orrs	r3, r1
 8001bec:	4303      	orrs	r3, r0
 8001bee:	60d3      	str	r3, [r2, #12]
 8001bf0:	6813      	ldr	r3, [r2, #0]
 8001bf2:	2100      	movs	r1, #0
 8001bf4:	f043 0301 	orr.w	r3, r3, #1
 8001bf8:	6013      	str	r3, [r2, #0]
 8001bfa:	2320      	movs	r3, #32
 8001bfc:	6421      	str	r1, [r4, #64]	; 0x40
 8001bfe:	f884 303d 	strb.w	r3, [r4, #61]	; 0x3d
 8001c02:	6321      	str	r1, [r4, #48]	; 0x30
 8001c04:	f884 103e 	strb.w	r1, [r4, #62]	; 0x3e
 8001c08:	4608      	mov	r0, r1
 8001c0a:	bd38      	pop	{r3, r4, r5, pc}
 8001c0c:	4a28      	ldr	r2, [pc, #160]	; (8001cb0 <HAL_I2C_Init+0x188>)
 8001c0e:	4290      	cmp	r0, r2
 8001c10:	d92c      	bls.n	8001c6c <HAL_I2C_Init+0x144>
 8001c12:	4d26      	ldr	r5, [pc, #152]	; (8001cac <HAL_I2C_Init+0x184>)
 8001c14:	fba5 2c00 	umull	r2, ip, r5, r0
 8001c18:	f44f 7296 	mov.w	r2, #300	; 0x12c
 8001c1c:	ea4f 419c 	mov.w	r1, ip, lsr #18
 8001c20:	fb02 f101 	mul.w	r1, r2, r1
 8001c24:	4d23      	ldr	r5, [pc, #140]	; (8001cb4 <HAL_I2C_Init+0x18c>)
 8001c26:	6822      	ldr	r2, [r4, #0]
 8001c28:	fba5 5101 	umull	r5, r1, r5, r1
 8001c2c:	6855      	ldr	r5, [r2, #4]
 8001c2e:	0989      	lsrs	r1, r1, #6
 8001c30:	f025 053f 	bic.w	r5, r5, #63	; 0x3f
 8001c34:	ea45 459c 	orr.w	r5, r5, ip, lsr #18
 8001c38:	6055      	str	r5, [r2, #4]
 8001c3a:	6a15      	ldr	r5, [r2, #32]
 8001c3c:	3101      	adds	r1, #1
 8001c3e:	f025 053f 	bic.w	r5, r5, #63	; 0x3f
 8001c42:	4329      	orrs	r1, r5
 8001c44:	6211      	str	r1, [r2, #32]
 8001c46:	69d1      	ldr	r1, [r2, #28]
 8001c48:	68a5      	ldr	r5, [r4, #8]
 8001c4a:	f421 414f 	bic.w	r1, r1, #52992	; 0xcf00
 8001c4e:	f021 01ff 	bic.w	r1, r1, #255	; 0xff
 8001c52:	b9ad      	cbnz	r5, 8001c80 <HAL_I2C_Init+0x158>
 8001c54:	3801      	subs	r0, #1
 8001c56:	eb03 0343 	add.w	r3, r3, r3, lsl #1
 8001c5a:	fbb0 f3f3 	udiv	r3, r0, r3
 8001c5e:	3301      	adds	r3, #1
 8001c60:	f3c3 030b 	ubfx	r3, r3, #0, #12
 8001c64:	b1d3      	cbz	r3, 8001c9c <HAL_I2C_Init+0x174>
 8001c66:	f443 4300 	orr.w	r3, r3, #32768	; 0x8000
 8001c6a:	e7a5      	b.n	8001bb8 <HAL_I2C_Init+0x90>
 8001c6c:	2001      	movs	r0, #1
 8001c6e:	bd38      	pop	{r3, r4, r5, pc}
 8001c70:	f880 203c 	strb.w	r2, [r0, #60]	; 0x3c
 8001c74:	f7fe fcba 	bl	80005ec <HAL_I2C_MspInit>
 8001c78:	e762      	b.n	8001b40 <HAL_I2C_Init+0x18>
 8001c7a:	f3c3 030b 	ubfx	r3, r3, #0, #12
 8001c7e:	e79b      	b.n	8001bb8 <HAL_I2C_Init+0x90>
 8001c80:	eb03 0383 	add.w	r3, r3, r3, lsl #2
 8001c84:	3801      	subs	r0, #1
 8001c86:	eb03 0383 	add.w	r3, r3, r3, lsl #2
 8001c8a:	fbb0 f3f3 	udiv	r3, r0, r3
 8001c8e:	3301      	adds	r3, #1
 8001c90:	f3c3 030b 	ubfx	r3, r3, #0, #12
 8001c94:	b113      	cbz	r3, 8001c9c <HAL_I2C_Init+0x174>
 8001c96:	f443 4340 	orr.w	r3, r3, #49152	; 0xc000
 8001c9a:	e78d      	b.n	8001bb8 <HAL_I2C_Init+0x90>
 8001c9c:	2301      	movs	r3, #1
 8001c9e:	e78b      	b.n	8001bb8 <HAL_I2C_Init+0x90>
 8001ca0:	2001      	movs	r0, #1
 8001ca2:	4770      	bx	lr
 8001ca4:	000186a0 	.word	0x000186a0
 8001ca8:	001e847f 	.word	0x001e847f
 8001cac:	431bde83 	.word	0x431bde83
 8001cb0:	003d08ff 	.word	0x003d08ff
 8001cb4:	10624dd3 	.word	0x10624dd3

08001cb8 <HAL_I2C_Mem_Write>:
 8001cb8:	e92d 4ff0 	stmdb	sp!, {r4, r5, r6, r7, r8, r9, sl, fp, lr}
 8001cbc:	4604      	mov	r4, r0
 8001cbe:	b083      	sub	sp, #12
 8001cc0:	4699      	mov	r9, r3
 8001cc2:	460f      	mov	r7, r1
 8001cc4:	4690      	mov	r8, r2
 8001cc6:	f8bd a034 	ldrh.w	sl, [sp, #52]	; 0x34
 8001cca:	9e0e      	ldr	r6, [sp, #56]	; 0x38
 8001ccc:	f7fe feb6 	bl	8000a3c <HAL_GetTick>
 8001cd0:	f894 303d 	ldrb.w	r3, [r4, #61]	; 0x3d
 8001cd4:	2b20      	cmp	r3, #32
 8001cd6:	d004      	beq.n	8001ce2 <HAL_I2C_Mem_Write+0x2a>
 8001cd8:	2702      	movs	r7, #2
 8001cda:	4638      	mov	r0, r7
 8001cdc:	b003      	add	sp, #12
 8001cde:	e8bd 8ff0 	ldmia.w	sp!, {r4, r5, r6, r7, r8, r9, sl, fp, pc}
 8001ce2:	4605      	mov	r5, r0
 8001ce4:	e005      	b.n	8001cf2 <HAL_I2C_Mem_Write+0x3a>
 8001ce6:	f7fe fea9 	bl	8000a3c <HAL_GetTick>
 8001cea:	1b40      	subs	r0, r0, r5
 8001cec:	2819      	cmp	r0, #25
 8001cee:	f200 80c0 	bhi.w	8001e72 <HAL_I2C_Mem_Write+0x1ba>
 8001cf2:	6820      	ldr	r0, [r4, #0]
 8001cf4:	6983      	ldr	r3, [r0, #24]
 8001cf6:	ea6f 0c03 	mvn.w	ip, r3
 8001cfa:	f01c 0b02 	ands.w	fp, ip, #2
 8001cfe:	d0f2      	beq.n	8001ce6 <HAL_I2C_Mem_Write+0x2e>
 8001d00:	f894 303c 	ldrb.w	r3, [r4, #60]	; 0x3c
 8001d04:	2b01      	cmp	r3, #1
 8001d06:	d0e7      	beq.n	8001cd8 <HAL_I2C_Mem_Write+0x20>
 8001d08:	2301      	movs	r3, #1
 8001d0a:	f884 303c 	strb.w	r3, [r4, #60]	; 0x3c
 8001d0e:	6803      	ldr	r3, [r0, #0]
 8001d10:	07db      	lsls	r3, r3, #31
 8001d12:	f140 808e 	bpl.w	8001e32 <HAL_I2C_Mem_Write+0x17a>
 8001d16:	4642      	mov	r2, r8
 8001d18:	f04f 0e40 	mov.w	lr, #64	; 0x40
 8001d1c:	f04f 0c00 	mov.w	ip, #0
 8001d20:	f04f 0821 	mov.w	r8, #33	; 0x21
 8001d24:	4639      	mov	r1, r7
 8001d26:	6807      	ldr	r7, [r0, #0]
 8001d28:	464b      	mov	r3, r9
 8001d2a:	f427 6700 	bic.w	r7, r7, #2048	; 0x800
 8001d2e:	6007      	str	r7, [r0, #0]
 8001d30:	980c      	ldr	r0, [sp, #48]	; 0x30
 8001d32:	6260      	str	r0, [r4, #36]	; 0x24
 8001d34:	e9cd 6500 	strd	r6, r5, [sp]
 8001d38:	f884 803d 	strb.w	r8, [r4, #61]	; 0x3d
 8001d3c:	f884 e03e 	strb.w	lr, [r4, #62]	; 0x3e
 8001d40:	f8c4 c040 	str.w	ip, [r4, #64]	; 0x40
 8001d44:	f8a4 a02a 	strh.w	sl, [r4, #42]	; 0x2a
 8001d48:	8d60      	ldrh	r0, [r4, #42]	; 0x2a
 8001d4a:	8520      	strh	r0, [r4, #40]	; 0x28
 8001d4c:	486a      	ldr	r0, [pc, #424]	; (8001ef8 <HAL_I2C_Mem_Write+0x240>)
 8001d4e:	62e0      	str	r0, [r4, #44]	; 0x2c
 8001d50:	4620      	mov	r0, r4
 8001d52:	f7ff fc71 	bl	8001638 <I2C_RequestMemoryWrite>
 8001d56:	4607      	mov	r7, r0
 8001d58:	bb00      	cbnz	r0, 8001d9c <HAL_I2C_Mem_Write+0xe4>
 8001d5a:	8d23      	ldrh	r3, [r4, #40]	; 0x28
 8001d5c:	2b00      	cmp	r3, #0
 8001d5e:	f000 80ba 	beq.w	8001ed6 <HAL_I2C_Mem_Write+0x21e>
 8001d62:	6823      	ldr	r3, [r4, #0]
 8001d64:	1c71      	adds	r1, r6, #1
 8001d66:	d169      	bne.n	8001e3c <HAL_I2C_Mem_Write+0x184>
 8001d68:	695a      	ldr	r2, [r3, #20]
 8001d6a:	0612      	lsls	r2, r2, #24
 8001d6c:	d41b      	bmi.n	8001da6 <HAL_I2C_Mem_Write+0xee>
 8001d6e:	695a      	ldr	r2, [r3, #20]
 8001d70:	0550      	lsls	r0, r2, #21
 8001d72:	d5f9      	bpl.n	8001d68 <HAL_I2C_Mem_Write+0xb0>
 8001d74:	2200      	movs	r2, #0
 8001d76:	f46f 6080 	mvn.w	r0, #1024	; 0x400
 8001d7a:	2120      	movs	r1, #32
 8001d7c:	6158      	str	r0, [r3, #20]
 8001d7e:	6322      	str	r2, [r4, #48]	; 0x30
 8001d80:	f884 103d 	strb.w	r1, [r4, #61]	; 0x3d
 8001d84:	f884 203e 	strb.w	r2, [r4, #62]	; 0x3e
 8001d88:	6c23      	ldr	r3, [r4, #64]	; 0x40
 8001d8a:	f884 203c 	strb.w	r2, [r4, #60]	; 0x3c
 8001d8e:	f043 0304 	orr.w	r3, r3, #4
 8001d92:	6423      	str	r3, [r4, #64]	; 0x40
 8001d94:	6c23      	ldr	r3, [r4, #64]	; 0x40
 8001d96:	2b04      	cmp	r3, #4
 8001d98:	f000 808a 	beq.w	8001eb0 <HAL_I2C_Mem_Write+0x1f8>
 8001d9c:	2701      	movs	r7, #1
 8001d9e:	4638      	mov	r0, r7
 8001da0:	b003      	add	sp, #12
 8001da2:	e8bd 8ff0 	ldmia.w	sp!, {r4, r5, r6, r7, r8, r9, sl, fp, pc}
 8001da6:	6a60      	ldr	r0, [r4, #36]	; 0x24
 8001da8:	f8b4 c028 	ldrh.w	ip, [r4, #40]	; 0x28
 8001dac:	4602      	mov	r2, r0
 8001dae:	f812 eb01 	ldrb.w	lr, [r2], #1
 8001db2:	f10c 31ff 	add.w	r1, ip, #4294967295
 8001db6:	f8c3 e010 	str.w	lr, [r3, #16]
 8001dba:	6262      	str	r2, [r4, #36]	; 0x24
 8001dbc:	8d62      	ldrh	r2, [r4, #42]	; 0x2a
 8001dbe:	b289      	uxth	r1, r1
 8001dc0:	3a01      	subs	r2, #1
 8001dc2:	b292      	uxth	r2, r2
 8001dc4:	8562      	strh	r2, [r4, #42]	; 0x2a
 8001dc6:	695a      	ldr	r2, [r3, #20]
 8001dc8:	8521      	strh	r1, [r4, #40]	; 0x28
 8001dca:	0752      	lsls	r2, r2, #29
 8001dcc:	d52e      	bpl.n	8001e2c <HAL_I2C_Mem_Write+0x174>
 8001dce:	bb09      	cbnz	r1, 8001e14 <HAL_I2C_Mem_Write+0x15c>
 8001dd0:	1c72      	adds	r2, r6, #1
 8001dd2:	d174      	bne.n	8001ebe <HAL_I2C_Mem_Write+0x206>
 8001dd4:	695a      	ldr	r2, [r3, #20]
 8001dd6:	0750      	lsls	r0, r2, #29
 8001dd8:	d45d      	bmi.n	8001e96 <HAL_I2C_Mem_Write+0x1de>
 8001dda:	695a      	ldr	r2, [r3, #20]
 8001ddc:	0551      	lsls	r1, r2, #21
 8001dde:	d5f9      	bpl.n	8001dd4 <HAL_I2C_Mem_Write+0x11c>
 8001de0:	2200      	movs	r2, #0
 8001de2:	f46f 6080 	mvn.w	r0, #1024	; 0x400
 8001de6:	2120      	movs	r1, #32
 8001de8:	6158      	str	r0, [r3, #20]
 8001dea:	6322      	str	r2, [r4, #48]	; 0x30
 8001dec:	f884 103d 	strb.w	r1, [r4, #61]	; 0x3d
 8001df0:	f884 203e 	strb.w	r2, [r4, #62]	; 0x3e
 8001df4:	6c23      	ldr	r3, [r4, #64]	; 0x40
 8001df6:	f884 203c 	strb.w	r2, [r4, #60]	; 0x3c
 8001dfa:	f043 0304 	orr.w	r3, r3, #4
 8001dfe:	6423      	str	r3, [r4, #64]	; 0x40
 8001e00:	6c23      	ldr	r3, [r4, #64]	; 0x40
 8001e02:	2b04      	cmp	r3, #4
 8001e04:	d1ca      	bne.n	8001d9c <HAL_I2C_Mem_Write+0xe4>
 8001e06:	6822      	ldr	r2, [r4, #0]
 8001e08:	2701      	movs	r7, #1
 8001e0a:	6813      	ldr	r3, [r2, #0]
 8001e0c:	f443 7300 	orr.w	r3, r3, #512	; 0x200
 8001e10:	6013      	str	r3, [r2, #0]
 8001e12:	e762      	b.n	8001cda <HAL_I2C_Mem_Write+0x22>
 8001e14:	7842      	ldrb	r2, [r0, #1]
 8001e16:	f1ac 0102 	sub.w	r1, ip, #2
 8001e1a:	611a      	str	r2, [r3, #16]
 8001e1c:	8d62      	ldrh	r2, [r4, #42]	; 0x2a
 8001e1e:	b289      	uxth	r1, r1
 8001e20:	3a01      	subs	r2, #1
 8001e22:	3002      	adds	r0, #2
 8001e24:	b292      	uxth	r2, r2
 8001e26:	6260      	str	r0, [r4, #36]	; 0x24
 8001e28:	8521      	strh	r1, [r4, #40]	; 0x28
 8001e2a:	8562      	strh	r2, [r4, #42]	; 0x2a
 8001e2c:	2900      	cmp	r1, #0
 8001e2e:	d199      	bne.n	8001d64 <HAL_I2C_Mem_Write+0xac>
 8001e30:	e7ce      	b.n	8001dd0 <HAL_I2C_Mem_Write+0x118>
 8001e32:	6803      	ldr	r3, [r0, #0]
 8001e34:	f043 0301 	orr.w	r3, r3, #1
 8001e38:	6003      	str	r3, [r0, #0]
 8001e3a:	e76c      	b.n	8001d16 <HAL_I2C_Mem_Write+0x5e>
 8001e3c:	695a      	ldr	r2, [r3, #20]
 8001e3e:	0611      	lsls	r1, r2, #24
 8001e40:	d4b1      	bmi.n	8001da6 <HAL_I2C_Mem_Write+0xee>
 8001e42:	695a      	ldr	r2, [r3, #20]
 8001e44:	0550      	lsls	r0, r2, #21
 8001e46:	d495      	bmi.n	8001d74 <HAL_I2C_Mem_Write+0xbc>
 8001e48:	f7fe fdf8 	bl	8000a3c <HAL_GetTick>
 8001e4c:	1b40      	subs	r0, r0, r5
 8001e4e:	4286      	cmp	r6, r0
 8001e50:	d301      	bcc.n	8001e56 <HAL_I2C_Mem_Write+0x19e>
 8001e52:	2e00      	cmp	r6, #0
 8001e54:	d185      	bne.n	8001d62 <HAL_I2C_Mem_Write+0xaa>
 8001e56:	2200      	movs	r2, #0
 8001e58:	2320      	movs	r3, #32
 8001e5a:	6322      	str	r2, [r4, #48]	; 0x30
 8001e5c:	f884 303d 	strb.w	r3, [r4, #61]	; 0x3d
 8001e60:	f884 203e 	strb.w	r2, [r4, #62]	; 0x3e
 8001e64:	6c23      	ldr	r3, [r4, #64]	; 0x40
 8001e66:	f884 203c 	strb.w	r2, [r4, #60]	; 0x3c
 8001e6a:	f043 0320 	orr.w	r3, r3, #32
 8001e6e:	6423      	str	r3, [r4, #64]	; 0x40
 8001e70:	e790      	b.n	8001d94 <HAL_I2C_Mem_Write+0xdc>
 8001e72:	2702      	movs	r7, #2
 8001e74:	2320      	movs	r3, #32
 8001e76:	4638      	mov	r0, r7
 8001e78:	f8c4 b030 	str.w	fp, [r4, #48]	; 0x30
 8001e7c:	f884 303d 	strb.w	r3, [r4, #61]	; 0x3d
 8001e80:	f884 b03e 	strb.w	fp, [r4, #62]	; 0x3e
 8001e84:	6c23      	ldr	r3, [r4, #64]	; 0x40
 8001e86:	f884 b03c 	strb.w	fp, [r4, #60]	; 0x3c
 8001e8a:	f043 0320 	orr.w	r3, r3, #32
 8001e8e:	6423      	str	r3, [r4, #64]	; 0x40
 8001e90:	b003      	add	sp, #12
 8001e92:	e8bd 8ff0 	ldmia.w	sp!, {r4, r5, r6, r7, r8, r9, sl, fp, pc}
 8001e96:	2100      	movs	r1, #0
 8001e98:	2020      	movs	r0, #32
 8001e9a:	681a      	ldr	r2, [r3, #0]
 8001e9c:	f442 7200 	orr.w	r2, r2, #512	; 0x200
 8001ea0:	601a      	str	r2, [r3, #0]
 8001ea2:	f884 003d 	strb.w	r0, [r4, #61]	; 0x3d
 8001ea6:	f884 103c 	strb.w	r1, [r4, #60]	; 0x3c
 8001eaa:	f884 103e 	strb.w	r1, [r4, #62]	; 0x3e
 8001eae:	e714      	b.n	8001cda <HAL_I2C_Mem_Write+0x22>
 8001eb0:	6822      	ldr	r2, [r4, #0]
 8001eb2:	2701      	movs	r7, #1
 8001eb4:	6813      	ldr	r3, [r2, #0]
 8001eb6:	f443 7300 	orr.w	r3, r3, #512	; 0x200
 8001eba:	6013      	str	r3, [r2, #0]
 8001ebc:	e70d      	b.n	8001cda <HAL_I2C_Mem_Write+0x22>
 8001ebe:	695a      	ldr	r2, [r3, #20]
 8001ec0:	0752      	lsls	r2, r2, #29
 8001ec2:	d4e8      	bmi.n	8001e96 <HAL_I2C_Mem_Write+0x1de>
 8001ec4:	695a      	ldr	r2, [r3, #20]
 8001ec6:	0551      	lsls	r1, r2, #21
 8001ec8:	d48a      	bmi.n	8001de0 <HAL_I2C_Mem_Write+0x128>
 8001eca:	f7fe fdb7 	bl	8000a3c <HAL_GetTick>
 8001ece:	1b43      	subs	r3, r0, r5
 8001ed0:	429e      	cmp	r6, r3
 8001ed2:	d302      	bcc.n	8001eda <HAL_I2C_Mem_Write+0x222>
 8001ed4:	b10e      	cbz	r6, 8001eda <HAL_I2C_Mem_Write+0x222>
 8001ed6:	6823      	ldr	r3, [r4, #0]
 8001ed8:	e77a      	b.n	8001dd0 <HAL_I2C_Mem_Write+0x118>
 8001eda:	2200      	movs	r2, #0
 8001edc:	2320      	movs	r3, #32
 8001ede:	6322      	str	r2, [r4, #48]	; 0x30
 8001ee0:	f884 303d 	strb.w	r3, [r4, #61]	; 0x3d
 8001ee4:	f884 203e 	strb.w	r2, [r4, #62]	; 0x3e
 8001ee8:	6c23      	ldr	r3, [r4, #64]	; 0x40
 8001eea:	f884 203c 	strb.w	r2, [r4, #60]	; 0x3c
 8001eee:	f043 0320 	orr.w	r3, r3, #32
 8001ef2:	6423      	str	r3, [r4, #64]	; 0x40
 8001ef4:	e784      	b.n	8001e00 <HAL_I2C_Mem_Write+0x148>
 8001ef6:	bf00      	nop
 8001ef8:	ffff0000 	.word	0xffff0000

08001efc <HAL_I2C_Mem_Read>:
 8001efc:	e92d 4ff0 	stmdb	sp!, {r4, r5, r6, r7, r8, r9, sl, fp, lr}
 8001f00:	2400      	movs	r4, #0
 8001f02:	b089      	sub	sp, #36	; 0x24
 8001f04:	9403      	str	r4, [sp, #12]
 8001f06:	4604      	mov	r4, r0
 8001f08:	4699      	mov	r9, r3
 8001f0a:	460f      	mov	r7, r1
 8001f0c:	4690      	mov	r8, r2
 8001f0e:	f8bd a04c 	ldrh.w	sl, [sp, #76]	; 0x4c
 8001f12:	9e14      	ldr	r6, [sp, #80]	; 0x50
 8001f14:	f7fe fd92 	bl	8000a3c <HAL_GetTick>
 8001f18:	f894 303d 	ldrb.w	r3, [r4, #61]	; 0x3d
 8001f1c:	2b20      	cmp	r3, #32
 8001f1e:	d004      	beq.n	8001f2a <HAL_I2C_Mem_Read+0x2e>
 8001f20:	2702      	movs	r7, #2
 8001f22:	4638      	mov	r0, r7
 8001f24:	b009      	add	sp, #36	; 0x24
 8001f26:	e8bd 8ff0 	ldmia.w	sp!, {r4, r5, r6, r7, r8, r9, sl, fp, pc}
 8001f2a:	4605      	mov	r5, r0
 8001f2c:	e005      	b.n	8001f3a <HAL_I2C_Mem_Read+0x3e>
 8001f2e:	f7fe fd85 	bl	8000a3c <HAL_GetTick>
 8001f32:	1b40      	subs	r0, r0, r5
 8001f34:	2819      	cmp	r0, #25
 8001f36:	f200 80c1 	bhi.w	80020bc <HAL_I2C_Mem_Read+0x1c0>
 8001f3a:	6820      	ldr	r0, [r4, #0]
 8001f3c:	6983      	ldr	r3, [r0, #24]
 8001f3e:	ea6f 0c03 	mvn.w	ip, r3
 8001f42:	f01c 0b02 	ands.w	fp, ip, #2
 8001f46:	d0f2      	beq.n	8001f2e <HAL_I2C_Mem_Read+0x32>
 8001f48:	f894 303c 	ldrb.w	r3, [r4, #60]	; 0x3c
 8001f4c:	2b01      	cmp	r3, #1
 8001f4e:	d0e7      	beq.n	8001f20 <HAL_I2C_Mem_Read+0x24>
 8001f50:	2301      	movs	r3, #1
 8001f52:	f884 303c 	strb.w	r3, [r4, #60]	; 0x3c
 8001f56:	6803      	ldr	r3, [r0, #0]
 8001f58:	07d9      	lsls	r1, r3, #31
 8001f5a:	d539      	bpl.n	8001fd0 <HAL_I2C_Mem_Read+0xd4>
 8001f5c:	4642      	mov	r2, r8
 8001f5e:	f04f 0e40 	mov.w	lr, #64	; 0x40
 8001f62:	f04f 0c00 	mov.w	ip, #0
 8001f66:	f04f 0822 	mov.w	r8, #34	; 0x22
 8001f6a:	4639      	mov	r1, r7
 8001f6c:	6807      	ldr	r7, [r0, #0]
 8001f6e:	464b      	mov	r3, r9
 8001f70:	f427 6700 	bic.w	r7, r7, #2048	; 0x800
 8001f74:	6007      	str	r7, [r0, #0]
 8001f76:	9812      	ldr	r0, [sp, #72]	; 0x48
 8001f78:	6260      	str	r0, [r4, #36]	; 0x24
 8001f7a:	e9cd 6500 	strd	r6, r5, [sp]
 8001f7e:	f884 803d 	strb.w	r8, [r4, #61]	; 0x3d
 8001f82:	f884 e03e 	strb.w	lr, [r4, #62]	; 0x3e
 8001f86:	f8c4 c040 	str.w	ip, [r4, #64]	; 0x40
 8001f8a:	f8a4 a02a 	strh.w	sl, [r4, #42]	; 0x2a
 8001f8e:	8d60      	ldrh	r0, [r4, #42]	; 0x2a
 8001f90:	8520      	strh	r0, [r4, #40]	; 0x28
 8001f92:	489c      	ldr	r0, [pc, #624]	; (8002204 <HAL_I2C_Mem_Read+0x308>)
 8001f94:	62e0      	str	r0, [r4, #44]	; 0x2c
 8001f96:	4620      	mov	r0, r4
 8001f98:	f7ff fc6c 	bl	8001874 <I2C_RequestMemoryRead>
 8001f9c:	4607      	mov	r7, r0
 8001f9e:	2800      	cmp	r0, #0
 8001fa0:	f040 809e 	bne.w	80020e0 <HAL_I2C_Mem_Read+0x1e4>
 8001fa4:	8d22      	ldrh	r2, [r4, #40]	; 0x28
 8001fa6:	b9c2      	cbnz	r2, 8001fda <HAL_I2C_Mem_Read+0xde>
 8001fa8:	6823      	ldr	r3, [r4, #0]
 8001faa:	9004      	str	r0, [sp, #16]
 8001fac:	695a      	ldr	r2, [r3, #20]
 8001fae:	9204      	str	r2, [sp, #16]
 8001fb0:	699a      	ldr	r2, [r3, #24]
 8001fb2:	9204      	str	r2, [sp, #16]
 8001fb4:	9a04      	ldr	r2, [sp, #16]
 8001fb6:	681a      	ldr	r2, [r3, #0]
 8001fb8:	f442 7200 	orr.w	r2, r2, #512	; 0x200
 8001fbc:	601a      	str	r2, [r3, #0]
 8001fbe:	2300      	movs	r3, #0
 8001fc0:	2220      	movs	r2, #32
 8001fc2:	f884 303c 	strb.w	r3, [r4, #60]	; 0x3c
 8001fc6:	f884 203d 	strb.w	r2, [r4, #61]	; 0x3d
 8001fca:	f884 303e 	strb.w	r3, [r4, #62]	; 0x3e
 8001fce:	e7a8      	b.n	8001f22 <HAL_I2C_Mem_Read+0x26>
 8001fd0:	6803      	ldr	r3, [r0, #0]
 8001fd2:	f043 0301 	orr.w	r3, r3, #1
 8001fd6:	6003      	str	r3, [r0, #0]
 8001fd8:	e7c0      	b.n	8001f5c <HAL_I2C_Mem_Read+0x60>
 8001fda:	2a01      	cmp	r2, #1
 8001fdc:	f000 8143 	beq.w	8002266 <HAL_I2C_Mem_Read+0x36a>
 8001fe0:	2a02      	cmp	r2, #2
 8001fe2:	f000 80cd 	beq.w	8002180 <HAL_I2C_Mem_Read+0x284>
 8001fe6:	6823      	ldr	r3, [r4, #0]
 8001fe8:	6819      	ldr	r1, [r3, #0]
 8001fea:	f441 6180 	orr.w	r1, r1, #1024	; 0x400
 8001fee:	6019      	str	r1, [r3, #0]
 8001ff0:	9007      	str	r0, [sp, #28]
 8001ff2:	6959      	ldr	r1, [r3, #20]
 8001ff4:	9107      	str	r1, [sp, #28]
 8001ff6:	6999      	ldr	r1, [r3, #24]
 8001ff8:	9107      	str	r1, [sp, #28]
 8001ffa:	9907      	ldr	r1, [sp, #28]
 8001ffc:	2a03      	cmp	r2, #3
 8001ffe:	f8df 9208 	ldr.w	r9, [pc, #520]	; 8002208 <HAL_I2C_Mem_Read+0x30c>
 8002002:	f8df 8208 	ldr.w	r8, [pc, #520]	; 800220c <HAL_I2C_Mem_Read+0x310>
 8002006:	d832      	bhi.n	800206e <HAL_I2C_Mem_Read+0x172>
 8002008:	2a01      	cmp	r2, #1
 800200a:	f000 80f8 	beq.w	80021fe <HAL_I2C_Mem_Read+0x302>
 800200e:	2a02      	cmp	r2, #2
 8002010:	d176      	bne.n	8002100 <HAL_I2C_Mem_Read+0x204>
 8002012:	1c71      	adds	r1, r6, #1
 8002014:	f040 80cc 	bne.w	80021b0 <HAL_I2C_Mem_Read+0x2b4>
 8002018:	695a      	ldr	r2, [r3, #20]
 800201a:	0752      	lsls	r2, r2, #29
 800201c:	d5fc      	bpl.n	8002018 <HAL_I2C_Mem_Read+0x11c>
 800201e:	b672      	cpsid	i
 8002020:	6823      	ldr	r3, [r4, #0]
 8002022:	6a61      	ldr	r1, [r4, #36]	; 0x24
 8002024:	681a      	ldr	r2, [r3, #0]
 8002026:	f442 7200 	orr.w	r2, r2, #512	; 0x200
 800202a:	601a      	str	r2, [r3, #0]
 800202c:	691b      	ldr	r3, [r3, #16]
 800202e:	700b      	strb	r3, [r1, #0]
 8002030:	8d63      	ldrh	r3, [r4, #42]	; 0x2a
 8002032:	3b01      	subs	r3, #1
 8002034:	b29b      	uxth	r3, r3
 8002036:	8563      	strh	r3, [r4, #42]	; 0x2a
 8002038:	6a63      	ldr	r3, [r4, #36]	; 0x24
 800203a:	3301      	adds	r3, #1
 800203c:	6263      	str	r3, [r4, #36]	; 0x24
 800203e:	8d23      	ldrh	r3, [r4, #40]	; 0x28
 8002040:	3b01      	subs	r3, #1
 8002042:	8523      	strh	r3, [r4, #40]	; 0x28
 8002044:	b662      	cpsie	i
 8002046:	6823      	ldr	r3, [r4, #0]
 8002048:	691a      	ldr	r2, [r3, #16]
 800204a:	6a63      	ldr	r3, [r4, #36]	; 0x24
 800204c:	701a      	strb	r2, [r3, #0]
 800204e:	8d63      	ldrh	r3, [r4, #42]	; 0x2a
 8002050:	8d22      	ldrh	r2, [r4, #40]	; 0x28
 8002052:	3b01      	subs	r3, #1
 8002054:	b29b      	uxth	r3, r3
 8002056:	8563      	strh	r3, [r4, #42]	; 0x2a
 8002058:	6a63      	ldr	r3, [r4, #36]	; 0x24
 800205a:	3a01      	subs	r2, #1
 800205c:	b292      	uxth	r2, r2
 800205e:	3301      	adds	r3, #1
 8002060:	8522      	strh	r2, [r4, #40]	; 0x28
 8002062:	6263      	str	r3, [r4, #36]	; 0x24
 8002064:	2a00      	cmp	r2, #0
 8002066:	d0aa      	beq.n	8001fbe <HAL_I2C_Mem_Read+0xc2>
 8002068:	2a03      	cmp	r2, #3
 800206a:	6823      	ldr	r3, [r4, #0]
 800206c:	d9cc      	bls.n	8002008 <HAL_I2C_Mem_Read+0x10c>
 800206e:	b95e      	cbnz	r6, 8002088 <HAL_I2C_Mem_Read+0x18c>
 8002070:	e0aa      	b.n	80021c8 <HAL_I2C_Mem_Read+0x2cc>
 8002072:	695a      	ldr	r2, [r3, #20]
 8002074:	06d0      	lsls	r0, r2, #27
 8002076:	f100 80d8 	bmi.w	800222a <HAL_I2C_Mem_Read+0x32e>
 800207a:	f7fe fcdf 	bl	8000a3c <HAL_GetTick>
 800207e:	1b40      	subs	r0, r0, r5
 8002080:	4286      	cmp	r6, r0
 8002082:	f0c0 80aa 	bcc.w	80021da <HAL_I2C_Mem_Read+0x2de>
 8002086:	6823      	ldr	r3, [r4, #0]
 8002088:	695a      	ldr	r2, [r3, #20]
 800208a:	0652      	lsls	r2, r2, #25
 800208c:	d5f1      	bpl.n	8002072 <HAL_I2C_Mem_Read+0x176>
 800208e:	691a      	ldr	r2, [r3, #16]
 8002090:	6a63      	ldr	r3, [r4, #36]	; 0x24
 8002092:	701a      	strb	r2, [r3, #0]
 8002094:	8d63      	ldrh	r3, [r4, #42]	; 0x2a
 8002096:	6821      	ldr	r1, [r4, #0]
 8002098:	3b01      	subs	r3, #1
 800209a:	b29b      	uxth	r3, r3
 800209c:	8d22      	ldrh	r2, [r4, #40]	; 0x28
 800209e:	8563      	strh	r3, [r4, #42]	; 0x2a
 80020a0:	6948      	ldr	r0, [r1, #20]
 80020a2:	6a63      	ldr	r3, [r4, #36]	; 0x24
 80020a4:	3a01      	subs	r2, #1
 80020a6:	b292      	uxth	r2, r2
 80020a8:	f103 0c01 	add.w	ip, r3, #1
 80020ac:	0740      	lsls	r0, r0, #29
 80020ae:	8522      	strh	r2, [r4, #40]	; 0x28
 80020b0:	f8c4 c024 	str.w	ip, [r4, #36]	; 0x24
 80020b4:	d5d6      	bpl.n	8002064 <HAL_I2C_Mem_Read+0x168>
 80020b6:	690a      	ldr	r2, [r1, #16]
 80020b8:	705a      	strb	r2, [r3, #1]
 80020ba:	e7c8      	b.n	800204e <HAL_I2C_Mem_Read+0x152>
 80020bc:	2702      	movs	r7, #2
 80020be:	2320      	movs	r3, #32
 80020c0:	4638      	mov	r0, r7
 80020c2:	f8c4 b030 	str.w	fp, [r4, #48]	; 0x30
 80020c6:	f884 303d 	strb.w	r3, [r4, #61]	; 0x3d
 80020ca:	f884 b03e 	strb.w	fp, [r4, #62]	; 0x3e
 80020ce:	6c23      	ldr	r3, [r4, #64]	; 0x40
 80020d0:	f884 b03c 	strb.w	fp, [r4, #60]	; 0x3c
 80020d4:	f043 0320 	orr.w	r3, r3, #32
 80020d8:	6423      	str	r3, [r4, #64]	; 0x40
 80020da:	b009      	add	sp, #36	; 0x24
 80020dc:	e8bd 8ff0 	ldmia.w	sp!, {r4, r5, r6, r7, r8, r9, sl, fp, pc}
 80020e0:	2701      	movs	r7, #1
 80020e2:	4638      	mov	r0, r7
 80020e4:	b009      	add	sp, #36	; 0x24
 80020e6:	e8bd 8ff0 	ldmia.w	sp!, {r4, r5, r6, r7, r8, r9, sl, fp, pc}
 80020ea:	695a      	ldr	r2, [r3, #20]
 80020ec:	0752      	lsls	r2, r2, #29
 80020ee:	d40c      	bmi.n	800210a <HAL_I2C_Mem_Read+0x20e>
 80020f0:	f7fe fca4 	bl	8000a3c <HAL_GetTick>
 80020f4:	1b40      	subs	r0, r0, r5
 80020f6:	4286      	cmp	r6, r0
 80020f8:	d36f      	bcc.n	80021da <HAL_I2C_Mem_Read+0x2de>
 80020fa:	2e00      	cmp	r6, #0
 80020fc:	d06d      	beq.n	80021da <HAL_I2C_Mem_Read+0x2de>
 80020fe:	6823      	ldr	r3, [r4, #0]
 8002100:	1c70      	adds	r0, r6, #1
 8002102:	d1f2      	bne.n	80020ea <HAL_I2C_Mem_Read+0x1ee>
 8002104:	695a      	ldr	r2, [r3, #20]
 8002106:	0751      	lsls	r1, r2, #29
 8002108:	d5fc      	bpl.n	8002104 <HAL_I2C_Mem_Read+0x208>
 800210a:	681a      	ldr	r2, [r3, #0]
 800210c:	f422 6280 	bic.w	r2, r2, #1024	; 0x400
 8002110:	601a      	str	r2, [r3, #0]
 8002112:	b672      	cpsid	i
 8002114:	6823      	ldr	r3, [r4, #0]
 8002116:	691a      	ldr	r2, [r3, #16]
 8002118:	6a63      	ldr	r3, [r4, #36]	; 0x24
 800211a:	701a      	strb	r2, [r3, #0]
 800211c:	f8d9 3000 	ldr.w	r3, [r9]
 8002120:	6a61      	ldr	r1, [r4, #36]	; 0x24
 8002122:	08db      	lsrs	r3, r3, #3
 8002124:	fba8 2303 	umull	r2, r3, r8, r3
 8002128:	8d62      	ldrh	r2, [r4, #42]	; 0x2a
 800212a:	0a1b      	lsrs	r3, r3, #8
 800212c:	eb03 0383 	add.w	r3, r3, r3, lsl #2
 8002130:	3a01      	subs	r2, #1
 8002132:	ebc3 03c3 	rsb	r3, r3, r3, lsl #3
 8002136:	b292      	uxth	r2, r2
 8002138:	8562      	strh	r2, [r4, #42]	; 0x2a
 800213a:	9303      	str	r3, [sp, #12]
 800213c:	8d23      	ldrh	r3, [r4, #40]	; 0x28
 800213e:	3b01      	subs	r3, #1
 8002140:	8523      	strh	r3, [r4, #40]	; 0x28
 8002142:	1c4b      	adds	r3, r1, #1
 8002144:	6263      	str	r3, [r4, #36]	; 0x24
 8002146:	e003      	b.n	8002150 <HAL_I2C_Mem_Read+0x254>
 8002148:	6823      	ldr	r3, [r4, #0]
 800214a:	695a      	ldr	r2, [r3, #20]
 800214c:	0750      	lsls	r0, r2, #29
 800214e:	d47f      	bmi.n	8002250 <HAL_I2C_Mem_Read+0x354>
 8002150:	9b03      	ldr	r3, [sp, #12]
 8002152:	3b01      	subs	r3, #1
 8002154:	9303      	str	r3, [sp, #12]
 8002156:	9b03      	ldr	r3, [sp, #12]
 8002158:	2b00      	cmp	r3, #0
 800215a:	d1f5      	bne.n	8002148 <HAL_I2C_Mem_Read+0x24c>
 800215c:	2220      	movs	r2, #32
 800215e:	6323      	str	r3, [r4, #48]	; 0x30
 8002160:	f884 203d 	strb.w	r2, [r4, #61]	; 0x3d
 8002164:	f884 303e 	strb.w	r3, [r4, #62]	; 0x3e
 8002168:	6c22      	ldr	r2, [r4, #64]	; 0x40
 800216a:	f042 0220 	orr.w	r2, r2, #32
 800216e:	6422      	str	r2, [r4, #64]	; 0x40
 8002170:	b662      	cpsie	i
 8002172:	2701      	movs	r7, #1
 8002174:	4638      	mov	r0, r7
 8002176:	f884 303c 	strb.w	r3, [r4, #60]	; 0x3c
 800217a:	b009      	add	sp, #36	; 0x24
 800217c:	e8bd 8ff0 	ldmia.w	sp!, {r4, r5, r6, r7, r8, r9, sl, fp, pc}
 8002180:	6822      	ldr	r2, [r4, #0]
 8002182:	6813      	ldr	r3, [r2, #0]
 8002184:	f443 6300 	orr.w	r3, r3, #2048	; 0x800
 8002188:	6013      	str	r3, [r2, #0]
 800218a:	b672      	cpsid	i
 800218c:	6823      	ldr	r3, [r4, #0]
 800218e:	9006      	str	r0, [sp, #24]
 8002190:	695a      	ldr	r2, [r3, #20]
 8002192:	9206      	str	r2, [sp, #24]
 8002194:	699a      	ldr	r2, [r3, #24]
 8002196:	9206      	str	r2, [sp, #24]
 8002198:	9a06      	ldr	r2, [sp, #24]
 800219a:	681a      	ldr	r2, [r3, #0]
 800219c:	f422 6280 	bic.w	r2, r2, #1024	; 0x400
 80021a0:	601a      	str	r2, [r3, #0]
 80021a2:	b662      	cpsie	i
 80021a4:	8d22      	ldrh	r2, [r4, #40]	; 0x28
 80021a6:	2a00      	cmp	r2, #0
 80021a8:	f43f af09 	beq.w	8001fbe <HAL_I2C_Mem_Read+0xc2>
 80021ac:	6823      	ldr	r3, [r4, #0]
 80021ae:	e725      	b.n	8001ffc <HAL_I2C_Mem_Read+0x100>
 80021b0:	695b      	ldr	r3, [r3, #20]
 80021b2:	075b      	lsls	r3, r3, #29
 80021b4:	f53f af33 	bmi.w	800201e <HAL_I2C_Mem_Read+0x122>
 80021b8:	f7fe fc40 	bl	8000a3c <HAL_GetTick>
 80021bc:	1b40      	subs	r0, r0, r5
 80021be:	4286      	cmp	r6, r0
 80021c0:	d30b      	bcc.n	80021da <HAL_I2C_Mem_Read+0x2de>
 80021c2:	b156      	cbz	r6, 80021da <HAL_I2C_Mem_Read+0x2de>
 80021c4:	6823      	ldr	r3, [r4, #0]
 80021c6:	e724      	b.n	8002012 <HAL_I2C_Mem_Read+0x116>
 80021c8:	695a      	ldr	r2, [r3, #20]
 80021ca:	0652      	lsls	r2, r2, #25
 80021cc:	f53f af5f 	bmi.w	800208e <HAL_I2C_Mem_Read+0x192>
 80021d0:	695a      	ldr	r2, [r3, #20]
 80021d2:	06d1      	lsls	r1, r2, #27
 80021d4:	d429      	bmi.n	800222a <HAL_I2C_Mem_Read+0x32e>
 80021d6:	f7fe fc31 	bl	8000a3c <HAL_GetTick>
 80021da:	2701      	movs	r7, #1
 80021dc:	2200      	movs	r2, #0
 80021de:	2320      	movs	r3, #32
 80021e0:	4638      	mov	r0, r7
 80021e2:	6322      	str	r2, [r4, #48]	; 0x30
 80021e4:	f884 303d 	strb.w	r3, [r4, #61]	; 0x3d
 80021e8:	f884 203e 	strb.w	r2, [r4, #62]	; 0x3e
 80021ec:	6c23      	ldr	r3, [r4, #64]	; 0x40
 80021ee:	f884 203c 	strb.w	r2, [r4, #60]	; 0x3c
 80021f2:	f043 0320 	orr.w	r3, r3, #32
 80021f6:	6423      	str	r3, [r4, #64]	; 0x40
 80021f8:	b009      	add	sp, #36	; 0x24
 80021fa:	e8bd 8ff0 	ldmia.w	sp!, {r4, r5, r6, r7, r8, r9, sl, fp, pc}
 80021fe:	b96e      	cbnz	r6, 800221c <HAL_I2C_Mem_Read+0x320>
 8002200:	e02d      	b.n	800225e <HAL_I2C_Mem_Read+0x362>
 8002202:	bf00      	nop
 8002204:	ffff0000 	.word	0xffff0000
 8002208:	20000000 	.word	0x20000000
 800220c:	14f8b589 	.word	0x14f8b589
 8002210:	f7fe fc14 	bl	8000a3c <HAL_GetTick>
 8002214:	1b40      	subs	r0, r0, r5
 8002216:	4286      	cmp	r6, r0
 8002218:	d3df      	bcc.n	80021da <HAL_I2C_Mem_Read+0x2de>
 800221a:	6823      	ldr	r3, [r4, #0]
 800221c:	695a      	ldr	r2, [r3, #20]
 800221e:	0651      	lsls	r1, r2, #25
 8002220:	f53f af12 	bmi.w	8002048 <HAL_I2C_Mem_Read+0x14c>
 8002224:	695a      	ldr	r2, [r3, #20]
 8002226:	06d2      	lsls	r2, r2, #27
 8002228:	d5f2      	bpl.n	8002210 <HAL_I2C_Mem_Read+0x314>
 800222a:	f06f 0010 	mvn.w	r0, #16
 800222e:	2701      	movs	r7, #1
 8002230:	2200      	movs	r2, #0
 8002232:	2120      	movs	r1, #32
 8002234:	6158      	str	r0, [r3, #20]
 8002236:	4638      	mov	r0, r7
 8002238:	6322      	str	r2, [r4, #48]	; 0x30
 800223a:	f884 103d 	strb.w	r1, [r4, #61]	; 0x3d
 800223e:	f884 203e 	strb.w	r2, [r4, #62]	; 0x3e
 8002242:	6c23      	ldr	r3, [r4, #64]	; 0x40
 8002244:	f884 203c 	strb.w	r2, [r4, #60]	; 0x3c
 8002248:	6423      	str	r3, [r4, #64]	; 0x40
 800224a:	b009      	add	sp, #36	; 0x24
 800224c:	e8bd 8ff0 	ldmia.w	sp!, {r4, r5, r6, r7, r8, r9, sl, fp, pc}
 8002250:	681a      	ldr	r2, [r3, #0]
 8002252:	f442 7200 	orr.w	r2, r2, #512	; 0x200
 8002256:	601a      	str	r2, [r3, #0]
 8002258:	691b      	ldr	r3, [r3, #16]
 800225a:	704b      	strb	r3, [r1, #1]
 800225c:	e6e8      	b.n	8002030 <HAL_I2C_Mem_Read+0x134>
 800225e:	695a      	ldr	r2, [r3, #20]
 8002260:	0650      	lsls	r0, r2, #25
 8002262:	d5b5      	bpl.n	80021d0 <HAL_I2C_Mem_Read+0x2d4>
 8002264:	e6f0      	b.n	8002048 <HAL_I2C_Mem_Read+0x14c>
 8002266:	6822      	ldr	r2, [r4, #0]
 8002268:	6813      	ldr	r3, [r2, #0]
 800226a:	f423 6380 	bic.w	r3, r3, #1024	; 0x400
 800226e:	6013      	str	r3, [r2, #0]
 8002270:	b672      	cpsid	i
 8002272:	6823      	ldr	r3, [r4, #0]
 8002274:	9005      	str	r0, [sp, #20]
 8002276:	695a      	ldr	r2, [r3, #20]
 8002278:	9205      	str	r2, [sp, #20]
 800227a:	699a      	ldr	r2, [r3, #24]
 800227c:	9205      	str	r2, [sp, #20]
 800227e:	9a05      	ldr	r2, [sp, #20]
 8002280:	681a      	ldr	r2, [r3, #0]
 8002282:	f442 7200 	orr.w	r2, r2, #512	; 0x200
 8002286:	601a      	str	r2, [r3, #0]
 8002288:	b662      	cpsie	i
 800228a:	e78b      	b.n	80021a4 <HAL_I2C_Mem_Read+0x2a8>

0800228c <HAL_RCC_OscConfig>:
 800228c:	2800      	cmp	r0, #0
 800228e:	f000 81b6 	beq.w	80025fe <HAL_RCC_OscConfig+0x372>
 8002292:	e92d 41f0 	stmdb	sp!, {r4, r5, r6, r7, r8, lr}
 8002296:	6803      	ldr	r3, [r0, #0]
 8002298:	4604      	mov	r4, r0
 800229a:	07dd      	lsls	r5, r3, #31
 800229c:	b082      	sub	sp, #8
 800229e:	d535      	bpl.n	800230c <HAL_RCC_OscConfig+0x80>
 80022a0:	499a      	ldr	r1, [pc, #616]	; (800250c <HAL_RCC_OscConfig+0x280>)
 80022a2:	684a      	ldr	r2, [r1, #4]
 80022a4:	f002 020c 	and.w	r2, r2, #12
 80022a8:	2a04      	cmp	r2, #4
 80022aa:	f000 80ef 	beq.w	800248c <HAL_RCC_OscConfig+0x200>
 80022ae:	684a      	ldr	r2, [r1, #4]
 80022b0:	f002 020c 	and.w	r2, r2, #12
 80022b4:	2a08      	cmp	r2, #8
 80022b6:	f000 80e5 	beq.w	8002484 <HAL_RCC_OscConfig+0x1f8>
 80022ba:	6863      	ldr	r3, [r4, #4]
 80022bc:	f5b3 3f80 	cmp.w	r3, #65536	; 0x10000
 80022c0:	d010      	beq.n	80022e4 <HAL_RCC_OscConfig+0x58>
 80022c2:	2b00      	cmp	r3, #0
 80022c4:	f000 810c 	beq.w	80024e0 <HAL_RCC_OscConfig+0x254>
 80022c8:	f5b3 2fa0 	cmp.w	r3, #327680	; 0x50000
 80022cc:	f000 8182 	beq.w	80025d4 <HAL_RCC_OscConfig+0x348>
 80022d0:	4b8e      	ldr	r3, [pc, #568]	; (800250c <HAL_RCC_OscConfig+0x280>)
 80022d2:	681a      	ldr	r2, [r3, #0]
 80022d4:	f422 3280 	bic.w	r2, r2, #65536	; 0x10000
 80022d8:	601a      	str	r2, [r3, #0]
 80022da:	681a      	ldr	r2, [r3, #0]
 80022dc:	f422 2280 	bic.w	r2, r2, #262144	; 0x40000
 80022e0:	601a      	str	r2, [r3, #0]
 80022e2:	e004      	b.n	80022ee <HAL_RCC_OscConfig+0x62>
 80022e4:	4a89      	ldr	r2, [pc, #548]	; (800250c <HAL_RCC_OscConfig+0x280>)
 80022e6:	6813      	ldr	r3, [r2, #0]
 80022e8:	f443 3380 	orr.w	r3, r3, #65536	; 0x10000
 80022ec:	6013      	str	r3, [r2, #0]
 80022ee:	f7fe fba5 	bl	8000a3c <HAL_GetTick>
 80022f2:	4e86      	ldr	r6, [pc, #536]	; (800250c <HAL_RCC_OscConfig+0x280>)
 80022f4:	4605      	mov	r5, r0
 80022f6:	e005      	b.n	8002304 <HAL_RCC_OscConfig+0x78>
 80022f8:	f7fe fba0 	bl	8000a3c <HAL_GetTick>
 80022fc:	1b40      	subs	r0, r0, r5
 80022fe:	2864      	cmp	r0, #100	; 0x64
 8002300:	f200 80ea 	bhi.w	80024d8 <HAL_RCC_OscConfig+0x24c>
 8002304:	6833      	ldr	r3, [r6, #0]
 8002306:	039a      	lsls	r2, r3, #14
 8002308:	d5f6      	bpl.n	80022f8 <HAL_RCC_OscConfig+0x6c>
 800230a:	6823      	ldr	r3, [r4, #0]
 800230c:	079f      	lsls	r7, r3, #30
 800230e:	d528      	bpl.n	8002362 <HAL_RCC_OscConfig+0xd6>
 8002310:	4a7e      	ldr	r2, [pc, #504]	; (800250c <HAL_RCC_OscConfig+0x280>)
 8002312:	6851      	ldr	r1, [r2, #4]
 8002314:	f011 0f0c 	tst.w	r1, #12
 8002318:	f000 808d 	beq.w	8002436 <HAL_RCC_OscConfig+0x1aa>
 800231c:	6851      	ldr	r1, [r2, #4]
 800231e:	f001 010c 	and.w	r1, r1, #12
 8002322:	2908      	cmp	r1, #8
 8002324:	f000 8083 	beq.w	800242e <HAL_RCC_OscConfig+0x1a2>
 8002328:	6923      	ldr	r3, [r4, #16]
 800232a:	2b00      	cmp	r3, #0
 800232c:	f000 8118 	beq.w	8002560 <HAL_RCC_OscConfig+0x2d4>
 8002330:	2201      	movs	r2, #1
 8002332:	4b77      	ldr	r3, [pc, #476]	; (8002510 <HAL_RCC_OscConfig+0x284>)
 8002334:	4e75      	ldr	r6, [pc, #468]	; (800250c <HAL_RCC_OscConfig+0x280>)
 8002336:	601a      	str	r2, [r3, #0]
 8002338:	f7fe fb80 	bl	8000a3c <HAL_GetTick>
 800233c:	4605      	mov	r5, r0
 800233e:	e005      	b.n	800234c <HAL_RCC_OscConfig+0xc0>
 8002340:	f7fe fb7c 	bl	8000a3c <HAL_GetTick>
 8002344:	1b40      	subs	r0, r0, r5
 8002346:	2802      	cmp	r0, #2
 8002348:	f200 80c6 	bhi.w	80024d8 <HAL_RCC_OscConfig+0x24c>
 800234c:	6833      	ldr	r3, [r6, #0]
 800234e:	0798      	lsls	r0, r3, #30
 8002350:	d5f6      	bpl.n	8002340 <HAL_RCC_OscConfig+0xb4>
 8002352:	6833      	ldr	r3, [r6, #0]
 8002354:	6962      	ldr	r2, [r4, #20]
 8002356:	f023 03f8 	bic.w	r3, r3, #248	; 0xf8
 800235a:	ea43 03c2 	orr.w	r3, r3, r2, lsl #3
 800235e:	6033      	str	r3, [r6, #0]
 8002360:	6823      	ldr	r3, [r4, #0]
 8002362:	071a      	lsls	r2, r3, #28
 8002364:	d41f      	bmi.n	80023a6 <HAL_RCC_OscConfig+0x11a>
 8002366:	075d      	lsls	r5, r3, #29
 8002368:	d542      	bpl.n	80023f0 <HAL_RCC_OscConfig+0x164>
 800236a:	4b68      	ldr	r3, [pc, #416]	; (800250c <HAL_RCC_OscConfig+0x280>)
 800236c:	69da      	ldr	r2, [r3, #28]
 800236e:	00d0      	lsls	r0, r2, #3
 8002370:	d57d      	bpl.n	800246e <HAL_RCC_OscConfig+0x1e2>
 8002372:	2500      	movs	r5, #0
 8002374:	4e67      	ldr	r6, [pc, #412]	; (8002514 <HAL_RCC_OscConfig+0x288>)
 8002376:	6833      	ldr	r3, [r6, #0]
 8002378:	05d9      	lsls	r1, r3, #23
 800237a:	f140 809d 	bpl.w	80024b8 <HAL_RCC_OscConfig+0x22c>
 800237e:	68e3      	ldr	r3, [r4, #12]
 8002380:	2b01      	cmp	r3, #1
 8002382:	f000 80fe 	beq.w	8002582 <HAL_RCC_OscConfig+0x2f6>
 8002386:	2b00      	cmp	r3, #0
 8002388:	f000 80ca 	beq.w	8002520 <HAL_RCC_OscConfig+0x294>
 800238c:	2b05      	cmp	r3, #5
 800238e:	4b5f      	ldr	r3, [pc, #380]	; (800250c <HAL_RCC_OscConfig+0x280>)
 8002390:	6a1a      	ldr	r2, [r3, #32]
 8002392:	f000 812c 	beq.w	80025ee <HAL_RCC_OscConfig+0x362>
 8002396:	f022 0201 	bic.w	r2, r2, #1
 800239a:	621a      	str	r2, [r3, #32]
 800239c:	6a1a      	ldr	r2, [r3, #32]
 800239e:	f022 0204 	bic.w	r2, r2, #4
 80023a2:	621a      	str	r2, [r3, #32]
 80023a4:	e0f2      	b.n	800258c <HAL_RCC_OscConfig+0x300>
 80023a6:	69a3      	ldr	r3, [r4, #24]
 80023a8:	2b00      	cmp	r3, #0
 80023aa:	d04f      	beq.n	800244c <HAL_RCC_OscConfig+0x1c0>
 80023ac:	2201      	movs	r2, #1
 80023ae:	4b58      	ldr	r3, [pc, #352]	; (8002510 <HAL_RCC_OscConfig+0x284>)
 80023b0:	4e56      	ldr	r6, [pc, #344]	; (800250c <HAL_RCC_OscConfig+0x280>)
 80023b2:	f8c3 2480 	str.w	r2, [r3, #1152]	; 0x480
 80023b6:	f7fe fb41 	bl	8000a3c <HAL_GetTick>
 80023ba:	4605      	mov	r5, r0
 80023bc:	e005      	b.n	80023ca <HAL_RCC_OscConfig+0x13e>
 80023be:	f7fe fb3d 	bl	8000a3c <HAL_GetTick>
 80023c2:	1b40      	subs	r0, r0, r5
 80023c4:	2802      	cmp	r0, #2
 80023c6:	f200 8087 	bhi.w	80024d8 <HAL_RCC_OscConfig+0x24c>
 80023ca:	6a73      	ldr	r3, [r6, #36]	; 0x24
 80023cc:	079b      	lsls	r3, r3, #30
 80023ce:	d5f6      	bpl.n	80023be <HAL_RCC_OscConfig+0x132>
 80023d0:	4b51      	ldr	r3, [pc, #324]	; (8002518 <HAL_RCC_OscConfig+0x28c>)
 80023d2:	4a52      	ldr	r2, [pc, #328]	; (800251c <HAL_RCC_OscConfig+0x290>)
 80023d4:	681b      	ldr	r3, [r3, #0]
 80023d6:	fba2 2303 	umull	r2, r3, r2, r3
 80023da:	0a5b      	lsrs	r3, r3, #9
 80023dc:	9301      	str	r3, [sp, #4]
 80023de:	bf00      	nop
 80023e0:	9b01      	ldr	r3, [sp, #4]
 80023e2:	1e5a      	subs	r2, r3, #1
 80023e4:	9201      	str	r2, [sp, #4]
 80023e6:	2b00      	cmp	r3, #0
 80023e8:	d1f9      	bne.n	80023de <HAL_RCC_OscConfig+0x152>
 80023ea:	6823      	ldr	r3, [r4, #0]
 80023ec:	075d      	lsls	r5, r3, #29
 80023ee:	d4bc      	bmi.n	800236a <HAL_RCC_OscConfig+0xde>
 80023f0:	69e0      	ldr	r0, [r4, #28]
 80023f2:	b1c0      	cbz	r0, 8002426 <HAL_RCC_OscConfig+0x19a>
 80023f4:	4d45      	ldr	r5, [pc, #276]	; (800250c <HAL_RCC_OscConfig+0x280>)
 80023f6:	686b      	ldr	r3, [r5, #4]
 80023f8:	f003 030c 	and.w	r3, r3, #12
 80023fc:	2b08      	cmp	r3, #8
 80023fe:	f000 80d8 	beq.w	80025b2 <HAL_RCC_OscConfig+0x326>
 8002402:	2200      	movs	r2, #0
 8002404:	4b42      	ldr	r3, [pc, #264]	; (8002510 <HAL_RCC_OscConfig+0x284>)
 8002406:	2802      	cmp	r0, #2
 8002408:	661a      	str	r2, [r3, #96]	; 0x60
 800240a:	f000 80fa 	beq.w	8002602 <HAL_RCC_OscConfig+0x376>
 800240e:	f7fe fb15 	bl	8000a3c <HAL_GetTick>
 8002412:	4604      	mov	r4, r0
 8002414:	e004      	b.n	8002420 <HAL_RCC_OscConfig+0x194>
 8002416:	f7fe fb11 	bl	8000a3c <HAL_GetTick>
 800241a:	1b00      	subs	r0, r0, r4
 800241c:	2802      	cmp	r0, #2
 800241e:	d85b      	bhi.n	80024d8 <HAL_RCC_OscConfig+0x24c>
 8002420:	682b      	ldr	r3, [r5, #0]
 8002422:	019b      	lsls	r3, r3, #6
 8002424:	d4f7      	bmi.n	8002416 <HAL_RCC_OscConfig+0x18a>
 8002426:	2000      	movs	r0, #0
 8002428:	b002      	add	sp, #8
 800242a:	e8bd 81f0 	ldmia.w	sp!, {r4, r5, r6, r7, r8, pc}
 800242e:	6852      	ldr	r2, [r2, #4]
 8002430:	03d6      	lsls	r6, r2, #15
 8002432:	f53f af79 	bmi.w	8002328 <HAL_RCC_OscConfig+0x9c>
 8002436:	4a35      	ldr	r2, [pc, #212]	; (800250c <HAL_RCC_OscConfig+0x280>)
 8002438:	6812      	ldr	r2, [r2, #0]
 800243a:	0795      	lsls	r5, r2, #30
 800243c:	d530      	bpl.n	80024a0 <HAL_RCC_OscConfig+0x214>
 800243e:	6922      	ldr	r2, [r4, #16]
 8002440:	2a01      	cmp	r2, #1
 8002442:	d02d      	beq.n	80024a0 <HAL_RCC_OscConfig+0x214>
 8002444:	2001      	movs	r0, #1
 8002446:	b002      	add	sp, #8
 8002448:	e8bd 81f0 	ldmia.w	sp!, {r4, r5, r6, r7, r8, pc}
 800244c:	4a30      	ldr	r2, [pc, #192]	; (8002510 <HAL_RCC_OscConfig+0x284>)
 800244e:	4e2f      	ldr	r6, [pc, #188]	; (800250c <HAL_RCC_OscConfig+0x280>)
 8002450:	f8c2 3480 	str.w	r3, [r2, #1152]	; 0x480
 8002454:	f7fe faf2 	bl	8000a3c <HAL_GetTick>
 8002458:	4605      	mov	r5, r0
 800245a:	e004      	b.n	8002466 <HAL_RCC_OscConfig+0x1da>
 800245c:	f7fe faee 	bl	8000a3c <HAL_GetTick>
 8002460:	1b40      	subs	r0, r0, r5
 8002462:	2802      	cmp	r0, #2
 8002464:	d838      	bhi.n	80024d8 <HAL_RCC_OscConfig+0x24c>
 8002466:	6a73      	ldr	r3, [r6, #36]	; 0x24
 8002468:	079f      	lsls	r7, r3, #30
 800246a:	d4f7      	bmi.n	800245c <HAL_RCC_OscConfig+0x1d0>
 800246c:	e7bd      	b.n	80023ea <HAL_RCC_OscConfig+0x15e>
 800246e:	69da      	ldr	r2, [r3, #28]
 8002470:	2501      	movs	r5, #1
 8002472:	f042 5280 	orr.w	r2, r2, #268435456	; 0x10000000
 8002476:	61da      	str	r2, [r3, #28]
 8002478:	69db      	ldr	r3, [r3, #28]
 800247a:	f003 5380 	and.w	r3, r3, #268435456	; 0x10000000
 800247e:	9300      	str	r3, [sp, #0]
 8002480:	9b00      	ldr	r3, [sp, #0]
 8002482:	e777      	b.n	8002374 <HAL_RCC_OscConfig+0xe8>
 8002484:	684a      	ldr	r2, [r1, #4]
 8002486:	03d0      	lsls	r0, r2, #15
 8002488:	f57f af17 	bpl.w	80022ba <HAL_RCC_OscConfig+0x2e>
 800248c:	4a1f      	ldr	r2, [pc, #124]	; (800250c <HAL_RCC_OscConfig+0x280>)
 800248e:	6812      	ldr	r2, [r2, #0]
 8002490:	0391      	lsls	r1, r2, #14
 8002492:	f57f af3b 	bpl.w	800230c <HAL_RCC_OscConfig+0x80>
 8002496:	6862      	ldr	r2, [r4, #4]
 8002498:	2a00      	cmp	r2, #0
 800249a:	f47f af37 	bne.w	800230c <HAL_RCC_OscConfig+0x80>
 800249e:	e7d1      	b.n	8002444 <HAL_RCC_OscConfig+0x1b8>
 80024a0:	491a      	ldr	r1, [pc, #104]	; (800250c <HAL_RCC_OscConfig+0x280>)
 80024a2:	6960      	ldr	r0, [r4, #20]
 80024a4:	680a      	ldr	r2, [r1, #0]
 80024a6:	f022 02f8 	bic.w	r2, r2, #248	; 0xf8
 80024aa:	ea42 02c0 	orr.w	r2, r2, r0, lsl #3
 80024ae:	600a      	str	r2, [r1, #0]
 80024b0:	071a      	lsls	r2, r3, #28
 80024b2:	f57f af58 	bpl.w	8002366 <HAL_RCC_OscConfig+0xda>
 80024b6:	e776      	b.n	80023a6 <HAL_RCC_OscConfig+0x11a>
 80024b8:	6833      	ldr	r3, [r6, #0]
 80024ba:	f443 7380 	orr.w	r3, r3, #256	; 0x100
 80024be:	6033      	str	r3, [r6, #0]
 80024c0:	f7fe fabc 	bl	8000a3c <HAL_GetTick>
 80024c4:	4607      	mov	r7, r0
 80024c6:	6833      	ldr	r3, [r6, #0]
 80024c8:	05da      	lsls	r2, r3, #23
 80024ca:	f53f af58 	bmi.w	800237e <HAL_RCC_OscConfig+0xf2>
 80024ce:	f7fe fab5 	bl	8000a3c <HAL_GetTick>
 80024d2:	1bc0      	subs	r0, r0, r7
 80024d4:	2864      	cmp	r0, #100	; 0x64
 80024d6:	d9f6      	bls.n	80024c6 <HAL_RCC_OscConfig+0x23a>
 80024d8:	2003      	movs	r0, #3
 80024da:	b002      	add	sp, #8
 80024dc:	e8bd 81f0 	ldmia.w	sp!, {r4, r5, r6, r7, r8, pc}
 80024e0:	4d0a      	ldr	r5, [pc, #40]	; (800250c <HAL_RCC_OscConfig+0x280>)
 80024e2:	682b      	ldr	r3, [r5, #0]
 80024e4:	f423 3380 	bic.w	r3, r3, #65536	; 0x10000
 80024e8:	602b      	str	r3, [r5, #0]
 80024ea:	682b      	ldr	r3, [r5, #0]
 80024ec:	f423 2380 	bic.w	r3, r3, #262144	; 0x40000
 80024f0:	602b      	str	r3, [r5, #0]
 80024f2:	f7fe faa3 	bl	8000a3c <HAL_GetTick>
 80024f6:	4606      	mov	r6, r0
 80024f8:	e004      	b.n	8002504 <HAL_RCC_OscConfig+0x278>
 80024fa:	f7fe fa9f 	bl	8000a3c <HAL_GetTick>
 80024fe:	1b80      	subs	r0, r0, r6
 8002500:	2864      	cmp	r0, #100	; 0x64
 8002502:	d8e9      	bhi.n	80024d8 <HAL_RCC_OscConfig+0x24c>
 8002504:	682b      	ldr	r3, [r5, #0]
 8002506:	039b      	lsls	r3, r3, #14
 8002508:	d4f7      	bmi.n	80024fa <HAL_RCC_OscConfig+0x26e>
 800250a:	e6fe      	b.n	800230a <HAL_RCC_OscConfig+0x7e>
 800250c:	40021000 	.word	0x40021000
 8002510:	42420000 	.word	0x42420000
 8002514:	40007000 	.word	0x40007000
 8002518:	20000000 	.word	0x20000000
 800251c:	10624dd3 	.word	0x10624dd3
 8002520:	4e50      	ldr	r6, [pc, #320]	; (8002664 <HAL_RCC_OscConfig+0x3d8>)
 8002522:	f241 3888 	movw	r8, #5000	; 0x1388
 8002526:	6a33      	ldr	r3, [r6, #32]
 8002528:	f023 0301 	bic.w	r3, r3, #1
 800252c:	6233      	str	r3, [r6, #32]
 800252e:	6a33      	ldr	r3, [r6, #32]
 8002530:	f023 0304 	bic.w	r3, r3, #4
 8002534:	6233      	str	r3, [r6, #32]
 8002536:	f7fe fa81 	bl	8000a3c <HAL_GetTick>
 800253a:	4607      	mov	r7, r0
 800253c:	e004      	b.n	8002548 <HAL_RCC_OscConfig+0x2bc>
 800253e:	f7fe fa7d 	bl	8000a3c <HAL_GetTick>
 8002542:	1bc0      	subs	r0, r0, r7
 8002544:	4540      	cmp	r0, r8
 8002546:	d8c7      	bhi.n	80024d8 <HAL_RCC_OscConfig+0x24c>
 8002548:	6a33      	ldr	r3, [r6, #32]
 800254a:	0798      	lsls	r0, r3, #30
 800254c:	d4f7      	bmi.n	800253e <HAL_RCC_OscConfig+0x2b2>
 800254e:	2d00      	cmp	r5, #0
 8002550:	f43f af4e 	beq.w	80023f0 <HAL_RCC_OscConfig+0x164>
 8002554:	4a43      	ldr	r2, [pc, #268]	; (8002664 <HAL_RCC_OscConfig+0x3d8>)
 8002556:	69d3      	ldr	r3, [r2, #28]
 8002558:	f023 5380 	bic.w	r3, r3, #268435456	; 0x10000000
 800255c:	61d3      	str	r3, [r2, #28]
 800255e:	e747      	b.n	80023f0 <HAL_RCC_OscConfig+0x164>
 8002560:	4a41      	ldr	r2, [pc, #260]	; (8002668 <HAL_RCC_OscConfig+0x3dc>)
 8002562:	4e40      	ldr	r6, [pc, #256]	; (8002664 <HAL_RCC_OscConfig+0x3d8>)
 8002564:	6013      	str	r3, [r2, #0]
 8002566:	f7fe fa69 	bl	8000a3c <HAL_GetTick>
 800256a:	4605      	mov	r5, r0
 800256c:	e004      	b.n	8002578 <HAL_RCC_OscConfig+0x2ec>
 800256e:	f7fe fa65 	bl	8000a3c <HAL_GetTick>
 8002572:	1b40      	subs	r0, r0, r5
 8002574:	2802      	cmp	r0, #2
 8002576:	d8af      	bhi.n	80024d8 <HAL_RCC_OscConfig+0x24c>
 8002578:	6833      	ldr	r3, [r6, #0]
 800257a:	0799      	lsls	r1, r3, #30
 800257c:	d4f7      	bmi.n	800256e <HAL_RCC_OscConfig+0x2e2>
 800257e:	6823      	ldr	r3, [r4, #0]
 8002580:	e6ef      	b.n	8002362 <HAL_RCC_OscConfig+0xd6>
 8002582:	4a38      	ldr	r2, [pc, #224]	; (8002664 <HAL_RCC_OscConfig+0x3d8>)
 8002584:	6a13      	ldr	r3, [r2, #32]
 8002586:	f043 0301 	orr.w	r3, r3, #1
 800258a:	6213      	str	r3, [r2, #32]
 800258c:	f7fe fa56 	bl	8000a3c <HAL_GetTick>
 8002590:	f241 3888 	movw	r8, #5000	; 0x1388
 8002594:	4606      	mov	r6, r0
 8002596:	4f33      	ldr	r7, [pc, #204]	; (8002664 <HAL_RCC_OscConfig+0x3d8>)
 8002598:	e004      	b.n	80025a4 <HAL_RCC_OscConfig+0x318>
 800259a:	f7fe fa4f 	bl	8000a3c <HAL_GetTick>
 800259e:	1b80      	subs	r0, r0, r6
 80025a0:	4540      	cmp	r0, r8
 80025a2:	d899      	bhi.n	80024d8 <HAL_RCC_OscConfig+0x24c>
 80025a4:	6a3b      	ldr	r3, [r7, #32]
 80025a6:	079b      	lsls	r3, r3, #30
 80025a8:	d5f7      	bpl.n	800259a <HAL_RCC_OscConfig+0x30e>
 80025aa:	2d00      	cmp	r5, #0
 80025ac:	f43f af20 	beq.w	80023f0 <HAL_RCC_OscConfig+0x164>
 80025b0:	e7d0      	b.n	8002554 <HAL_RCC_OscConfig+0x2c8>
 80025b2:	2801      	cmp	r0, #1
 80025b4:	f43f af38 	beq.w	8002428 <HAL_RCC_OscConfig+0x19c>
 80025b8:	686b      	ldr	r3, [r5, #4]
 80025ba:	6a22      	ldr	r2, [r4, #32]
 80025bc:	f403 3180 	and.w	r1, r3, #65536	; 0x10000
 80025c0:	4291      	cmp	r1, r2
 80025c2:	f47f af3f 	bne.w	8002444 <HAL_RCC_OscConfig+0x1b8>
 80025c6:	6a60      	ldr	r0, [r4, #36]	; 0x24
 80025c8:	f403 1370 	and.w	r3, r3, #3932160	; 0x3c0000
 80025cc:	1a18      	subs	r0, r3, r0
 80025ce:	bf18      	it	ne
 80025d0:	2001      	movne	r0, #1
 80025d2:	e729      	b.n	8002428 <HAL_RCC_OscConfig+0x19c>
 80025d4:	f103 4380 	add.w	r3, r3, #1073741824	; 0x40000000
 80025d8:	f5a3 333c 	sub.w	r3, r3, #192512	; 0x2f000
 80025dc:	681a      	ldr	r2, [r3, #0]
 80025de:	f442 2280 	orr.w	r2, r2, #262144	; 0x40000
 80025e2:	601a      	str	r2, [r3, #0]
 80025e4:	681a      	ldr	r2, [r3, #0]
 80025e6:	f442 3280 	orr.w	r2, r2, #65536	; 0x10000
 80025ea:	601a      	str	r2, [r3, #0]
 80025ec:	e67f      	b.n	80022ee <HAL_RCC_OscConfig+0x62>
 80025ee:	f042 0204 	orr.w	r2, r2, #4
 80025f2:	621a      	str	r2, [r3, #32]
 80025f4:	6a1a      	ldr	r2, [r3, #32]
 80025f6:	f042 0201 	orr.w	r2, r2, #1
 80025fa:	621a      	str	r2, [r3, #32]
 80025fc:	e7c6      	b.n	800258c <HAL_RCC_OscConfig+0x300>
 80025fe:	2001      	movs	r0, #1
 8002600:	4770      	bx	lr
 8002602:	f7fe fa1b 	bl	8000a3c <HAL_GetTick>
 8002606:	4606      	mov	r6, r0
 8002608:	e005      	b.n	8002616 <HAL_RCC_OscConfig+0x38a>
 800260a:	f7fe fa17 	bl	8000a3c <HAL_GetTick>
 800260e:	1b80      	subs	r0, r0, r6
 8002610:	2802      	cmp	r0, #2
 8002612:	f63f af61 	bhi.w	80024d8 <HAL_RCC_OscConfig+0x24c>
 8002616:	682b      	ldr	r3, [r5, #0]
 8002618:	0199      	lsls	r1, r3, #6
 800261a:	d4f6      	bmi.n	800260a <HAL_RCC_OscConfig+0x37e>
 800261c:	6a23      	ldr	r3, [r4, #32]
 800261e:	f5b3 3f80 	cmp.w	r3, #65536	; 0x10000
 8002622:	d105      	bne.n	8002630 <HAL_RCC_OscConfig+0x3a4>
 8002624:	686a      	ldr	r2, [r5, #4]
 8002626:	68a1      	ldr	r1, [r4, #8]
 8002628:	f422 3200 	bic.w	r2, r2, #131072	; 0x20000
 800262c:	430a      	orrs	r2, r1
 800262e:	606a      	str	r2, [r5, #4]
 8002630:	2001      	movs	r0, #1
 8002632:	4d0c      	ldr	r5, [pc, #48]	; (8002664 <HAL_RCC_OscConfig+0x3d8>)
 8002634:	6a61      	ldr	r1, [r4, #36]	; 0x24
 8002636:	686a      	ldr	r2, [r5, #4]
 8002638:	430b      	orrs	r3, r1
 800263a:	f422 1274 	bic.w	r2, r2, #3997696	; 0x3d0000
 800263e:	490a      	ldr	r1, [pc, #40]	; (8002668 <HAL_RCC_OscConfig+0x3dc>)
 8002640:	4313      	orrs	r3, r2
 8002642:	606b      	str	r3, [r5, #4]
 8002644:	6608      	str	r0, [r1, #96]	; 0x60
 8002646:	f7fe f9f9 	bl	8000a3c <HAL_GetTick>
 800264a:	4604      	mov	r4, r0
 800264c:	e005      	b.n	800265a <HAL_RCC_OscConfig+0x3ce>
 800264e:	f7fe f9f5 	bl	8000a3c <HAL_GetTick>
 8002652:	1b00      	subs	r0, r0, r4
 8002654:	2802      	cmp	r0, #2
 8002656:	f63f af3f 	bhi.w	80024d8 <HAL_RCC_OscConfig+0x24c>
 800265a:	682b      	ldr	r3, [r5, #0]
 800265c:	019a      	lsls	r2, r3, #6
 800265e:	d5f6      	bpl.n	800264e <HAL_RCC_OscConfig+0x3c2>
 8002660:	e6e1      	b.n	8002426 <HAL_RCC_OscConfig+0x19a>
 8002662:	bf00      	nop
 8002664:	40021000 	.word	0x40021000
 8002668:	42420000 	.word	0x42420000

0800266c <HAL_RCC_ClockConfig>:
 800266c:	2800      	cmp	r0, #0
 800266e:	f000 80b1 	beq.w	80027d4 <HAL_RCC_ClockConfig+0x168>
 8002672:	4a5e      	ldr	r2, [pc, #376]	; (80027ec <HAL_RCC_ClockConfig+0x180>)
 8002674:	e92d 41f0 	stmdb	sp!, {r4, r5, r6, r7, r8, lr}
 8002678:	6813      	ldr	r3, [r2, #0]
 800267a:	4604      	mov	r4, r0
 800267c:	f003 0307 	and.w	r3, r3, #7
 8002680:	428b      	cmp	r3, r1
 8002682:	460d      	mov	r5, r1
 8002684:	b086      	sub	sp, #24
 8002686:	d20d      	bcs.n	80026a4 <HAL_RCC_ClockConfig+0x38>
 8002688:	6813      	ldr	r3, [r2, #0]
 800268a:	f023 0307 	bic.w	r3, r3, #7
 800268e:	430b      	orrs	r3, r1
 8002690:	6013      	str	r3, [r2, #0]
 8002692:	6813      	ldr	r3, [r2, #0]
 8002694:	f003 0307 	and.w	r3, r3, #7
 8002698:	428b      	cmp	r3, r1
 800269a:	d003      	beq.n	80026a4 <HAL_RCC_ClockConfig+0x38>
 800269c:	2001      	movs	r0, #1
 800269e:	b006      	add	sp, #24
 80026a0:	e8bd 81f0 	ldmia.w	sp!, {r4, r5, r6, r7, r8, pc}
 80026a4:	6823      	ldr	r3, [r4, #0]
 80026a6:	079e      	lsls	r6, r3, #30
 80026a8:	d514      	bpl.n	80026d4 <HAL_RCC_ClockConfig+0x68>
 80026aa:	0758      	lsls	r0, r3, #29
 80026ac:	d504      	bpl.n	80026b8 <HAL_RCC_ClockConfig+0x4c>
 80026ae:	4950      	ldr	r1, [pc, #320]	; (80027f0 <HAL_RCC_ClockConfig+0x184>)
 80026b0:	684a      	ldr	r2, [r1, #4]
 80026b2:	f442 62e0 	orr.w	r2, r2, #1792	; 0x700
 80026b6:	604a      	str	r2, [r1, #4]
 80026b8:	0719      	lsls	r1, r3, #28
 80026ba:	d504      	bpl.n	80026c6 <HAL_RCC_ClockConfig+0x5a>
 80026bc:	494c      	ldr	r1, [pc, #304]	; (80027f0 <HAL_RCC_ClockConfig+0x184>)
 80026be:	684a      	ldr	r2, [r1, #4]
 80026c0:	f442 5260 	orr.w	r2, r2, #14336	; 0x3800
 80026c4:	604a      	str	r2, [r1, #4]
 80026c6:	494a      	ldr	r1, [pc, #296]	; (80027f0 <HAL_RCC_ClockConfig+0x184>)
 80026c8:	68a0      	ldr	r0, [r4, #8]
 80026ca:	684a      	ldr	r2, [r1, #4]
 80026cc:	f022 02f0 	bic.w	r2, r2, #240	; 0xf0
 80026d0:	4302      	orrs	r2, r0
 80026d2:	604a      	str	r2, [r1, #4]
 80026d4:	07da      	lsls	r2, r3, #31
 80026d6:	d520      	bpl.n	800271a <HAL_RCC_ClockConfig+0xae>
 80026d8:	6862      	ldr	r2, [r4, #4]
 80026da:	4b45      	ldr	r3, [pc, #276]	; (80027f0 <HAL_RCC_ClockConfig+0x184>)
 80026dc:	2a01      	cmp	r2, #1
 80026de:	681b      	ldr	r3, [r3, #0]
 80026e0:	d07a      	beq.n	80027d8 <HAL_RCC_ClockConfig+0x16c>
 80026e2:	2a02      	cmp	r2, #2
 80026e4:	d073      	beq.n	80027ce <HAL_RCC_ClockConfig+0x162>
 80026e6:	079e      	lsls	r6, r3, #30
 80026e8:	d5d8      	bpl.n	800269c <HAL_RCC_ClockConfig+0x30>
 80026ea:	4e41      	ldr	r6, [pc, #260]	; (80027f0 <HAL_RCC_ClockConfig+0x184>)
 80026ec:	f241 3888 	movw	r8, #5000	; 0x1388
 80026f0:	6873      	ldr	r3, [r6, #4]
 80026f2:	f023 0303 	bic.w	r3, r3, #3
 80026f6:	4313      	orrs	r3, r2
 80026f8:	6073      	str	r3, [r6, #4]
 80026fa:	f7fe f99f 	bl	8000a3c <HAL_GetTick>
 80026fe:	4607      	mov	r7, r0
 8002700:	e004      	b.n	800270c <HAL_RCC_ClockConfig+0xa0>
 8002702:	f7fe f99b 	bl	8000a3c <HAL_GetTick>
 8002706:	1bc0      	subs	r0, r0, r7
 8002708:	4540      	cmp	r0, r8
 800270a:	d868      	bhi.n	80027de <HAL_RCC_ClockConfig+0x172>
 800270c:	6873      	ldr	r3, [r6, #4]
 800270e:	6862      	ldr	r2, [r4, #4]
 8002710:	f003 030c 	and.w	r3, r3, #12
 8002714:	ebb3 0f82 	cmp.w	r3, r2, lsl #2
 8002718:	d1f3      	bne.n	8002702 <HAL_RCC_ClockConfig+0x96>
 800271a:	4a34      	ldr	r2, [pc, #208]	; (80027ec <HAL_RCC_ClockConfig+0x180>)
 800271c:	6813      	ldr	r3, [r2, #0]
 800271e:	f003 0307 	and.w	r3, r3, #7
 8002722:	42ab      	cmp	r3, r5
 8002724:	d909      	bls.n	800273a <HAL_RCC_ClockConfig+0xce>
 8002726:	6813      	ldr	r3, [r2, #0]
 8002728:	f023 0307 	bic.w	r3, r3, #7
 800272c:	432b      	orrs	r3, r5
 800272e:	6013      	str	r3, [r2, #0]
 8002730:	6813      	ldr	r3, [r2, #0]
 8002732:	f003 0307 	and.w	r3, r3, #7
 8002736:	42ab      	cmp	r3, r5
 8002738:	d1b0      	bne.n	800269c <HAL_RCC_ClockConfig+0x30>
 800273a:	6823      	ldr	r3, [r4, #0]
 800273c:	0758      	lsls	r0, r3, #29
 800273e:	d506      	bpl.n	800274e <HAL_RCC_ClockConfig+0xe2>
 8002740:	492b      	ldr	r1, [pc, #172]	; (80027f0 <HAL_RCC_ClockConfig+0x184>)
 8002742:	68e0      	ldr	r0, [r4, #12]
 8002744:	684a      	ldr	r2, [r1, #4]
 8002746:	f422 62e0 	bic.w	r2, r2, #1792	; 0x700
 800274a:	4302      	orrs	r2, r0
 800274c:	604a      	str	r2, [r1, #4]
 800274e:	0719      	lsls	r1, r3, #28
 8002750:	d507      	bpl.n	8002762 <HAL_RCC_ClockConfig+0xf6>
 8002752:	4a27      	ldr	r2, [pc, #156]	; (80027f0 <HAL_RCC_ClockConfig+0x184>)
 8002754:	6921      	ldr	r1, [r4, #16]
 8002756:	6853      	ldr	r3, [r2, #4]
 8002758:	f423 5360 	bic.w	r3, r3, #14336	; 0x3800
 800275c:	ea43 03c1 	orr.w	r3, r3, r1, lsl #3
 8002760:	6053      	str	r3, [r2, #4]
 8002762:	f240 2401 	movw	r4, #513	; 0x201
 8002766:	4b23      	ldr	r3, [pc, #140]	; (80027f4 <HAL_RCC_ClockConfig+0x188>)
 8002768:	ad06      	add	r5, sp, #24
 800276a:	cb0f      	ldmia	r3, {r0, r1, r2, r3}
 800276c:	e905 000f 	stmdb	r5, {r0, r1, r2, r3}
 8002770:	491f      	ldr	r1, [pc, #124]	; (80027f0 <HAL_RCC_ClockConfig+0x184>)
 8002772:	f8ad 4004 	strh.w	r4, [sp, #4]
 8002776:	684a      	ldr	r2, [r1, #4]
 8002778:	f002 030c 	and.w	r3, r2, #12
 800277c:	2b08      	cmp	r3, #8
 800277e:	d011      	beq.n	80027a4 <HAL_RCC_ClockConfig+0x138>
 8002780:	4b1d      	ldr	r3, [pc, #116]	; (80027f8 <HAL_RCC_ClockConfig+0x18c>)
 8002782:	4a1b      	ldr	r2, [pc, #108]	; (80027f0 <HAL_RCC_ClockConfig+0x184>)
 8002784:	481d      	ldr	r0, [pc, #116]	; (80027fc <HAL_RCC_ClockConfig+0x190>)
 8002786:	6852      	ldr	r2, [r2, #4]
 8002788:	491d      	ldr	r1, [pc, #116]	; (8002800 <HAL_RCC_ClockConfig+0x194>)
 800278a:	f3c2 1203 	ubfx	r2, r2, #4, #4
 800278e:	5c80      	ldrb	r0, [r0, r2]
 8002790:	4a1c      	ldr	r2, [pc, #112]	; (8002804 <HAL_RCC_ClockConfig+0x198>)
 8002792:	40c3      	lsrs	r3, r0
 8002794:	6808      	ldr	r0, [r1, #0]
 8002796:	6013      	str	r3, [r2, #0]
 8002798:	f7fe f90e 	bl	80009b8 <HAL_InitTick>
 800279c:	2000      	movs	r0, #0
 800279e:	b006      	add	sp, #24
 80027a0:	e8bd 81f0 	ldmia.w	sp!, {r4, r5, r6, r7, r8, pc}
 80027a4:	f3c2 4383 	ubfx	r3, r2, #18, #4
 80027a8:	3318      	adds	r3, #24
 80027aa:	446b      	add	r3, sp
 80027ac:	03d2      	lsls	r2, r2, #15
 80027ae:	f813 3c10 	ldrb.w	r3, [r3, #-16]
 80027b2:	d516      	bpl.n	80027e2 <HAL_RCC_ClockConfig+0x176>
 80027b4:	684a      	ldr	r2, [r1, #4]
 80027b6:	4910      	ldr	r1, [pc, #64]	; (80027f8 <HAL_RCC_ClockConfig+0x18c>)
 80027b8:	f3c2 4240 	ubfx	r2, r2, #17, #1
 80027bc:	fb01 f303 	mul.w	r3, r1, r3
 80027c0:	3218      	adds	r2, #24
 80027c2:	446a      	add	r2, sp
 80027c4:	f812 2c14 	ldrb.w	r2, [r2, #-20]
 80027c8:	fbb3 f3f2 	udiv	r3, r3, r2
 80027cc:	e7d9      	b.n	8002782 <HAL_RCC_ClockConfig+0x116>
 80027ce:	019f      	lsls	r7, r3, #6
 80027d0:	d48b      	bmi.n	80026ea <HAL_RCC_ClockConfig+0x7e>
 80027d2:	e763      	b.n	800269c <HAL_RCC_ClockConfig+0x30>
 80027d4:	2001      	movs	r0, #1
 80027d6:	4770      	bx	lr
 80027d8:	039b      	lsls	r3, r3, #14
 80027da:	d486      	bmi.n	80026ea <HAL_RCC_ClockConfig+0x7e>
 80027dc:	e75e      	b.n	800269c <HAL_RCC_ClockConfig+0x30>
 80027de:	2003      	movs	r0, #3
 80027e0:	e75d      	b.n	800269e <HAL_RCC_ClockConfig+0x32>
 80027e2:	4a09      	ldr	r2, [pc, #36]	; (8002808 <HAL_RCC_ClockConfig+0x19c>)
 80027e4:	fb02 f303 	mul.w	r3, r2, r3
 80027e8:	e7cb      	b.n	8002782 <HAL_RCC_ClockConfig+0x116>
 80027ea:	bf00      	nop
 80027ec:	40022000 	.word	0x40022000
 80027f0:	40021000 	.word	0x40021000
 80027f4:	08003e20 	.word	0x08003e20
 80027f8:	007a1200 	.word	0x007a1200
 80027fc:	08003e08 	.word	0x08003e08
 8002800:	20000008 	.word	0x20000008
 8002804:	20000000 	.word	0x20000000
 8002808:	003d0900 	.word	0x003d0900

0800280c <HAL_RCC_GetHCLKFreq>:
 800280c:	4b01      	ldr	r3, [pc, #4]	; (8002814 <HAL_RCC_GetHCLKFreq+0x8>)
 800280e:	6818      	ldr	r0, [r3, #0]
 8002810:	4770      	bx	lr
 8002812:	bf00      	nop
 8002814:	20000000 	.word	0x20000000

08002818 <HAL_RCC_GetPCLK1Freq>:
 8002818:	4b04      	ldr	r3, [pc, #16]	; (800282c <HAL_RCC_GetPCLK1Freq+0x14>)
 800281a:	4a05      	ldr	r2, [pc, #20]	; (8002830 <HAL_RCC_GetPCLK1Freq+0x18>)
 800281c:	685b      	ldr	r3, [r3, #4]
 800281e:	4905      	ldr	r1, [pc, #20]	; (8002834 <HAL_RCC_GetPCLK1Freq+0x1c>)
 8002820:	f3c3 2302 	ubfx	r3, r3, #8, #3
 8002824:	5ccb      	ldrb	r3, [r1, r3]
 8002826:	6810      	ldr	r0, [r2, #0]
 8002828:	40d8      	lsrs	r0, r3
 800282a:	4770      	bx	lr
 800282c:	40021000 	.word	0x40021000
 8002830:	20000000 	.word	0x20000000
 8002834:	08003e18 	.word	0x08003e18

08002838 <HAL_RCC_GetPCLK2Freq>:
 8002838:	4b04      	ldr	r3, [pc, #16]	; (800284c <HAL_RCC_GetPCLK2Freq+0x14>)
 800283a:	4a05      	ldr	r2, [pc, #20]	; (8002850 <HAL_RCC_GetPCLK2Freq+0x18>)
 800283c:	685b      	ldr	r3, [r3, #4]
 800283e:	4905      	ldr	r1, [pc, #20]	; (8002854 <HAL_RCC_GetPCLK2Freq+0x1c>)
 8002840:	f3c3 23c2 	ubfx	r3, r3, #11, #3
 8002844:	5ccb      	ldrb	r3, [r1, r3]
 8002846:	6810      	ldr	r0, [r2, #0]
 8002848:	40d8      	lsrs	r0, r3
 800284a:	4770      	bx	lr
 800284c:	40021000 	.word	0x40021000
 8002850:	20000000 	.word	0x20000000
 8002854:	08003e18 	.word	0x08003e18

08002858 <HAL_RCCEx_PeriphCLKConfig>:
 8002858:	e92d 41f0 	stmdb	sp!, {r4, r5, r6, r7, r8, lr}
 800285c:	4604      	mov	r4, r0
 800285e:	6800      	ldr	r0, [r0, #0]
 8002860:	b082      	sub	sp, #8
 8002862:	07c1      	lsls	r1, r0, #31
 8002864:	d52c      	bpl.n	80028c0 <HAL_RCCEx_PeriphCLKConfig+0x68>
 8002866:	4b3a      	ldr	r3, [pc, #232]	; (8002950 <HAL_RCCEx_PeriphCLKConfig+0xf8>)
 8002868:	69da      	ldr	r2, [r3, #28]
 800286a:	00d2      	lsls	r2, r2, #3
 800286c:	d53f      	bpl.n	80028ee <HAL_RCCEx_PeriphCLKConfig+0x96>
 800286e:	4d39      	ldr	r5, [pc, #228]	; (8002954 <HAL_RCCEx_PeriphCLKConfig+0xfc>)
 8002870:	2600      	movs	r6, #0
 8002872:	682b      	ldr	r3, [r5, #0]
 8002874:	05df      	lsls	r7, r3, #23
 8002876:	d548      	bpl.n	800290a <HAL_RCCEx_PeriphCLKConfig+0xb2>
 8002878:	4d35      	ldr	r5, [pc, #212]	; (8002950 <HAL_RCCEx_PeriphCLKConfig+0xf8>)
 800287a:	6a2b      	ldr	r3, [r5, #32]
 800287c:	f413 7340 	ands.w	r3, r3, #768	; 0x300
 8002880:	d011      	beq.n	80028a6 <HAL_RCCEx_PeriphCLKConfig+0x4e>
 8002882:	6861      	ldr	r1, [r4, #4]
 8002884:	f401 7240 	and.w	r2, r1, #768	; 0x300
 8002888:	429a      	cmp	r2, r3
 800288a:	d00d      	beq.n	80028a8 <HAL_RCCEx_PeriphCLKConfig+0x50>
 800288c:	2701      	movs	r7, #1
 800288e:	2000      	movs	r0, #0
 8002890:	6a2b      	ldr	r3, [r5, #32]
 8002892:	4a31      	ldr	r2, [pc, #196]	; (8002958 <HAL_RCCEx_PeriphCLKConfig+0x100>)
 8002894:	f423 7140 	bic.w	r1, r3, #768	; 0x300
 8002898:	f8c2 7440 	str.w	r7, [r2, #1088]	; 0x440
 800289c:	f8c2 0440 	str.w	r0, [r2, #1088]	; 0x440
 80028a0:	6229      	str	r1, [r5, #32]
 80028a2:	07d9      	lsls	r1, r3, #31
 80028a4:	d444      	bmi.n	8002930 <HAL_RCCEx_PeriphCLKConfig+0xd8>
 80028a6:	6861      	ldr	r1, [r4, #4]
 80028a8:	4a29      	ldr	r2, [pc, #164]	; (8002950 <HAL_RCCEx_PeriphCLKConfig+0xf8>)
 80028aa:	6a13      	ldr	r3, [r2, #32]
 80028ac:	f423 7340 	bic.w	r3, r3, #768	; 0x300
 80028b0:	430b      	orrs	r3, r1
 80028b2:	6213      	str	r3, [r2, #32]
 80028b4:	b11e      	cbz	r6, 80028be <HAL_RCCEx_PeriphCLKConfig+0x66>
 80028b6:	69d3      	ldr	r3, [r2, #28]
 80028b8:	f023 5380 	bic.w	r3, r3, #268435456	; 0x10000000
 80028bc:	61d3      	str	r3, [r2, #28]
 80028be:	6820      	ldr	r0, [r4, #0]
 80028c0:	0783      	lsls	r3, r0, #30
 80028c2:	d506      	bpl.n	80028d2 <HAL_RCCEx_PeriphCLKConfig+0x7a>
 80028c4:	4922      	ldr	r1, [pc, #136]	; (8002950 <HAL_RCCEx_PeriphCLKConfig+0xf8>)
 80028c6:	68a3      	ldr	r3, [r4, #8]
 80028c8:	684a      	ldr	r2, [r1, #4]
 80028ca:	f422 4240 	bic.w	r2, r2, #49152	; 0xc000
 80028ce:	431a      	orrs	r2, r3
 80028d0:	604a      	str	r2, [r1, #4]
 80028d2:	f010 0010 	ands.w	r0, r0, #16
 80028d6:	d007      	beq.n	80028e8 <HAL_RCCEx_PeriphCLKConfig+0x90>
 80028d8:	2000      	movs	r0, #0
 80028da:	4a1d      	ldr	r2, [pc, #116]	; (8002950 <HAL_RCCEx_PeriphCLKConfig+0xf8>)
 80028dc:	6961      	ldr	r1, [r4, #20]
 80028de:	6853      	ldr	r3, [r2, #4]
 80028e0:	f423 0380 	bic.w	r3, r3, #4194304	; 0x400000
 80028e4:	430b      	orrs	r3, r1
 80028e6:	6053      	str	r3, [r2, #4]
 80028e8:	b002      	add	sp, #8
 80028ea:	e8bd 81f0 	ldmia.w	sp!, {r4, r5, r6, r7, r8, pc}
 80028ee:	69da      	ldr	r2, [r3, #28]
 80028f0:	4d18      	ldr	r5, [pc, #96]	; (8002954 <HAL_RCCEx_PeriphCLKConfig+0xfc>)
 80028f2:	f042 5280 	orr.w	r2, r2, #268435456	; 0x10000000
 80028f6:	61da      	str	r2, [r3, #28]
 80028f8:	69db      	ldr	r3, [r3, #28]
 80028fa:	2601      	movs	r6, #1
 80028fc:	f003 5380 	and.w	r3, r3, #268435456	; 0x10000000
 8002900:	9301      	str	r3, [sp, #4]
 8002902:	9b01      	ldr	r3, [sp, #4]
 8002904:	682b      	ldr	r3, [r5, #0]
 8002906:	05df      	lsls	r7, r3, #23
 8002908:	d4b6      	bmi.n	8002878 <HAL_RCCEx_PeriphCLKConfig+0x20>
 800290a:	682b      	ldr	r3, [r5, #0]
 800290c:	f443 7380 	orr.w	r3, r3, #256	; 0x100
 8002910:	602b      	str	r3, [r5, #0]
 8002912:	f7fe f893 	bl	8000a3c <HAL_GetTick>
 8002916:	4607      	mov	r7, r0
 8002918:	682b      	ldr	r3, [r5, #0]
 800291a:	05d8      	lsls	r0, r3, #23
 800291c:	d4ac      	bmi.n	8002878 <HAL_RCCEx_PeriphCLKConfig+0x20>
 800291e:	f7fe f88d 	bl	8000a3c <HAL_GetTick>
 8002922:	1bc3      	subs	r3, r0, r7
 8002924:	2b64      	cmp	r3, #100	; 0x64
 8002926:	d9f7      	bls.n	8002918 <HAL_RCCEx_PeriphCLKConfig+0xc0>
 8002928:	2003      	movs	r0, #3
 800292a:	b002      	add	sp, #8
 800292c:	e8bd 81f0 	ldmia.w	sp!, {r4, r5, r6, r7, r8, pc}
 8002930:	f7fe f884 	bl	8000a3c <HAL_GetTick>
 8002934:	f241 3888 	movw	r8, #5000	; 0x1388
 8002938:	4607      	mov	r7, r0
 800293a:	e004      	b.n	8002946 <HAL_RCCEx_PeriphCLKConfig+0xee>
 800293c:	f7fe f87e 	bl	8000a3c <HAL_GetTick>
 8002940:	1bc0      	subs	r0, r0, r7
 8002942:	4540      	cmp	r0, r8
 8002944:	d8f0      	bhi.n	8002928 <HAL_RCCEx_PeriphCLKConfig+0xd0>
 8002946:	6a2b      	ldr	r3, [r5, #32]
 8002948:	079a      	lsls	r2, r3, #30
 800294a:	d5f7      	bpl.n	800293c <HAL_RCCEx_PeriphCLKConfig+0xe4>
 800294c:	e7ab      	b.n	80028a6 <HAL_RCCEx_PeriphCLKConfig+0x4e>
 800294e:	bf00      	nop
 8002950:	40021000 	.word	0x40021000
 8002954:	40007000 	.word	0x40007000
 8002958:	42420000 	.word	0x42420000

0800295c <HAL_UART_Init>:
 800295c:	2800      	cmp	r0, #0
 800295e:	d064      	beq.n	8002a2a <HAL_UART_Init+0xce>
 8002960:	b5f8      	push	{r3, r4, r5, r6, r7, lr}
 8002962:	f890 3039 	ldrb.w	r3, [r0, #57]	; 0x39
 8002966:	4604      	mov	r4, r0
 8002968:	f003 02ff 	and.w	r2, r3, #255	; 0xff
 800296c:	2b00      	cmp	r3, #0
 800296e:	d054      	beq.n	8002a1a <HAL_UART_Init+0xbe>
 8002970:	e9d4 2702 	ldrd	r2, r7, [r4, #8]
 8002974:	2124      	movs	r1, #36	; 0x24
 8002976:	6920      	ldr	r0, [r4, #16]
 8002978:	6823      	ldr	r3, [r4, #0]
 800297a:	4302      	orrs	r2, r0
 800297c:	6960      	ldr	r0, [r4, #20]
 800297e:	f884 1039 	strb.w	r1, [r4, #57]	; 0x39
 8002982:	4302      	orrs	r2, r0
 8002984:	68d8      	ldr	r0, [r3, #12]
 8002986:	69a6      	ldr	r6, [r4, #24]
 8002988:	f420 5000 	bic.w	r0, r0, #8192	; 0x2000
 800298c:	60d8      	str	r0, [r3, #12]
 800298e:	6919      	ldr	r1, [r3, #16]
 8002990:	4d27      	ldr	r5, [pc, #156]	; (8002a30 <HAL_UART_Init+0xd4>)
 8002992:	f421 5140 	bic.w	r1, r1, #12288	; 0x3000
 8002996:	4339      	orrs	r1, r7
 8002998:	6119      	str	r1, [r3, #16]
 800299a:	68d9      	ldr	r1, [r3, #12]
 800299c:	42ab      	cmp	r3, r5
 800299e:	f421 51b0 	bic.w	r1, r1, #5632	; 0x1600
 80029a2:	f021 010c 	bic.w	r1, r1, #12
 80029a6:	ea42 0201 	orr.w	r2, r2, r1
 80029aa:	60da      	str	r2, [r3, #12]
 80029ac:	695a      	ldr	r2, [r3, #20]
 80029ae:	f422 7240 	bic.w	r2, r2, #768	; 0x300
 80029b2:	ea42 0206 	orr.w	r2, r2, r6
 80029b6:	615a      	str	r2, [r3, #20]
 80029b8:	d034      	beq.n	8002a24 <HAL_UART_Init+0xc8>
 80029ba:	f7ff ff2d 	bl	8002818 <HAL_RCC_GetPCLK1Freq>
 80029be:	6862      	ldr	r2, [r4, #4]
 80029c0:	eb00 0380 	add.w	r3, r0, r0, lsl #2
 80029c4:	0092      	lsls	r2, r2, #2
 80029c6:	eb03 0383 	add.w	r3, r3, r3, lsl #2
 80029ca:	fbb3 f3f2 	udiv	r3, r3, r2
 80029ce:	2664      	movs	r6, #100	; 0x64
 80029d0:	2500      	movs	r5, #0
 80029d2:	f04f 0c20 	mov.w	ip, #32
 80029d6:	4817      	ldr	r0, [pc, #92]	; (8002a34 <HAL_UART_Init+0xd8>)
 80029d8:	6821      	ldr	r1, [r4, #0]
 80029da:	fba0 7203 	umull	r7, r2, r0, r3
 80029de:	0952      	lsrs	r2, r2, #5
 80029e0:	fb06 3312 	mls	r3, r6, r2, r3
 80029e4:	011b      	lsls	r3, r3, #4
 80029e6:	3332      	adds	r3, #50	; 0x32
 80029e8:	fba0 0303 	umull	r0, r3, r0, r3
 80029ec:	0112      	lsls	r2, r2, #4
 80029ee:	eb02 1353 	add.w	r3, r2, r3, lsr #5
 80029f2:	608b      	str	r3, [r1, #8]
 80029f4:	690b      	ldr	r3, [r1, #16]
 80029f6:	4628      	mov	r0, r5
 80029f8:	f423 4390 	bic.w	r3, r3, #18432	; 0x4800
 80029fc:	610b      	str	r3, [r1, #16]
 80029fe:	694b      	ldr	r3, [r1, #20]
 8002a00:	f023 032a 	bic.w	r3, r3, #42	; 0x2a
 8002a04:	614b      	str	r3, [r1, #20]
 8002a06:	68cb      	ldr	r3, [r1, #12]
 8002a08:	f443 5300 	orr.w	r3, r3, #8192	; 0x2000
 8002a0c:	60cb      	str	r3, [r1, #12]
 8002a0e:	63e5      	str	r5, [r4, #60]	; 0x3c
 8002a10:	f884 c039 	strb.w	ip, [r4, #57]	; 0x39
 8002a14:	f884 c03a 	strb.w	ip, [r4, #58]	; 0x3a
 8002a18:	bdf8      	pop	{r3, r4, r5, r6, r7, pc}
 8002a1a:	f880 2038 	strb.w	r2, [r0, #56]	; 0x38
 8002a1e:	f7fd fe19 	bl	8000654 <HAL_UART_MspInit>
 8002a22:	e7a5      	b.n	8002970 <HAL_UART_Init+0x14>
 8002a24:	f7ff ff08 	bl	8002838 <HAL_RCC_GetPCLK2Freq>
 8002a28:	e7c9      	b.n	80029be <HAL_UART_Init+0x62>
 8002a2a:	2001      	movs	r0, #1
 8002a2c:	4770      	bx	lr
 8002a2e:	bf00      	nop
 8002a30:	40013800 	.word	0x40013800
 8002a34:	51eb851f 	.word	0x51eb851f

08002a38 <HAL_UART_Transmit>:
 8002a38:	e92d 43f8 	stmdb	sp!, {r3, r4, r5, r6, r7, r8, r9, lr}
 8002a3c:	461d      	mov	r5, r3
 8002a3e:	f890 3039 	ldrb.w	r3, [r0, #57]	; 0x39
 8002a42:	2b20      	cmp	r3, #32
 8002a44:	d168      	bne.n	8002b18 <HAL_UART_Transmit+0xe0>
 8002a46:	4688      	mov	r8, r1
 8002a48:	2900      	cmp	r1, #0
 8002a4a:	d040      	beq.n	8002ace <HAL_UART_Transmit+0x96>
 8002a4c:	4617      	mov	r7, r2
 8002a4e:	2a00      	cmp	r2, #0
 8002a50:	d03d      	beq.n	8002ace <HAL_UART_Transmit+0x96>
 8002a52:	f890 3038 	ldrb.w	r3, [r0, #56]	; 0x38
 8002a56:	4604      	mov	r4, r0
 8002a58:	2b01      	cmp	r3, #1
 8002a5a:	d05d      	beq.n	8002b18 <HAL_UART_Transmit+0xe0>
 8002a5c:	2321      	movs	r3, #33	; 0x21
 8002a5e:	2201      	movs	r2, #1
 8002a60:	f04f 0900 	mov.w	r9, #0
 8002a64:	f880 2038 	strb.w	r2, [r0, #56]	; 0x38
 8002a68:	f8c0 903c 	str.w	r9, [r0, #60]	; 0x3c
 8002a6c:	f880 3039 	strb.w	r3, [r0, #57]	; 0x39
 8002a70:	f7fd ffe4 	bl	8000a3c <HAL_GetTick>
 8002a74:	68a3      	ldr	r3, [r4, #8]
 8002a76:	4606      	mov	r6, r0
 8002a78:	f5b3 5f80 	cmp.w	r3, #4096	; 0x1000
 8002a7c:	84a7      	strh	r7, [r4, #36]	; 0x24
 8002a7e:	84e7      	strh	r7, [r4, #38]	; 0x26
 8002a80:	d04d      	beq.n	8002b1e <HAL_UART_Transmit+0xe6>
 8002a82:	2300      	movs	r3, #0
 8002a84:	f884 3038 	strb.w	r3, [r4, #56]	; 0x38
 8002a88:	8ce3      	ldrh	r3, [r4, #38]	; 0x26
 8002a8a:	b29b      	uxth	r3, r3
 8002a8c:	2b00      	cmp	r3, #0
 8002a8e:	d058      	beq.n	8002b42 <HAL_UART_Transmit+0x10a>
 8002a90:	6823      	ldr	r3, [r4, #0]
 8002a92:	1c69      	adds	r1, r5, #1
 8002a94:	d11e      	bne.n	8002ad4 <HAL_UART_Transmit+0x9c>
 8002a96:	681a      	ldr	r2, [r3, #0]
 8002a98:	0612      	lsls	r2, r2, #24
 8002a9a:	d5fc      	bpl.n	8002a96 <HAL_UART_Transmit+0x5e>
 8002a9c:	f1b8 0f00 	cmp.w	r8, #0
 8002aa0:	d035      	beq.n	8002b0e <HAL_UART_Transmit+0xd6>
 8002aa2:	f818 2b01 	ldrb.w	r2, [r8], #1
 8002aa6:	605a      	str	r2, [r3, #4]
 8002aa8:	8ce2      	ldrh	r2, [r4, #38]	; 0x26
 8002aaa:	3a01      	subs	r2, #1
 8002aac:	b292      	uxth	r2, r2
 8002aae:	84e2      	strh	r2, [r4, #38]	; 0x26
 8002ab0:	8ce2      	ldrh	r2, [r4, #38]	; 0x26
 8002ab2:	b292      	uxth	r2, r2
 8002ab4:	2a00      	cmp	r2, #0
 8002ab6:	d1ec      	bne.n	8002a92 <HAL_UART_Transmit+0x5a>
 8002ab8:	1c68      	adds	r0, r5, #1
 8002aba:	d136      	bne.n	8002b2a <HAL_UART_Transmit+0xf2>
 8002abc:	681a      	ldr	r2, [r3, #0]
 8002abe:	0651      	lsls	r1, r2, #25
 8002ac0:	d5fc      	bpl.n	8002abc <HAL_UART_Transmit+0x84>
 8002ac2:	2320      	movs	r3, #32
 8002ac4:	f884 3039 	strb.w	r3, [r4, #57]	; 0x39
 8002ac8:	2000      	movs	r0, #0
 8002aca:	e8bd 83f8 	ldmia.w	sp!, {r3, r4, r5, r6, r7, r8, r9, pc}
 8002ace:	2001      	movs	r0, #1
 8002ad0:	e8bd 83f8 	ldmia.w	sp!, {r3, r4, r5, r6, r7, r8, r9, pc}
 8002ad4:	681a      	ldr	r2, [r3, #0]
 8002ad6:	0617      	lsls	r7, r2, #24
 8002ad8:	d4e0      	bmi.n	8002a9c <HAL_UART_Transmit+0x64>
 8002ada:	b12d      	cbz	r5, 8002ae8 <HAL_UART_Transmit+0xb0>
 8002adc:	f7fd ffae 	bl	8000a3c <HAL_GetTick>
 8002ae0:	1b80      	subs	r0, r0, r6
 8002ae2:	4285      	cmp	r5, r0
 8002ae4:	6823      	ldr	r3, [r4, #0]
 8002ae6:	d2d4      	bcs.n	8002a92 <HAL_UART_Transmit+0x5a>
 8002ae8:	2120      	movs	r1, #32
 8002aea:	2500      	movs	r5, #0
 8002aec:	68da      	ldr	r2, [r3, #12]
 8002aee:	2003      	movs	r0, #3
 8002af0:	f422 72d0 	bic.w	r2, r2, #416	; 0x1a0
 8002af4:	60da      	str	r2, [r3, #12]
 8002af6:	695a      	ldr	r2, [r3, #20]
 8002af8:	f022 0201 	bic.w	r2, r2, #1
 8002afc:	615a      	str	r2, [r3, #20]
 8002afe:	f884 1039 	strb.w	r1, [r4, #57]	; 0x39
 8002b02:	f884 5038 	strb.w	r5, [r4, #56]	; 0x38
 8002b06:	f884 103a 	strb.w	r1, [r4, #58]	; 0x3a
 8002b0a:	e8bd 83f8 	ldmia.w	sp!, {r3, r4, r5, r6, r7, r8, r9, pc}
 8002b0e:	f839 2b02 	ldrh.w	r2, [r9], #2
 8002b12:	f3c2 0208 	ubfx	r2, r2, #0, #9
 8002b16:	e7c6      	b.n	8002aa6 <HAL_UART_Transmit+0x6e>
 8002b18:	2002      	movs	r0, #2
 8002b1a:	e8bd 83f8 	ldmia.w	sp!, {r3, r4, r5, r6, r7, r8, r9, pc}
 8002b1e:	6923      	ldr	r3, [r4, #16]
 8002b20:	2b00      	cmp	r3, #0
 8002b22:	d1ae      	bne.n	8002a82 <HAL_UART_Transmit+0x4a>
 8002b24:	46c1      	mov	r9, r8
 8002b26:	4698      	mov	r8, r3
 8002b28:	e7ab      	b.n	8002a82 <HAL_UART_Transmit+0x4a>
 8002b2a:	681a      	ldr	r2, [r3, #0]
 8002b2c:	0652      	lsls	r2, r2, #25
 8002b2e:	d4c8      	bmi.n	8002ac2 <HAL_UART_Transmit+0x8a>
 8002b30:	2d00      	cmp	r5, #0
 8002b32:	d0d9      	beq.n	8002ae8 <HAL_UART_Transmit+0xb0>
 8002b34:	f7fd ff82 	bl	8000a3c <HAL_GetTick>
 8002b38:	1b83      	subs	r3, r0, r6
 8002b3a:	429d      	cmp	r5, r3
 8002b3c:	6823      	ldr	r3, [r4, #0]
 8002b3e:	d2bb      	bcs.n	8002ab8 <HAL_UART_Transmit+0x80>
 8002b40:	e7d2      	b.n	8002ae8 <HAL_UART_Transmit+0xb0>
 8002b42:	6823      	ldr	r3, [r4, #0]
 8002b44:	e7b8      	b.n	8002ab8 <HAL_UART_Transmit+0x80>
 8002b46:	bf00      	nop

08002b48 <HAL_UART_TxCpltCallback>:
 8002b48:	4770      	bx	lr
 8002b4a:	bf00      	nop

08002b4c <HAL_UART_RxCpltCallback>:
 8002b4c:	4770      	bx	lr
 8002b4e:	bf00      	nop

08002b50 <UART_Receive_IT.part.0.isra.0>:
 8002b50:	b508      	push	{r3, lr}
 8002b52:	6883      	ldr	r3, [r0, #8]
 8002b54:	f5b3 5f80 	cmp.w	r3, #4096	; 0x1000
 8002b58:	d029      	beq.n	8002bae <UART_Receive_IT.part.0.isra.0+0x5e>
 8002b5a:	6a82      	ldr	r2, [r0, #40]	; 0x28
 8002b5c:	b303      	cbz	r3, 8002ba0 <UART_Receive_IT.part.0.isra.0+0x50>
 8002b5e:	6803      	ldr	r3, [r0, #0]
 8002b60:	685b      	ldr	r3, [r3, #4]
 8002b62:	f003 037f 	and.w	r3, r3, #127	; 0x7f
 8002b66:	7013      	strb	r3, [r2, #0]
 8002b68:	6a83      	ldr	r3, [r0, #40]	; 0x28
 8002b6a:	3301      	adds	r3, #1
 8002b6c:	6283      	str	r3, [r0, #40]	; 0x28
 8002b6e:	8dc3      	ldrh	r3, [r0, #46]	; 0x2e
 8002b70:	3b01      	subs	r3, #1
 8002b72:	b29b      	uxth	r3, r3
 8002b74:	85c3      	strh	r3, [r0, #46]	; 0x2e
 8002b76:	b103      	cbz	r3, 8002b7a <UART_Receive_IT.part.0.isra.0+0x2a>
 8002b78:	bd08      	pop	{r3, pc}
 8002b7a:	2120      	movs	r1, #32
 8002b7c:	6803      	ldr	r3, [r0, #0]
 8002b7e:	68da      	ldr	r2, [r3, #12]
 8002b80:	f022 0220 	bic.w	r2, r2, #32
 8002b84:	60da      	str	r2, [r3, #12]
 8002b86:	68da      	ldr	r2, [r3, #12]
 8002b88:	f422 7280 	bic.w	r2, r2, #256	; 0x100
 8002b8c:	60da      	str	r2, [r3, #12]
 8002b8e:	695a      	ldr	r2, [r3, #20]
 8002b90:	f022 0201 	bic.w	r2, r2, #1
 8002b94:	615a      	str	r2, [r3, #20]
 8002b96:	f880 103a 	strb.w	r1, [r0, #58]	; 0x3a
 8002b9a:	f7ff ffd7 	bl	8002b4c <HAL_UART_RxCpltCallback>
 8002b9e:	bd08      	pop	{r3, pc}
 8002ba0:	6903      	ldr	r3, [r0, #16]
 8002ba2:	2b00      	cmp	r3, #0
 8002ba4:	d1db      	bne.n	8002b5e <UART_Receive_IT.part.0.isra.0+0xe>
 8002ba6:	6803      	ldr	r3, [r0, #0]
 8002ba8:	685b      	ldr	r3, [r3, #4]
 8002baa:	7013      	strb	r3, [r2, #0]
 8002bac:	e7dc      	b.n	8002b68 <UART_Receive_IT.part.0.isra.0+0x18>
 8002bae:	6903      	ldr	r3, [r0, #16]
 8002bb0:	b943      	cbnz	r3, 8002bc4 <UART_Receive_IT.part.0.isra.0+0x74>
 8002bb2:	6802      	ldr	r2, [r0, #0]
 8002bb4:	6a83      	ldr	r3, [r0, #40]	; 0x28
 8002bb6:	6852      	ldr	r2, [r2, #4]
 8002bb8:	f3c2 0208 	ubfx	r2, r2, #0, #9
 8002bbc:	f823 2b02 	strh.w	r2, [r3], #2
 8002bc0:	6283      	str	r3, [r0, #40]	; 0x28
 8002bc2:	e7d4      	b.n	8002b6e <UART_Receive_IT.part.0.isra.0+0x1e>
 8002bc4:	6803      	ldr	r3, [r0, #0]
 8002bc6:	6a82      	ldr	r2, [r0, #40]	; 0x28
 8002bc8:	685b      	ldr	r3, [r3, #4]
 8002bca:	7013      	strb	r3, [r2, #0]
 8002bcc:	e7cc      	b.n	8002b68 <UART_Receive_IT.part.0.isra.0+0x18>
 8002bce:	bf00      	nop

08002bd0 <HAL_UART_ErrorCallback>:
 8002bd0:	4770      	bx	lr
 8002bd2:	bf00      	nop

08002bd4 <HAL_UART_IRQHandler>:
 8002bd4:	6803      	ldr	r3, [r0, #0]
 8002bd6:	b570      	push	{r4, r5, r6, lr}
 8002bd8:	681a      	ldr	r2, [r3, #0]
 8002bda:	4604      	mov	r4, r0
 8002bdc:	0716      	lsls	r6, r2, #28
 8002bde:	68dd      	ldr	r5, [r3, #12]
 8002be0:	6959      	ldr	r1, [r3, #20]
 8002be2:	d10c      	bne.n	8002bfe <HAL_UART_IRQHandler+0x2a>
 8002be4:	0691      	lsls	r1, r2, #26
 8002be6:	d501      	bpl.n	8002bec <HAL_UART_IRQHandler+0x18>
 8002be8:	06ae      	lsls	r6, r5, #26
 8002bea:	d44e      	bmi.n	8002c8a <HAL_UART_IRQHandler+0xb6>
 8002bec:	0616      	lsls	r6, r2, #24
 8002bee:	d501      	bpl.n	8002bf4 <HAL_UART_IRQHandler+0x20>
 8002bf0:	0628      	lsls	r0, r5, #24
 8002bf2:	d452      	bmi.n	8002c9a <HAL_UART_IRQHandler+0xc6>
 8002bf4:	0651      	lsls	r1, r2, #25
 8002bf6:	d501      	bpl.n	8002bfc <HAL_UART_IRQHandler+0x28>
 8002bf8:	066a      	lsls	r2, r5, #25
 8002bfa:	d46a      	bmi.n	8002cd2 <HAL_UART_IRQHandler+0xfe>
 8002bfc:	bd70      	pop	{r4, r5, r6, pc}
 8002bfe:	f001 0101 	and.w	r1, r1, #1
 8002c02:	f405 7090 	and.w	r0, r5, #288	; 0x120
 8002c06:	4308      	orrs	r0, r1
 8002c08:	d0f0      	beq.n	8002bec <HAL_UART_IRQHandler+0x18>
 8002c0a:	07d0      	lsls	r0, r2, #31
 8002c0c:	d505      	bpl.n	8002c1a <HAL_UART_IRQHandler+0x46>
 8002c0e:	05ee      	lsls	r6, r5, #23
 8002c10:	d503      	bpl.n	8002c1a <HAL_UART_IRQHandler+0x46>
 8002c12:	6be0      	ldr	r0, [r4, #60]	; 0x3c
 8002c14:	f040 0001 	orr.w	r0, r0, #1
 8002c18:	63e0      	str	r0, [r4, #60]	; 0x3c
 8002c1a:	0750      	lsls	r0, r2, #29
 8002c1c:	d530      	bpl.n	8002c80 <HAL_UART_IRQHandler+0xac>
 8002c1e:	b149      	cbz	r1, 8002c34 <HAL_UART_IRQHandler+0x60>
 8002c20:	6be0      	ldr	r0, [r4, #60]	; 0x3c
 8002c22:	0796      	lsls	r6, r2, #30
 8002c24:	f040 0002 	orr.w	r0, r0, #2
 8002c28:	63e0      	str	r0, [r4, #60]	; 0x3c
 8002c2a:	d503      	bpl.n	8002c34 <HAL_UART_IRQHandler+0x60>
 8002c2c:	6be0      	ldr	r0, [r4, #60]	; 0x3c
 8002c2e:	f040 0004 	orr.w	r0, r0, #4
 8002c32:	63e0      	str	r0, [r4, #60]	; 0x3c
 8002c34:	0716      	lsls	r6, r2, #28
 8002c36:	d507      	bpl.n	8002c48 <HAL_UART_IRQHandler+0x74>
 8002c38:	f005 0020 	and.w	r0, r5, #32
 8002c3c:	4301      	orrs	r1, r0
 8002c3e:	d003      	beq.n	8002c48 <HAL_UART_IRQHandler+0x74>
 8002c40:	6be1      	ldr	r1, [r4, #60]	; 0x3c
 8002c42:	f041 0108 	orr.w	r1, r1, #8
 8002c46:	63e1      	str	r1, [r4, #60]	; 0x3c
 8002c48:	6be1      	ldr	r1, [r4, #60]	; 0x3c
 8002c4a:	2900      	cmp	r1, #0
 8002c4c:	d0d6      	beq.n	8002bfc <HAL_UART_IRQHandler+0x28>
 8002c4e:	0690      	lsls	r0, r2, #26
 8002c50:	d509      	bpl.n	8002c66 <HAL_UART_IRQHandler+0x92>
 8002c52:	06a9      	lsls	r1, r5, #26
 8002c54:	d507      	bpl.n	8002c66 <HAL_UART_IRQHandler+0x92>
 8002c56:	f894 203a 	ldrb.w	r2, [r4, #58]	; 0x3a
 8002c5a:	2a22      	cmp	r2, #34	; 0x22
 8002c5c:	d103      	bne.n	8002c66 <HAL_UART_IRQHandler+0x92>
 8002c5e:	4620      	mov	r0, r4
 8002c60:	f7ff ff76 	bl	8002b50 <UART_Receive_IT.part.0.isra.0>
 8002c64:	6823      	ldr	r3, [r4, #0]
 8002c66:	695a      	ldr	r2, [r3, #20]
 8002c68:	6be5      	ldr	r5, [r4, #60]	; 0x3c
 8002c6a:	f002 0240 	and.w	r2, r2, #64	; 0x40
 8002c6e:	f005 0508 	and.w	r5, r5, #8
 8002c72:	4315      	orrs	r5, r2
 8002c74:	d138      	bne.n	8002ce8 <HAL_UART_IRQHandler+0x114>
 8002c76:	4620      	mov	r0, r4
 8002c78:	f7ff ffaa 	bl	8002bd0 <HAL_UART_ErrorCallback>
 8002c7c:	63e5      	str	r5, [r4, #60]	; 0x3c
 8002c7e:	bd70      	pop	{r4, r5, r6, pc}
 8002c80:	0790      	lsls	r0, r2, #30
 8002c82:	d5d7      	bpl.n	8002c34 <HAL_UART_IRQHandler+0x60>
 8002c84:	2900      	cmp	r1, #0
 8002c86:	d1d1      	bne.n	8002c2c <HAL_UART_IRQHandler+0x58>
 8002c88:	e7d4      	b.n	8002c34 <HAL_UART_IRQHandler+0x60>
 8002c8a:	f890 303a 	ldrb.w	r3, [r0, #58]	; 0x3a
 8002c8e:	2b22      	cmp	r3, #34	; 0x22
 8002c90:	d1b4      	bne.n	8002bfc <HAL_UART_IRQHandler+0x28>
 8002c92:	e8bd 4070 	ldmia.w	sp!, {r4, r5, r6, lr}
 8002c96:	f7ff bf5b 	b.w	8002b50 <UART_Receive_IT.part.0.isra.0>
 8002c9a:	f894 2039 	ldrb.w	r2, [r4, #57]	; 0x39
 8002c9e:	2a21      	cmp	r2, #33	; 0x21
 8002ca0:	d1ac      	bne.n	8002bfc <HAL_UART_IRQHandler+0x28>
 8002ca2:	68a2      	ldr	r2, [r4, #8]
 8002ca4:	f5b2 5f80 	cmp.w	r2, #4096	; 0x1000
 8002ca8:	d042      	beq.n	8002d30 <HAL_UART_IRQHandler+0x15c>
 8002caa:	6a22      	ldr	r2, [r4, #32]
 8002cac:	1c51      	adds	r1, r2, #1
 8002cae:	6221      	str	r1, [r4, #32]
 8002cb0:	7812      	ldrb	r2, [r2, #0]
 8002cb2:	605a      	str	r2, [r3, #4]
 8002cb4:	8ce2      	ldrh	r2, [r4, #38]	; 0x26
 8002cb6:	3a01      	subs	r2, #1
 8002cb8:	b292      	uxth	r2, r2
 8002cba:	84e2      	strh	r2, [r4, #38]	; 0x26
 8002cbc:	2a00      	cmp	r2, #0
 8002cbe:	d19d      	bne.n	8002bfc <HAL_UART_IRQHandler+0x28>
 8002cc0:	68da      	ldr	r2, [r3, #12]
 8002cc2:	f022 0280 	bic.w	r2, r2, #128	; 0x80
 8002cc6:	60da      	str	r2, [r3, #12]
 8002cc8:	68da      	ldr	r2, [r3, #12]
 8002cca:	f042 0240 	orr.w	r2, r2, #64	; 0x40
 8002cce:	60da      	str	r2, [r3, #12]
 8002cd0:	bd70      	pop	{r4, r5, r6, pc}
 8002cd2:	2120      	movs	r1, #32
 8002cd4:	68da      	ldr	r2, [r3, #12]
 8002cd6:	4620      	mov	r0, r4
 8002cd8:	f022 0240 	bic.w	r2, r2, #64	; 0x40
 8002cdc:	60da      	str	r2, [r3, #12]
 8002cde:	f884 1039 	strb.w	r1, [r4, #57]	; 0x39
 8002ce2:	f7ff ff31 	bl	8002b48 <HAL_UART_TxCpltCallback>
 8002ce6:	bd70      	pop	{r4, r5, r6, pc}
 8002ce8:	2120      	movs	r1, #32
 8002cea:	68da      	ldr	r2, [r3, #12]
 8002cec:	f422 7290 	bic.w	r2, r2, #288	; 0x120
 8002cf0:	60da      	str	r2, [r3, #12]
 8002cf2:	695a      	ldr	r2, [r3, #20]
 8002cf4:	f022 0201 	bic.w	r2, r2, #1
 8002cf8:	615a      	str	r2, [r3, #20]
 8002cfa:	f884 103a 	strb.w	r1, [r4, #58]	; 0x3a
 8002cfe:	695a      	ldr	r2, [r3, #20]
 8002d00:	0652      	lsls	r2, r2, #25
 8002d02:	d511      	bpl.n	8002d28 <HAL_UART_IRQHandler+0x154>
 8002d04:	695a      	ldr	r2, [r3, #20]
 8002d06:	6b60      	ldr	r0, [r4, #52]	; 0x34
 8002d08:	f022 0240 	bic.w	r2, r2, #64	; 0x40
 8002d0c:	615a      	str	r2, [r3, #20]
 8002d0e:	b158      	cbz	r0, 8002d28 <HAL_UART_IRQHandler+0x154>
 8002d10:	4b0d      	ldr	r3, [pc, #52]	; (8002d48 <HAL_UART_IRQHandler+0x174>)
 8002d12:	6343      	str	r3, [r0, #52]	; 0x34
 8002d14:	f7fd ff2c 	bl	8000b70 <HAL_DMA_Abort_IT>
 8002d18:	2800      	cmp	r0, #0
 8002d1a:	f43f af6f 	beq.w	8002bfc <HAL_UART_IRQHandler+0x28>
 8002d1e:	6b60      	ldr	r0, [r4, #52]	; 0x34
 8002d20:	e8bd 4070 	ldmia.w	sp!, {r4, r5, r6, lr}
 8002d24:	6b43      	ldr	r3, [r0, #52]	; 0x34
 8002d26:	4718      	bx	r3
 8002d28:	4620      	mov	r0, r4
 8002d2a:	f7ff ff51 	bl	8002bd0 <HAL_UART_ErrorCallback>
 8002d2e:	bd70      	pop	{r4, r5, r6, pc}
 8002d30:	6922      	ldr	r2, [r4, #16]
 8002d32:	2a00      	cmp	r2, #0
 8002d34:	d1b9      	bne.n	8002caa <HAL_UART_IRQHandler+0xd6>
 8002d36:	6a22      	ldr	r2, [r4, #32]
 8002d38:	f832 1b02 	ldrh.w	r1, [r2], #2
 8002d3c:	f3c1 0108 	ubfx	r1, r1, #0, #9
 8002d40:	6059      	str	r1, [r3, #4]
 8002d42:	6222      	str	r2, [r4, #32]
 8002d44:	e7b6      	b.n	8002cb4 <HAL_UART_IRQHandler+0xe0>
 8002d46:	bf00      	nop
 8002d48:	08002d4d 	.word	0x08002d4d

08002d4c <UART_DMAAbortOnError>:
 8002d4c:	b508      	push	{r3, lr}
 8002d4e:	2300      	movs	r3, #0
 8002d50:	6a40      	ldr	r0, [r0, #36]	; 0x24
 8002d52:	85c3      	strh	r3, [r0, #46]	; 0x2e
 8002d54:	84c3      	strh	r3, [r0, #38]	; 0x26
 8002d56:	f7ff ff3b 	bl	8002bd0 <HAL_UART_ErrorCallback>
 8002d5a:	bd08      	pop	{r3, pc}

08002d5c <BootLoaderTask>:
 8002d5c:	b5f0      	push	{r4, r5, r6, r7, lr}
 8002d5e:	2405      	movs	r4, #5
 8002d60:	f5ad 7d07 	sub.w	sp, sp, #540	; 0x21c
 8002d64:	f44f 70fa 	mov.w	r0, #500	; 0x1f4
 8002d68:	f7fd fe6e 	bl	8000a48 <HAL_Delay>
 8002d6c:	4867      	ldr	r0, [pc, #412]	; (8002f0c <BootLoaderTask+0x1b0>)
 8002d6e:	f000 fa97 	bl	80032a0 <puts>
 8002d72:	ab03      	add	r3, sp, #12
 8002d74:	2220      	movs	r2, #32
 8002d76:	21a0      	movs	r1, #160	; 0xa0
 8002d78:	4865      	ldr	r0, [pc, #404]	; (8002f10 <BootLoaderTask+0x1b4>)
 8002d7a:	9400      	str	r4, [sp, #0]
 8002d7c:	f000 f9aa 	bl	80030d4 <MB85_HAL_ReadBytes>
 8002d80:	f89d 300c 	ldrb.w	r3, [sp, #12]
 8002d84:	2baa      	cmp	r3, #170	; 0xaa
 8002d86:	d103      	bne.n	8002d90 <BootLoaderTask+0x34>
 8002d88:	f89d 300d 	ldrb.w	r3, [sp, #13]
 8002d8c:	2b55      	cmp	r3, #85	; 0x55
 8002d8e:	d029      	beq.n	8002de4 <BootLoaderTask+0x88>
 8002d90:	200a      	movs	r0, #10
 8002d92:	f000 fa03 	bl	800319c <putchar>
 8002d96:	485f      	ldr	r0, [pc, #380]	; (8002f14 <BootLoaderTask+0x1b8>)
 8002d98:	f000 fa82 	bl	80032a0 <puts>
 8002d9c:	f44f 707a 	mov.w	r0, #1000	; 0x3e8
 8002da0:	f7fd fe52 	bl	8000a48 <HAL_Delay>
 8002da4:	4a5c      	ldr	r2, [pc, #368]	; (8002f18 <BootLoaderTask+0x1bc>)
 8002da6:	4b5d      	ldr	r3, [pc, #372]	; (8002f1c <BootLoaderTask+0x1c0>)
 8002da8:	6811      	ldr	r1, [r2, #0]
 8002daa:	400b      	ands	r3, r1
 8002dac:	f1b3 5f00 	cmp.w	r3, #536870912	; 0x20000000
 8002db0:	d00a      	beq.n	8002dc8 <BootLoaderTask+0x6c>
 8002db2:	6812      	ldr	r2, [r2, #0]
 8002db4:	4b5a      	ldr	r3, [pc, #360]	; (8002f20 <BootLoaderTask+0x1c4>)
 8002db6:	4013      	ands	r3, r2
 8002db8:	f1b3 5f00 	cmp.w	r3, #536870912	; 0x20000000
 8002dbc:	d004      	beq.n	8002dc8 <BootLoaderTask+0x6c>
 8002dbe:	f44f 707a 	mov.w	r0, #1000	; 0x3e8
 8002dc2:	f7fd fe41 	bl	8000a48 <HAL_Delay>
 8002dc6:	e7fa      	b.n	8002dbe <BootLoaderTask+0x62>
 8002dc8:	4856      	ldr	r0, [pc, #344]	; (8002f24 <BootLoaderTask+0x1c8>)
 8002dca:	f000 fa69 	bl	80032a0 <puts>
 8002dce:	4a52      	ldr	r2, [pc, #328]	; (8002f18 <BootLoaderTask+0x1bc>)
 8002dd0:	4855      	ldr	r0, [pc, #340]	; (8002f28 <BootLoaderTask+0x1cc>)
 8002dd2:	6853      	ldr	r3, [r2, #4]
 8002dd4:	4955      	ldr	r1, [pc, #340]	; (8002f2c <BootLoaderTask+0x1d0>)
 8002dd6:	6003      	str	r3, [r0, #0]
 8002dd8:	6812      	ldr	r2, [r2, #0]
 8002dda:	600b      	str	r3, [r1, #0]
 8002ddc:	f382 8808 	msr	MSP, r2
 8002de0:	4798      	blx	r3
 8002de2:	e7ec      	b.n	8002dbe <BootLoaderTask+0x62>
 8002de4:	4a52      	ldr	r2, [pc, #328]	; (8002f30 <BootLoaderTask+0x1d4>)
 8002de6:	4b4e      	ldr	r3, [pc, #312]	; (8002f20 <BootLoaderTask+0x1c4>)
 8002de8:	6812      	ldr	r2, [r2, #0]
 8002dea:	4013      	ands	r3, r2
 8002dec:	f1b3 5f00 	cmp.w	r3, #536870912	; 0x20000000
 8002df0:	d1ce      	bne.n	8002d90 <BootLoaderTask+0x34>
 8002df2:	4850      	ldr	r0, [pc, #320]	; (8002f34 <BootLoaderTask+0x1d8>)
 8002df4:	f000 fa54 	bl	80032a0 <puts>
 8002df8:	494f      	ldr	r1, [pc, #316]	; (8002f38 <BootLoaderTask+0x1dc>)
 8002dfa:	4847      	ldr	r0, [pc, #284]	; (8002f18 <BootLoaderTask+0x1bc>)
 8002dfc:	f000 f8ca 	bl	8002f94 <FLASH_If_EraseSectors>
 8002e00:	484e      	ldr	r0, [pc, #312]	; (8002f3c <BootLoaderTask+0x1e0>)
 8002e02:	f000 fa4d 	bl	80032a0 <puts>
 8002e06:	484e      	ldr	r0, [pc, #312]	; (8002f40 <BootLoaderTask+0x1e4>)
 8002e08:	f000 fa4a 	bl	80032a0 <puts>
 8002e0c:	f640 30b8 	movw	r0, #3000	; 0xbb8
 8002e10:	f7fd fe1a 	bl	8000a48 <HAL_Delay>
 8002e14:	f89d 300f 	ldrb.w	r3, [sp, #15]
 8002e18:	f89d 400e 	ldrb.w	r4, [sp, #14]
 8002e1c:	021b      	lsls	r3, r3, #8
 8002e1e:	ea43 4304 	orr.w	r3, r3, r4, lsl #16
 8002e22:	0a5c      	lsrs	r4, r3, #9
 8002e24:	2000      	movs	r0, #0
 8002e26:	f000 f901 	bl	800302c <FLASH_If_WriteProtectionConfig>
 8002e2a:	f504 2380 	add.w	r3, r4, #262144	; 0x40000
 8002e2e:	3321      	adds	r3, #33	; 0x21
 8002e30:	4d39      	ldr	r5, [pc, #228]	; (8002f18 <BootLoaderTask+0x1bc>)
 8002e32:	4f44      	ldr	r7, [pc, #272]	; (8002f44 <BootLoaderTask+0x1e8>)
 8002e34:	025e      	lsls	r6, r3, #9
 8002e36:	f44f 7200 	mov.w	r2, #512	; 0x200
 8002e3a:	f505 3100 	add.w	r1, r5, #131072	; 0x20000
 8002e3e:	a806      	add	r0, sp, #24
 8002e40:	f000 f996 	bl	8003170 <memcpy>
 8002e44:	f7fe f81c 	bl	8000e80 <HAL_FLASH_Unlock>
 8002e48:	2280      	movs	r2, #128	; 0x80
 8002e4a:	4628      	mov	r0, r5
 8002e4c:	a906      	add	r1, sp, #24
 8002e4e:	2406      	movs	r4, #6
 8002e50:	f000 f8bc 	bl	8002fcc <FLASH_If_Write>
 8002e54:	b178      	cbz	r0, 8002e76 <BootLoaderTask+0x11a>
 8002e56:	3c01      	subs	r4, #1
 8002e58:	d00d      	beq.n	8002e76 <BootLoaderTask+0x11a>
 8002e5a:	4638      	mov	r0, r7
 8002e5c:	f000 fa20 	bl	80032a0 <puts>
 8002e60:	f44f 707a 	mov.w	r0, #1000	; 0x3e8
 8002e64:	f7fd fdf0 	bl	8000a48 <HAL_Delay>
 8002e68:	2280      	movs	r2, #128	; 0x80
 8002e6a:	4628      	mov	r0, r5
 8002e6c:	a906      	add	r1, sp, #24
 8002e6e:	f000 f8ad 	bl	8002fcc <FLASH_If_Write>
 8002e72:	2800      	cmp	r0, #0
 8002e74:	d1ef      	bne.n	8002e56 <BootLoaderTask+0xfa>
 8002e76:	f7fe f817 	bl	8000ea8 <HAL_FLASH_Lock>
 8002e7a:	f505 7500 	add.w	r5, r5, #512	; 0x200
 8002e7e:	2023      	movs	r0, #35	; 0x23
 8002e80:	f000 f98c 	bl	800319c <putchar>
 8002e84:	42b5      	cmp	r5, r6
 8002e86:	d1d6      	bne.n	8002e36 <BootLoaderTask+0xda>
 8002e88:	2505      	movs	r5, #5
 8002e8a:	2400      	movs	r4, #0
 8002e8c:	482e      	ldr	r0, [pc, #184]	; (8002f48 <BootLoaderTask+0x1ec>)
 8002e8e:	f000 fa07 	bl	80032a0 <puts>
 8002e92:	482e      	ldr	r0, [pc, #184]	; (8002f4c <BootLoaderTask+0x1f0>)
 8002e94:	f000 fa04 	bl	80032a0 <puts>
 8002e98:	2220      	movs	r2, #32
 8002e9a:	21a0      	movs	r1, #160	; 0xa0
 8002e9c:	ab03      	add	r3, sp, #12
 8002e9e:	481c      	ldr	r0, [pc, #112]	; (8002f10 <BootLoaderTask+0x1b4>)
 8002ea0:	9500      	str	r5, [sp, #0]
 8002ea2:	e9cd 4403 	strd	r4, r4, [sp, #12]
 8002ea6:	f8ad 4014 	strh.w	r4, [sp, #20]
 8002eaa:	f000 f8e9 	bl	8003080 <MB85_HAL_WriteBytes>
 8002eae:	4828      	ldr	r0, [pc, #160]	; (8002f50 <BootLoaderTask+0x1f4>)
 8002eb0:	f000 f9f6 	bl	80032a0 <puts>
 8002eb4:	481e      	ldr	r0, [pc, #120]	; (8002f30 <BootLoaderTask+0x1d4>)
 8002eb6:	f000 f84f 	bl	8002f58 <FLASH_If_Erase>
 8002eba:	200a      	movs	r0, #10
 8002ebc:	f000 f96e 	bl	800319c <putchar>
 8002ec0:	4824      	ldr	r0, [pc, #144]	; (8002f54 <BootLoaderTask+0x1f8>)
 8002ec2:	f000 f9ed 	bl	80032a0 <puts>
 8002ec6:	f44f 707a 	mov.w	r0, #1000	; 0x3e8
 8002eca:	f7fd fdbd 	bl	8000a48 <HAL_Delay>
 8002ece:	4a12      	ldr	r2, [pc, #72]	; (8002f18 <BootLoaderTask+0x1bc>)
 8002ed0:	4b12      	ldr	r3, [pc, #72]	; (8002f1c <BootLoaderTask+0x1c0>)
 8002ed2:	6811      	ldr	r1, [r2, #0]
 8002ed4:	400b      	ands	r3, r1
 8002ed6:	f1b3 5f00 	cmp.w	r3, #536870912	; 0x20000000
 8002eda:	d006      	beq.n	8002eea <BootLoaderTask+0x18e>
 8002edc:	6812      	ldr	r2, [r2, #0]
 8002ede:	4b10      	ldr	r3, [pc, #64]	; (8002f20 <BootLoaderTask+0x1c4>)
 8002ee0:	4013      	ands	r3, r2
 8002ee2:	f1b3 5f00 	cmp.w	r3, #536870912	; 0x20000000
 8002ee6:	f47f af6a 	bne.w	8002dbe <BootLoaderTask+0x62>
 8002eea:	4d0b      	ldr	r5, [pc, #44]	; (8002f18 <BootLoaderTask+0x1bc>)
 8002eec:	480d      	ldr	r0, [pc, #52]	; (8002f24 <BootLoaderTask+0x1c8>)
 8002eee:	f000 f9d7 	bl	80032a0 <puts>
 8002ef2:	4c0e      	ldr	r4, [pc, #56]	; (8002f2c <BootLoaderTask+0x1d0>)
 8002ef4:	686b      	ldr	r3, [r5, #4]
 8002ef6:	4a0c      	ldr	r2, [pc, #48]	; (8002f28 <BootLoaderTask+0x1cc>)
 8002ef8:	6023      	str	r3, [r4, #0]
 8002efa:	6013      	str	r3, [r2, #0]
 8002efc:	f7fd fd4c 	bl	8000998 <HAL_DeInit>
 8002f00:	682b      	ldr	r3, [r5, #0]
 8002f02:	f383 8808 	msr	MSP, r3
 8002f06:	6823      	ldr	r3, [r4, #0]
 8002f08:	4798      	blx	r3
 8002f0a:	e758      	b.n	8002dbe <BootLoaderTask+0x62>
 8002f0c:	08003e34 	.word	0x08003e34
 8002f10:	2000008c 	.word	0x2000008c
 8002f14:	08003eec 	.word	0x08003eec
 8002f18:	08004000 	.word	0x08004000
 8002f1c:	2ffe0000 	.word	0x2ffe0000
 8002f20:	2ff00000 	.word	0x2ff00000
 8002f24:	08003ee0 	.word	0x08003ee0
 8002f28:	2000020c 	.word	0x2000020c
 8002f2c:	20000208 	.word	0x20000208
 8002f30:	08024000 	.word	0x08024000
 8002f34:	08003e40 	.word	0x08003e40
 8002f38:	08020000 	.word	0x08020000
 8002f3c:	08003e54 	.word	0x08003e54
 8002f40:	08003e70 	.word	0x08003e70
 8002f44:	08003e7c 	.word	0x08003e7c
 8002f48:	08003e88 	.word	0x08003e88
 8002f4c:	08003e9c 	.word	0x08003e9c
 8002f50:	08003eb4 	.word	0x08003eb4
 8002f54:	08003ed0 	.word	0x08003ed0

08002f58 <FLASH_If_Erase>:
 8002f58:	b5d0      	push	{r4, r6, r7, lr}
 8002f5a:	2300      	movs	r3, #0
 8002f5c:	4604      	mov	r4, r0
 8002f5e:	2600      	movs	r6, #0
 8002f60:	2701      	movs	r7, #1
 8002f62:	b086      	sub	sp, #24
 8002f64:	9301      	str	r3, [sp, #4]
 8002f66:	f7fd ff8b 	bl	8000e80 <HAL_FLASH_Unlock>
 8002f6a:	f1c4 6300 	rsb	r3, r4, #134217728	; 0x8000000
 8002f6e:	f503 2380 	add.w	r3, r3, #262144	; 0x40000
 8002f72:	0adb      	lsrs	r3, r3, #11
 8002f74:	a901      	add	r1, sp, #4
 8002f76:	a802      	add	r0, sp, #8
 8002f78:	9305      	str	r3, [sp, #20]
 8002f7a:	9404      	str	r4, [sp, #16]
 8002f7c:	e9cd 6702 	strd	r6, r7, [sp, #8]
 8002f80:	f7fe f804 	bl	8000f8c <HAL_FLASHEx_Erase>
 8002f84:	4604      	mov	r4, r0
 8002f86:	f7fd ff8f 	bl	8000ea8 <HAL_FLASH_Lock>
 8002f8a:	1e20      	subs	r0, r4, #0
 8002f8c:	bf18      	it	ne
 8002f8e:	2001      	movne	r0, #1
 8002f90:	b006      	add	sp, #24
 8002f92:	bdd0      	pop	{r4, r6, r7, pc}

08002f94 <FLASH_If_EraseSectors>:
 8002f94:	2300      	movs	r3, #0
 8002f96:	b530      	push	{r4, r5, lr}
 8002f98:	4605      	mov	r5, r0
 8002f9a:	460c      	mov	r4, r1
 8002f9c:	b087      	sub	sp, #28
 8002f9e:	9301      	str	r3, [sp, #4]
 8002fa0:	f7fd ff6e 	bl	8000e80 <HAL_FLASH_Unlock>
 8002fa4:	2200      	movs	r2, #0
 8002fa6:	2301      	movs	r3, #1
 8002fa8:	1b64      	subs	r4, r4, r5
 8002faa:	a901      	add	r1, sp, #4
 8002fac:	a802      	add	r0, sp, #8
 8002fae:	0ae4      	lsrs	r4, r4, #11
 8002fb0:	e9cd 2302 	strd	r2, r3, [sp, #8]
 8002fb4:	9405      	str	r4, [sp, #20]
 8002fb6:	9504      	str	r5, [sp, #16]
 8002fb8:	f7fd ffe8 	bl	8000f8c <HAL_FLASHEx_Erase>
 8002fbc:	4604      	mov	r4, r0
 8002fbe:	f7fd ff73 	bl	8000ea8 <HAL_FLASH_Lock>
 8002fc2:	1e20      	subs	r0, r4, #0
 8002fc4:	bf18      	it	ne
 8002fc6:	2001      	movne	r0, #1
 8002fc8:	b007      	add	sp, #28
 8002fca:	bd30      	pop	{r4, r5, pc}

08002fcc <FLASH_If_Write>:
 8002fcc:	e92d 41f0 	stmdb	sp!, {r4, r5, r6, r7, r8, lr}
 8002fd0:	4617      	mov	r7, r2
 8002fd2:	4604      	mov	r4, r0
 8002fd4:	460d      	mov	r5, r1
 8002fd6:	f7fd ff53 	bl	8000e80 <HAL_FLASH_Unlock>
 8002fda:	b1e7      	cbz	r7, 8003016 <FLASH_If_Write+0x4a>
 8002fdc:	f8df 8048 	ldr.w	r8, [pc, #72]	; 8003028 <FLASH_If_Write+0x5c>
 8002fe0:	4544      	cmp	r4, r8
 8002fe2:	d818      	bhi.n	8003016 <FLASH_If_Write+0x4a>
 8002fe4:	2600      	movs	r6, #0
 8002fe6:	3d04      	subs	r5, #4
 8002fe8:	e008      	b.n	8002ffc <FLASH_If_Write+0x30>
 8002fea:	6822      	ldr	r2, [r4, #0]
 8002fec:	682b      	ldr	r3, [r5, #0]
 8002fee:	3404      	adds	r4, #4
 8002ff0:	429a      	cmp	r2, r3
 8002ff2:	d115      	bne.n	8003020 <FLASH_If_Write+0x54>
 8002ff4:	42b7      	cmp	r7, r6
 8002ff6:	d00e      	beq.n	8003016 <FLASH_If_Write+0x4a>
 8002ff8:	4544      	cmp	r4, r8
 8002ffa:	d80c      	bhi.n	8003016 <FLASH_If_Write+0x4a>
 8002ffc:	4621      	mov	r1, r4
 8002ffe:	2300      	movs	r3, #0
 8003000:	2002      	movs	r0, #2
 8003002:	f855 2f04 	ldr.w	r2, [r5, #4]!
 8003006:	f7fd fe51 	bl	8000cac <HAL_FLASH_Program>
 800300a:	3601      	adds	r6, #1
 800300c:	2800      	cmp	r0, #0
 800300e:	d0ec      	beq.n	8002fea <FLASH_If_Write+0x1e>
 8003010:	2003      	movs	r0, #3
 8003012:	e8bd 81f0 	ldmia.w	sp!, {r4, r5, r6, r7, r8, pc}
 8003016:	f7fd ff47 	bl	8000ea8 <HAL_FLASH_Lock>
 800301a:	2000      	movs	r0, #0
 800301c:	e8bd 81f0 	ldmia.w	sp!, {r4, r5, r6, r7, r8, pc}
 8003020:	2002      	movs	r0, #2
 8003022:	e8bd 81f0 	ldmia.w	sp!, {r4, r5, r6, r7, r8, pc}
 8003026:	bf00      	nop
 8003028:	0803fffc 	.word	0x0803fffc

0800302c <FLASH_If_WriteProtectionConfig>:
 800302c:	b530      	push	{r4, r5, lr}
 800302e:	4604      	mov	r4, r0
 8003030:	b08f      	sub	sp, #60	; 0x3c
 8003032:	fab4 f484 	clz	r4, r4
 8003036:	a807      	add	r0, sp, #28
 8003038:	f7fe f9be 	bl	80013b8 <HAL_FLASHEx_OBGetConfig>
 800303c:	2201      	movs	r2, #1
 800303e:	23a5      	movs	r3, #165	; 0xa5
 8003040:	f89d 102d 	ldrb.w	r1, [sp, #45]	; 0x2d
 8003044:	0964      	lsrs	r4, r4, #5
 8003046:	f88d 1011 	strb.w	r1, [sp, #17]
 800304a:	9200      	str	r2, [sp, #0]
 800304c:	f88d 3010 	strb.w	r3, [sp, #16]
 8003050:	9d09      	ldr	r5, [sp, #36]	; 0x24
 8003052:	9401      	str	r4, [sp, #4]
 8003054:	f7fd ff14 	bl	8000e80 <HAL_FLASH_Unlock>
 8003058:	f7fd ff30 	bl	8000ebc <HAL_FLASH_OB_Unlock>
 800305c:	f7fd fff8 	bl	8001050 <HAL_FLASHEx_OBErase>
 8003060:	b110      	cbz	r0, 8003068 <FLASH_If_WriteProtectionConfig+0x3c>
 8003062:	2004      	movs	r0, #4
 8003064:	b00f      	add	sp, #60	; 0x3c
 8003066:	bd30      	pop	{r4, r5, pc}
 8003068:	f445 257f 	orr.w	r5, r5, #1044480	; 0xff000
 800306c:	f445 657f 	orr.w	r5, r5, #4080	; 0xff0
 8003070:	4668      	mov	r0, sp
 8003072:	9502      	str	r5, [sp, #8]
 8003074:	f7fe f842 	bl	80010fc <HAL_FLASHEx_OBProgram>
 8003078:	2800      	cmp	r0, #0
 800307a:	d1f2      	bne.n	8003062 <FLASH_If_WriteProtectionConfig+0x36>
 800307c:	b00f      	add	sp, #60	; 0x3c
 800307e:	bd30      	pop	{r4, r5, pc}

08003080 <MB85_HAL_WriteBytes>:
 8003080:	e92d 47f0 	stmdb	sp!, {r4, r5, r6, r7, r8, r9, sl, lr}
 8003084:	2400      	movs	r4, #0
 8003086:	f04f 080a 	mov.w	r8, #10
 800308a:	4607      	mov	r7, r0
 800308c:	468a      	mov	sl, r1
 800308e:	4616      	mov	r6, r2
 8003090:	461d      	mov	r5, r3
 8003092:	b084      	sub	sp, #16
 8003094:	f8bd 9030 	ldrh.w	r9, [sp, #48]	; 0x30
 8003098:	2301      	movs	r3, #1
 800309a:	4632      	mov	r2, r6
 800309c:	4651      	mov	r1, sl
 800309e:	4638      	mov	r0, r7
 80030a0:	e9cd 9801 	strd	r9, r8, [sp, #4]
 80030a4:	9500      	str	r5, [sp, #0]
 80030a6:	f7fe fe07 	bl	8001cb8 <HAL_I2C_Mem_Write>
 80030aa:	b118      	cbz	r0, 80030b4 <MB85_HAL_WriteBytes+0x34>
 80030ac:	2c05      	cmp	r4, #5
 80030ae:	d00a      	beq.n	80030c6 <MB85_HAL_WriteBytes+0x46>
 80030b0:	3401      	adds	r4, #1
 80030b2:	e7f1      	b.n	8003098 <MB85_HAL_WriteBytes+0x18>
 80030b4:	201e      	movs	r0, #30
 80030b6:	f7fd fcc7 	bl	8000a48 <HAL_Delay>
 80030ba:	1f60      	subs	r0, r4, #5
 80030bc:	bf18      	it	ne
 80030be:	2001      	movne	r0, #1
 80030c0:	b004      	add	sp, #16
 80030c2:	e8bd 87f0 	ldmia.w	sp!, {r4, r5, r6, r7, r8, r9, sl, pc}
 80030c6:	201e      	movs	r0, #30
 80030c8:	f7fd fcbe 	bl	8000a48 <HAL_Delay>
 80030cc:	2000      	movs	r0, #0
 80030ce:	b004      	add	sp, #16
 80030d0:	e8bd 87f0 	ldmia.w	sp!, {r4, r5, r6, r7, r8, r9, sl, pc}

080030d4 <MB85_HAL_ReadBytes>:
 80030d4:	e92d 47f0 	stmdb	sp!, {r4, r5, r6, r7, r8, r9, sl, lr}
 80030d8:	2400      	movs	r4, #0
 80030da:	f04f 080a 	mov.w	r8, #10
 80030de:	4607      	mov	r7, r0
 80030e0:	468a      	mov	sl, r1
 80030e2:	4616      	mov	r6, r2
 80030e4:	461d      	mov	r5, r3
 80030e6:	b084      	sub	sp, #16
 80030e8:	f8bd 9030 	ldrh.w	r9, [sp, #48]	; 0x30
 80030ec:	2301      	movs	r3, #1
 80030ee:	4632      	mov	r2, r6
 80030f0:	4651      	mov	r1, sl
 80030f2:	4638      	mov	r0, r7
 80030f4:	e9cd 9801 	strd	r9, r8, [sp, #4]
 80030f8:	9500      	str	r5, [sp, #0]
 80030fa:	f7fe feff 	bl	8001efc <HAL_I2C_Mem_Read>
 80030fe:	b138      	cbz	r0, 8003110 <MB85_HAL_ReadBytes+0x3c>
 8003100:	2c05      	cmp	r4, #5
 8003102:	d001      	beq.n	8003108 <MB85_HAL_ReadBytes+0x34>
 8003104:	3401      	adds	r4, #1
 8003106:	e7f1      	b.n	80030ec <MB85_HAL_ReadBytes+0x18>
 8003108:	2000      	movs	r0, #0
 800310a:	b004      	add	sp, #16
 800310c:	e8bd 87f0 	ldmia.w	sp!, {r4, r5, r6, r7, r8, r9, sl, pc}
 8003110:	1f60      	subs	r0, r4, #5
 8003112:	bf18      	it	ne
 8003114:	2001      	movne	r0, #1
 8003116:	b004      	add	sp, #16
 8003118:	e8bd 87f0 	ldmia.w	sp!, {r4, r5, r6, r7, r8, r9, sl, pc}

0800311c <__errno>:
 800311c:	4b01      	ldr	r3, [pc, #4]	; (8003124 <__errno+0x8>)
 800311e:	6818      	ldr	r0, [r3, #0]
 8003120:	4770      	bx	lr
 8003122:	bf00      	nop
 8003124:	2000000c 	.word	0x2000000c

08003128 <__libc_init_array>:
 8003128:	b570      	push	{r4, r5, r6, lr}
 800312a:	2600      	movs	r6, #0
 800312c:	4d0c      	ldr	r5, [pc, #48]	; (8003160 <__libc_init_array+0x38>)
 800312e:	4c0d      	ldr	r4, [pc, #52]	; (8003164 <__libc_init_array+0x3c>)
 8003130:	1b64      	subs	r4, r4, r5
 8003132:	10a4      	asrs	r4, r4, #2
 8003134:	42a6      	cmp	r6, r4
 8003136:	d109      	bne.n	800314c <__libc_init_array+0x24>
 8003138:	f000 fe58 	bl	8003dec <_init>
 800313c:	2600      	movs	r6, #0
 800313e:	4d0a      	ldr	r5, [pc, #40]	; (8003168 <__libc_init_array+0x40>)
 8003140:	4c0a      	ldr	r4, [pc, #40]	; (800316c <__libc_init_array+0x44>)
 8003142:	1b64      	subs	r4, r4, r5
 8003144:	10a4      	asrs	r4, r4, #2
 8003146:	42a6      	cmp	r6, r4
 8003148:	d105      	bne.n	8003156 <__libc_init_array+0x2e>
 800314a:	bd70      	pop	{r4, r5, r6, pc}
 800314c:	f855 3b04 	ldr.w	r3, [r5], #4
 8003150:	4798      	blx	r3
 8003152:	3601      	adds	r6, #1
 8003154:	e7ee      	b.n	8003134 <__libc_init_array+0xc>
 8003156:	f855 3b04 	ldr.w	r3, [r5], #4
 800315a:	4798      	blx	r3
 800315c:	3601      	adds	r6, #1
 800315e:	e7f2      	b.n	8003146 <__libc_init_array+0x1e>
 8003160:	08003f60 	.word	0x08003f60
 8003164:	08003f60 	.word	0x08003f60
 8003168:	08003f60 	.word	0x08003f60
 800316c:	08003f64 	.word	0x08003f64

08003170 <memcpy>:
 8003170:	440a      	add	r2, r1
 8003172:	4291      	cmp	r1, r2
 8003174:	f100 33ff 	add.w	r3, r0, #4294967295
 8003178:	d100      	bne.n	800317c <memcpy+0xc>
 800317a:	4770      	bx	lr
 800317c:	b510      	push	{r4, lr}
 800317e:	f811 4b01 	ldrb.w	r4, [r1], #1
 8003182:	4291      	cmp	r1, r2
 8003184:	f803 4f01 	strb.w	r4, [r3, #1]!
 8003188:	d1f9      	bne.n	800317e <memcpy+0xe>
 800318a:	bd10      	pop	{r4, pc}

0800318c <memset>:
 800318c:	4603      	mov	r3, r0
 800318e:	4402      	add	r2, r0
 8003190:	4293      	cmp	r3, r2
 8003192:	d100      	bne.n	8003196 <memset+0xa>
 8003194:	4770      	bx	lr
 8003196:	f803 1b01 	strb.w	r1, [r3], #1
 800319a:	e7f9      	b.n	8003190 <memset+0x4>

0800319c <putchar>:
 800319c:	b538      	push	{r3, r4, r5, lr}
 800319e:	4b08      	ldr	r3, [pc, #32]	; (80031c0 <putchar+0x24>)
 80031a0:	4605      	mov	r5, r0
 80031a2:	681c      	ldr	r4, [r3, #0]
 80031a4:	b124      	cbz	r4, 80031b0 <putchar+0x14>
 80031a6:	69a3      	ldr	r3, [r4, #24]
 80031a8:	b913      	cbnz	r3, 80031b0 <putchar+0x14>
 80031aa:	4620      	mov	r0, r4
 80031ac:	f000 fb8a 	bl	80038c4 <__sinit>
 80031b0:	4629      	mov	r1, r5
 80031b2:	4620      	mov	r0, r4
 80031b4:	68a2      	ldr	r2, [r4, #8]
 80031b6:	e8bd 4038 	ldmia.w	sp!, {r3, r4, r5, lr}
 80031ba:	f000 bd7f 	b.w	8003cbc <_putc_r>
 80031be:	bf00      	nop
 80031c0:	2000000c 	.word	0x2000000c

080031c4 <_puts_r>:
 80031c4:	b570      	push	{r4, r5, r6, lr}
 80031c6:	460e      	mov	r6, r1
 80031c8:	4605      	mov	r5, r0
 80031ca:	b118      	cbz	r0, 80031d4 <_puts_r+0x10>
 80031cc:	6983      	ldr	r3, [r0, #24]
 80031ce:	b90b      	cbnz	r3, 80031d4 <_puts_r+0x10>
 80031d0:	f000 fb78 	bl	80038c4 <__sinit>
 80031d4:	69ab      	ldr	r3, [r5, #24]
 80031d6:	68ac      	ldr	r4, [r5, #8]
 80031d8:	b913      	cbnz	r3, 80031e0 <_puts_r+0x1c>
 80031da:	4628      	mov	r0, r5
 80031dc:	f000 fb72 	bl	80038c4 <__sinit>
 80031e0:	4b2c      	ldr	r3, [pc, #176]	; (8003294 <_puts_r+0xd0>)
 80031e2:	429c      	cmp	r4, r3
 80031e4:	d120      	bne.n	8003228 <_puts_r+0x64>
 80031e6:	686c      	ldr	r4, [r5, #4]
 80031e8:	6e63      	ldr	r3, [r4, #100]	; 0x64
 80031ea:	07db      	lsls	r3, r3, #31
 80031ec:	d405      	bmi.n	80031fa <_puts_r+0x36>
 80031ee:	89a3      	ldrh	r3, [r4, #12]
 80031f0:	0598      	lsls	r0, r3, #22
 80031f2:	d402      	bmi.n	80031fa <_puts_r+0x36>
 80031f4:	6da0      	ldr	r0, [r4, #88]	; 0x58
 80031f6:	f000 fc03 	bl	8003a00 <__retarget_lock_acquire_recursive>
 80031fa:	89a3      	ldrh	r3, [r4, #12]
 80031fc:	0719      	lsls	r1, r3, #28
 80031fe:	d51d      	bpl.n	800323c <_puts_r+0x78>
 8003200:	6923      	ldr	r3, [r4, #16]
 8003202:	b1db      	cbz	r3, 800323c <_puts_r+0x78>
 8003204:	3e01      	subs	r6, #1
 8003206:	68a3      	ldr	r3, [r4, #8]
 8003208:	f816 1f01 	ldrb.w	r1, [r6, #1]!
 800320c:	3b01      	subs	r3, #1
 800320e:	60a3      	str	r3, [r4, #8]
 8003210:	bb39      	cbnz	r1, 8003262 <_puts_r+0x9e>
 8003212:	2b00      	cmp	r3, #0
 8003214:	da38      	bge.n	8003288 <_puts_r+0xc4>
 8003216:	4622      	mov	r2, r4
 8003218:	210a      	movs	r1, #10
 800321a:	4628      	mov	r0, r5
 800321c:	f000 f95a 	bl	80034d4 <__swbuf_r>
 8003220:	3001      	adds	r0, #1
 8003222:	d011      	beq.n	8003248 <_puts_r+0x84>
 8003224:	250a      	movs	r5, #10
 8003226:	e011      	b.n	800324c <_puts_r+0x88>
 8003228:	4b1b      	ldr	r3, [pc, #108]	; (8003298 <_puts_r+0xd4>)
 800322a:	429c      	cmp	r4, r3
 800322c:	d101      	bne.n	8003232 <_puts_r+0x6e>
 800322e:	68ac      	ldr	r4, [r5, #8]
 8003230:	e7da      	b.n	80031e8 <_puts_r+0x24>
 8003232:	4b1a      	ldr	r3, [pc, #104]	; (800329c <_puts_r+0xd8>)
 8003234:	429c      	cmp	r4, r3
 8003236:	bf08      	it	eq
 8003238:	68ec      	ldreq	r4, [r5, #12]
 800323a:	e7d5      	b.n	80031e8 <_puts_r+0x24>
 800323c:	4621      	mov	r1, r4
 800323e:	4628      	mov	r0, r5
 8003240:	f000 f9ac 	bl	800359c <__swsetup_r>
 8003244:	2800      	cmp	r0, #0
 8003246:	d0dd      	beq.n	8003204 <_puts_r+0x40>
 8003248:	f04f 35ff 	mov.w	r5, #4294967295
 800324c:	6e63      	ldr	r3, [r4, #100]	; 0x64
 800324e:	07da      	lsls	r2, r3, #31
 8003250:	d405      	bmi.n	800325e <_puts_r+0x9a>
 8003252:	89a3      	ldrh	r3, [r4, #12]
 8003254:	059b      	lsls	r3, r3, #22
 8003256:	d402      	bmi.n	800325e <_puts_r+0x9a>
 8003258:	6da0      	ldr	r0, [r4, #88]	; 0x58
 800325a:	f000 fbd2 	bl	8003a02 <__retarget_lock_release_recursive>
 800325e:	4628      	mov	r0, r5
 8003260:	bd70      	pop	{r4, r5, r6, pc}
 8003262:	2b00      	cmp	r3, #0
 8003264:	da04      	bge.n	8003270 <_puts_r+0xac>
 8003266:	69a2      	ldr	r2, [r4, #24]
 8003268:	429a      	cmp	r2, r3
 800326a:	dc06      	bgt.n	800327a <_puts_r+0xb6>
 800326c:	290a      	cmp	r1, #10
 800326e:	d004      	beq.n	800327a <_puts_r+0xb6>
 8003270:	6823      	ldr	r3, [r4, #0]
 8003272:	1c5a      	adds	r2, r3, #1
 8003274:	6022      	str	r2, [r4, #0]
 8003276:	7019      	strb	r1, [r3, #0]
 8003278:	e7c5      	b.n	8003206 <_puts_r+0x42>
 800327a:	4622      	mov	r2, r4
 800327c:	4628      	mov	r0, r5
 800327e:	f000 f929 	bl	80034d4 <__swbuf_r>
 8003282:	3001      	adds	r0, #1
 8003284:	d1bf      	bne.n	8003206 <_puts_r+0x42>
 8003286:	e7df      	b.n	8003248 <_puts_r+0x84>
 8003288:	250a      	movs	r5, #10
 800328a:	6823      	ldr	r3, [r4, #0]
 800328c:	1c5a      	adds	r2, r3, #1
 800328e:	6022      	str	r2, [r4, #0]
 8003290:	701d      	strb	r5, [r3, #0]
 8003292:	e7db      	b.n	800324c <_puts_r+0x88>
 8003294:	08003f20 	.word	0x08003f20
 8003298:	08003f40 	.word	0x08003f40
 800329c:	08003f00 	.word	0x08003f00

080032a0 <puts>:
 80032a0:	4b02      	ldr	r3, [pc, #8]	; (80032ac <puts+0xc>)
 80032a2:	4601      	mov	r1, r0
 80032a4:	6818      	ldr	r0, [r3, #0]
 80032a6:	f7ff bf8d 	b.w	80031c4 <_puts_r>
 80032aa:	bf00      	nop
 80032ac:	2000000c 	.word	0x2000000c

080032b0 <setbuf>:
 80032b0:	2900      	cmp	r1, #0
 80032b2:	f44f 6380 	mov.w	r3, #1024	; 0x400
 80032b6:	bf0c      	ite	eq
 80032b8:	2202      	moveq	r2, #2
 80032ba:	2200      	movne	r2, #0
 80032bc:	f000 b800 	b.w	80032c0 <setvbuf>

080032c0 <setvbuf>:
 80032c0:	e92d 43f7 	stmdb	sp!, {r0, r1, r2, r4, r5, r6, r7, r8, r9, lr}
 80032c4:	461d      	mov	r5, r3
 80032c6:	4b5d      	ldr	r3, [pc, #372]	; (800343c <setvbuf+0x17c>)
 80032c8:	4604      	mov	r4, r0
 80032ca:	681f      	ldr	r7, [r3, #0]
 80032cc:	460e      	mov	r6, r1
 80032ce:	4690      	mov	r8, r2
 80032d0:	b127      	cbz	r7, 80032dc <setvbuf+0x1c>
 80032d2:	69bb      	ldr	r3, [r7, #24]
 80032d4:	b913      	cbnz	r3, 80032dc <setvbuf+0x1c>
 80032d6:	4638      	mov	r0, r7
 80032d8:	f000 faf4 	bl	80038c4 <__sinit>
 80032dc:	4b58      	ldr	r3, [pc, #352]	; (8003440 <setvbuf+0x180>)
 80032de:	429c      	cmp	r4, r3
 80032e0:	d167      	bne.n	80033b2 <setvbuf+0xf2>
 80032e2:	687c      	ldr	r4, [r7, #4]
 80032e4:	f1b8 0f02 	cmp.w	r8, #2
 80032e8:	d006      	beq.n	80032f8 <setvbuf+0x38>
 80032ea:	f1b8 0f01 	cmp.w	r8, #1
 80032ee:	f200 809f 	bhi.w	8003430 <setvbuf+0x170>
 80032f2:	2d00      	cmp	r5, #0
 80032f4:	f2c0 809c 	blt.w	8003430 <setvbuf+0x170>
 80032f8:	6e63      	ldr	r3, [r4, #100]	; 0x64
 80032fa:	07db      	lsls	r3, r3, #31
 80032fc:	d405      	bmi.n	800330a <setvbuf+0x4a>
 80032fe:	89a3      	ldrh	r3, [r4, #12]
 8003300:	0598      	lsls	r0, r3, #22
 8003302:	d402      	bmi.n	800330a <setvbuf+0x4a>
 8003304:	6da0      	ldr	r0, [r4, #88]	; 0x58
 8003306:	f000 fb7b 	bl	8003a00 <__retarget_lock_acquire_recursive>
 800330a:	4621      	mov	r1, r4
 800330c:	4638      	mov	r0, r7
 800330e:	f000 fa45 	bl	800379c <_fflush_r>
 8003312:	6b61      	ldr	r1, [r4, #52]	; 0x34
 8003314:	b141      	cbz	r1, 8003328 <setvbuf+0x68>
 8003316:	f104 0344 	add.w	r3, r4, #68	; 0x44
 800331a:	4299      	cmp	r1, r3
 800331c:	d002      	beq.n	8003324 <setvbuf+0x64>
 800331e:	4638      	mov	r0, r7
 8003320:	f000 fbf0 	bl	8003b04 <_free_r>
 8003324:	2300      	movs	r3, #0
 8003326:	6363      	str	r3, [r4, #52]	; 0x34
 8003328:	2300      	movs	r3, #0
 800332a:	61a3      	str	r3, [r4, #24]
 800332c:	6063      	str	r3, [r4, #4]
 800332e:	89a3      	ldrh	r3, [r4, #12]
 8003330:	0619      	lsls	r1, r3, #24
 8003332:	d503      	bpl.n	800333c <setvbuf+0x7c>
 8003334:	4638      	mov	r0, r7
 8003336:	6921      	ldr	r1, [r4, #16]
 8003338:	f000 fbe4 	bl	8003b04 <_free_r>
 800333c:	89a3      	ldrh	r3, [r4, #12]
 800333e:	f1b8 0f02 	cmp.w	r8, #2
 8003342:	f423 634a 	bic.w	r3, r3, #3232	; 0xca0
 8003346:	f023 0303 	bic.w	r3, r3, #3
 800334a:	81a3      	strh	r3, [r4, #12]
 800334c:	d06c      	beq.n	8003428 <setvbuf+0x168>
 800334e:	ab01      	add	r3, sp, #4
 8003350:	466a      	mov	r2, sp
 8003352:	4621      	mov	r1, r4
 8003354:	4638      	mov	r0, r7
 8003356:	f000 fb67 	bl	8003a28 <__swhatbuf_r>
 800335a:	89a3      	ldrh	r3, [r4, #12]
 800335c:	4318      	orrs	r0, r3
 800335e:	81a0      	strh	r0, [r4, #12]
 8003360:	2d00      	cmp	r5, #0
 8003362:	d130      	bne.n	80033c6 <setvbuf+0x106>
 8003364:	9d00      	ldr	r5, [sp, #0]
 8003366:	4628      	mov	r0, r5
 8003368:	f000 fbc4 	bl	8003af4 <malloc>
 800336c:	4606      	mov	r6, r0
 800336e:	2800      	cmp	r0, #0
 8003370:	d155      	bne.n	800341e <setvbuf+0x15e>
 8003372:	f8dd 9000 	ldr.w	r9, [sp]
 8003376:	45a9      	cmp	r9, r5
 8003378:	d14a      	bne.n	8003410 <setvbuf+0x150>
 800337a:	f04f 35ff 	mov.w	r5, #4294967295
 800337e:	2200      	movs	r2, #0
 8003380:	60a2      	str	r2, [r4, #8]
 8003382:	f104 0247 	add.w	r2, r4, #71	; 0x47
 8003386:	6022      	str	r2, [r4, #0]
 8003388:	6122      	str	r2, [r4, #16]
 800338a:	2201      	movs	r2, #1
 800338c:	f9b4 300c 	ldrsh.w	r3, [r4, #12]
 8003390:	6162      	str	r2, [r4, #20]
 8003392:	6e62      	ldr	r2, [r4, #100]	; 0x64
 8003394:	f043 0302 	orr.w	r3, r3, #2
 8003398:	07d2      	lsls	r2, r2, #31
 800339a:	81a3      	strh	r3, [r4, #12]
 800339c:	d405      	bmi.n	80033aa <setvbuf+0xea>
 800339e:	f413 7f00 	tst.w	r3, #512	; 0x200
 80033a2:	d102      	bne.n	80033aa <setvbuf+0xea>
 80033a4:	6da0      	ldr	r0, [r4, #88]	; 0x58
 80033a6:	f000 fb2c 	bl	8003a02 <__retarget_lock_release_recursive>
 80033aa:	4628      	mov	r0, r5
 80033ac:	b003      	add	sp, #12
 80033ae:	e8bd 83f0 	ldmia.w	sp!, {r4, r5, r6, r7, r8, r9, pc}
 80033b2:	4b24      	ldr	r3, [pc, #144]	; (8003444 <setvbuf+0x184>)
 80033b4:	429c      	cmp	r4, r3
 80033b6:	d101      	bne.n	80033bc <setvbuf+0xfc>
 80033b8:	68bc      	ldr	r4, [r7, #8]
 80033ba:	e793      	b.n	80032e4 <setvbuf+0x24>
 80033bc:	4b22      	ldr	r3, [pc, #136]	; (8003448 <setvbuf+0x188>)
 80033be:	429c      	cmp	r4, r3
 80033c0:	bf08      	it	eq
 80033c2:	68fc      	ldreq	r4, [r7, #12]
 80033c4:	e78e      	b.n	80032e4 <setvbuf+0x24>
 80033c6:	2e00      	cmp	r6, #0
 80033c8:	d0cd      	beq.n	8003366 <setvbuf+0xa6>
 80033ca:	69bb      	ldr	r3, [r7, #24]
 80033cc:	b913      	cbnz	r3, 80033d4 <setvbuf+0x114>
 80033ce:	4638      	mov	r0, r7
 80033d0:	f000 fa78 	bl	80038c4 <__sinit>
 80033d4:	f1b8 0f01 	cmp.w	r8, #1
 80033d8:	bf08      	it	eq
 80033da:	89a3      	ldrheq	r3, [r4, #12]
 80033dc:	e9c4 6504 	strd	r6, r5, [r4, #16]
 80033e0:	bf04      	itt	eq
 80033e2:	f043 0301 	orreq.w	r3, r3, #1
 80033e6:	81a3      	strheq	r3, [r4, #12]
 80033e8:	89a2      	ldrh	r2, [r4, #12]
 80033ea:	6026      	str	r6, [r4, #0]
 80033ec:	f012 0308 	ands.w	r3, r2, #8
 80033f0:	d01c      	beq.n	800342c <setvbuf+0x16c>
 80033f2:	07d3      	lsls	r3, r2, #31
 80033f4:	bf41      	itttt	mi
 80033f6:	2300      	movmi	r3, #0
 80033f8:	426d      	negmi	r5, r5
 80033fa:	60a3      	strmi	r3, [r4, #8]
 80033fc:	61a5      	strmi	r5, [r4, #24]
 80033fe:	bf58      	it	pl
 8003400:	60a5      	strpl	r5, [r4, #8]
 8003402:	6e65      	ldr	r5, [r4, #100]	; 0x64
 8003404:	f015 0501 	ands.w	r5, r5, #1
 8003408:	d115      	bne.n	8003436 <setvbuf+0x176>
 800340a:	f412 7f00 	tst.w	r2, #512	; 0x200
 800340e:	e7c8      	b.n	80033a2 <setvbuf+0xe2>
 8003410:	4648      	mov	r0, r9
 8003412:	f000 fb6f 	bl	8003af4 <malloc>
 8003416:	4606      	mov	r6, r0
 8003418:	2800      	cmp	r0, #0
 800341a:	d0ae      	beq.n	800337a <setvbuf+0xba>
 800341c:	464d      	mov	r5, r9
 800341e:	89a3      	ldrh	r3, [r4, #12]
 8003420:	f043 0380 	orr.w	r3, r3, #128	; 0x80
 8003424:	81a3      	strh	r3, [r4, #12]
 8003426:	e7d0      	b.n	80033ca <setvbuf+0x10a>
 8003428:	2500      	movs	r5, #0
 800342a:	e7a8      	b.n	800337e <setvbuf+0xbe>
 800342c:	60a3      	str	r3, [r4, #8]
 800342e:	e7e8      	b.n	8003402 <setvbuf+0x142>
 8003430:	f04f 35ff 	mov.w	r5, #4294967295
 8003434:	e7b9      	b.n	80033aa <setvbuf+0xea>
 8003436:	2500      	movs	r5, #0
 8003438:	e7b7      	b.n	80033aa <setvbuf+0xea>
 800343a:	bf00      	nop
 800343c:	2000000c 	.word	0x2000000c
 8003440:	08003f20 	.word	0x08003f20
 8003444:	08003f40 	.word	0x08003f40
 8003448:	08003f00 	.word	0x08003f00

0800344c <__sread>:
 800344c:	b510      	push	{r4, lr}
 800344e:	460c      	mov	r4, r1
 8003450:	f9b1 100e 	ldrsh.w	r1, [r1, #14]
 8003454:	f000 fc7a 	bl	8003d4c <_read_r>
 8003458:	2800      	cmp	r0, #0
 800345a:	bfab      	itete	ge
 800345c:	6d63      	ldrge	r3, [r4, #84]	; 0x54
 800345e:	89a3      	ldrhlt	r3, [r4, #12]
 8003460:	181b      	addge	r3, r3, r0
 8003462:	f423 5380 	biclt.w	r3, r3, #4096	; 0x1000
 8003466:	bfac      	ite	ge
 8003468:	6563      	strge	r3, [r4, #84]	; 0x54
 800346a:	81a3      	strhlt	r3, [r4, #12]
 800346c:	bd10      	pop	{r4, pc}

0800346e <__swrite>:
 800346e:	e92d 41f0 	stmdb	sp!, {r4, r5, r6, r7, r8, lr}
 8003472:	461f      	mov	r7, r3
 8003474:	898b      	ldrh	r3, [r1, #12]
 8003476:	4605      	mov	r5, r0
 8003478:	05db      	lsls	r3, r3, #23
 800347a:	460c      	mov	r4, r1
 800347c:	4616      	mov	r6, r2
 800347e:	d505      	bpl.n	800348c <__swrite+0x1e>
 8003480:	2302      	movs	r3, #2
 8003482:	2200      	movs	r2, #0
 8003484:	f9b1 100e 	ldrsh.w	r1, [r1, #14]
 8003488:	f000 fabc 	bl	8003a04 <_lseek_r>
 800348c:	89a3      	ldrh	r3, [r4, #12]
 800348e:	4632      	mov	r2, r6
 8003490:	f423 5380 	bic.w	r3, r3, #4096	; 0x1000
 8003494:	81a3      	strh	r3, [r4, #12]
 8003496:	4628      	mov	r0, r5
 8003498:	463b      	mov	r3, r7
 800349a:	f9b4 100e 	ldrsh.w	r1, [r4, #14]
 800349e:	e8bd 41f0 	ldmia.w	sp!, {r4, r5, r6, r7, r8, lr}
 80034a2:	f000 b869 	b.w	8003578 <_write_r>

080034a6 <__sseek>:
 80034a6:	b510      	push	{r4, lr}
 80034a8:	460c      	mov	r4, r1
 80034aa:	f9b1 100e 	ldrsh.w	r1, [r1, #14]
 80034ae:	f000 faa9 	bl	8003a04 <_lseek_r>
 80034b2:	1c43      	adds	r3, r0, #1
 80034b4:	89a3      	ldrh	r3, [r4, #12]
 80034b6:	bf15      	itete	ne
 80034b8:	6560      	strne	r0, [r4, #84]	; 0x54
 80034ba:	f423 5380 	biceq.w	r3, r3, #4096	; 0x1000
 80034be:	f443 5380 	orrne.w	r3, r3, #4096	; 0x1000
 80034c2:	81a3      	strheq	r3, [r4, #12]
 80034c4:	bf18      	it	ne
 80034c6:	81a3      	strhne	r3, [r4, #12]
 80034c8:	bd10      	pop	{r4, pc}

080034ca <__sclose>:
 80034ca:	f9b1 100e 	ldrsh.w	r1, [r1, #14]
 80034ce:	f000 b8d3 	b.w	8003678 <_close_r>
	...

080034d4 <__swbuf_r>:
 80034d4:	b5f8      	push	{r3, r4, r5, r6, r7, lr}
 80034d6:	460e      	mov	r6, r1
 80034d8:	4614      	mov	r4, r2
 80034da:	4605      	mov	r5, r0
 80034dc:	b118      	cbz	r0, 80034e6 <__swbuf_r+0x12>
 80034de:	6983      	ldr	r3, [r0, #24]
 80034e0:	b90b      	cbnz	r3, 80034e6 <__swbuf_r+0x12>
 80034e2:	f000 f9ef 	bl	80038c4 <__sinit>
 80034e6:	4b21      	ldr	r3, [pc, #132]	; (800356c <__swbuf_r+0x98>)
 80034e8:	429c      	cmp	r4, r3
 80034ea:	d12b      	bne.n	8003544 <__swbuf_r+0x70>
 80034ec:	686c      	ldr	r4, [r5, #4]
 80034ee:	69a3      	ldr	r3, [r4, #24]
 80034f0:	60a3      	str	r3, [r4, #8]
 80034f2:	89a3      	ldrh	r3, [r4, #12]
 80034f4:	071a      	lsls	r2, r3, #28
 80034f6:	d52f      	bpl.n	8003558 <__swbuf_r+0x84>
 80034f8:	6923      	ldr	r3, [r4, #16]
 80034fa:	b36b      	cbz	r3, 8003558 <__swbuf_r+0x84>
 80034fc:	6923      	ldr	r3, [r4, #16]
 80034fe:	6820      	ldr	r0, [r4, #0]
 8003500:	b2f6      	uxtb	r6, r6
 8003502:	1ac0      	subs	r0, r0, r3
 8003504:	6963      	ldr	r3, [r4, #20]
 8003506:	4637      	mov	r7, r6
 8003508:	4283      	cmp	r3, r0
 800350a:	dc04      	bgt.n	8003516 <__swbuf_r+0x42>
 800350c:	4621      	mov	r1, r4
 800350e:	4628      	mov	r0, r5
 8003510:	f000 f944 	bl	800379c <_fflush_r>
 8003514:	bb30      	cbnz	r0, 8003564 <__swbuf_r+0x90>
 8003516:	68a3      	ldr	r3, [r4, #8]
 8003518:	3001      	adds	r0, #1
 800351a:	3b01      	subs	r3, #1
 800351c:	60a3      	str	r3, [r4, #8]
 800351e:	6823      	ldr	r3, [r4, #0]
 8003520:	1c5a      	adds	r2, r3, #1
 8003522:	6022      	str	r2, [r4, #0]
 8003524:	701e      	strb	r6, [r3, #0]
 8003526:	6963      	ldr	r3, [r4, #20]
 8003528:	4283      	cmp	r3, r0
 800352a:	d004      	beq.n	8003536 <__swbuf_r+0x62>
 800352c:	89a3      	ldrh	r3, [r4, #12]
 800352e:	07db      	lsls	r3, r3, #31
 8003530:	d506      	bpl.n	8003540 <__swbuf_r+0x6c>
 8003532:	2e0a      	cmp	r6, #10
 8003534:	d104      	bne.n	8003540 <__swbuf_r+0x6c>
 8003536:	4621      	mov	r1, r4
 8003538:	4628      	mov	r0, r5
 800353a:	f000 f92f 	bl	800379c <_fflush_r>
 800353e:	b988      	cbnz	r0, 8003564 <__swbuf_r+0x90>
 8003540:	4638      	mov	r0, r7
 8003542:	bdf8      	pop	{r3, r4, r5, r6, r7, pc}
 8003544:	4b0a      	ldr	r3, [pc, #40]	; (8003570 <__swbuf_r+0x9c>)
 8003546:	429c      	cmp	r4, r3
 8003548:	d101      	bne.n	800354e <__swbuf_r+0x7a>
 800354a:	68ac      	ldr	r4, [r5, #8]
 800354c:	e7cf      	b.n	80034ee <__swbuf_r+0x1a>
 800354e:	4b09      	ldr	r3, [pc, #36]	; (8003574 <__swbuf_r+0xa0>)
 8003550:	429c      	cmp	r4, r3
 8003552:	bf08      	it	eq
 8003554:	68ec      	ldreq	r4, [r5, #12]
 8003556:	e7ca      	b.n	80034ee <__swbuf_r+0x1a>
 8003558:	4621      	mov	r1, r4
 800355a:	4628      	mov	r0, r5
 800355c:	f000 f81e 	bl	800359c <__swsetup_r>
 8003560:	2800      	cmp	r0, #0
 8003562:	d0cb      	beq.n	80034fc <__swbuf_r+0x28>
 8003564:	f04f 37ff 	mov.w	r7, #4294967295
 8003568:	e7ea      	b.n	8003540 <__swbuf_r+0x6c>
 800356a:	bf00      	nop
 800356c:	08003f20 	.word	0x08003f20
 8003570:	08003f40 	.word	0x08003f40
 8003574:	08003f00 	.word	0x08003f00

08003578 <_write_r>:
 8003578:	b538      	push	{r3, r4, r5, lr}
 800357a:	4604      	mov	r4, r0
 800357c:	4608      	mov	r0, r1
 800357e:	4611      	mov	r1, r2
 8003580:	2200      	movs	r2, #0
 8003582:	4d05      	ldr	r5, [pc, #20]	; (8003598 <_write_r+0x20>)
 8003584:	602a      	str	r2, [r5, #0]
 8003586:	461a      	mov	r2, r3
 8003588:	f7fd f99c 	bl	80008c4 <_write>
 800358c:	1c43      	adds	r3, r0, #1
 800358e:	d102      	bne.n	8003596 <_write_r+0x1e>
 8003590:	682b      	ldr	r3, [r5, #0]
 8003592:	b103      	cbz	r3, 8003596 <_write_r+0x1e>
 8003594:	6023      	str	r3, [r4, #0]
 8003596:	bd38      	pop	{r3, r4, r5, pc}
 8003598:	2000021c 	.word	0x2000021c

0800359c <__swsetup_r>:
 800359c:	4b32      	ldr	r3, [pc, #200]	; (8003668 <__swsetup_r+0xcc>)
 800359e:	b570      	push	{r4, r5, r6, lr}
 80035a0:	681d      	ldr	r5, [r3, #0]
 80035a2:	4606      	mov	r6, r0
 80035a4:	460c      	mov	r4, r1
 80035a6:	b125      	cbz	r5, 80035b2 <__swsetup_r+0x16>
 80035a8:	69ab      	ldr	r3, [r5, #24]
 80035aa:	b913      	cbnz	r3, 80035b2 <__swsetup_r+0x16>
 80035ac:	4628      	mov	r0, r5
 80035ae:	f000 f989 	bl	80038c4 <__sinit>
 80035b2:	4b2e      	ldr	r3, [pc, #184]	; (800366c <__swsetup_r+0xd0>)
 80035b4:	429c      	cmp	r4, r3
 80035b6:	d10f      	bne.n	80035d8 <__swsetup_r+0x3c>
 80035b8:	686c      	ldr	r4, [r5, #4]
 80035ba:	89a3      	ldrh	r3, [r4, #12]
 80035bc:	f9b4 200c 	ldrsh.w	r2, [r4, #12]
 80035c0:	0719      	lsls	r1, r3, #28
 80035c2:	d42c      	bmi.n	800361e <__swsetup_r+0x82>
 80035c4:	06dd      	lsls	r5, r3, #27
 80035c6:	d411      	bmi.n	80035ec <__swsetup_r+0x50>
 80035c8:	2309      	movs	r3, #9
 80035ca:	6033      	str	r3, [r6, #0]
 80035cc:	f042 0340 	orr.w	r3, r2, #64	; 0x40
 80035d0:	f04f 30ff 	mov.w	r0, #4294967295
 80035d4:	81a3      	strh	r3, [r4, #12]
 80035d6:	e03e      	b.n	8003656 <__swsetup_r+0xba>
 80035d8:	4b25      	ldr	r3, [pc, #148]	; (8003670 <__swsetup_r+0xd4>)
 80035da:	429c      	cmp	r4, r3
 80035dc:	d101      	bne.n	80035e2 <__swsetup_r+0x46>
 80035de:	68ac      	ldr	r4, [r5, #8]
 80035e0:	e7eb      	b.n	80035ba <__swsetup_r+0x1e>
 80035e2:	4b24      	ldr	r3, [pc, #144]	; (8003674 <__swsetup_r+0xd8>)
 80035e4:	429c      	cmp	r4, r3
 80035e6:	bf08      	it	eq
 80035e8:	68ec      	ldreq	r4, [r5, #12]
 80035ea:	e7e6      	b.n	80035ba <__swsetup_r+0x1e>
 80035ec:	0758      	lsls	r0, r3, #29
 80035ee:	d512      	bpl.n	8003616 <__swsetup_r+0x7a>
 80035f0:	6b61      	ldr	r1, [r4, #52]	; 0x34
 80035f2:	b141      	cbz	r1, 8003606 <__swsetup_r+0x6a>
 80035f4:	f104 0344 	add.w	r3, r4, #68	; 0x44
 80035f8:	4299      	cmp	r1, r3
 80035fa:	d002      	beq.n	8003602 <__swsetup_r+0x66>
 80035fc:	4630      	mov	r0, r6
 80035fe:	f000 fa81 	bl	8003b04 <_free_r>
 8003602:	2300      	movs	r3, #0
 8003604:	6363      	str	r3, [r4, #52]	; 0x34
 8003606:	89a3      	ldrh	r3, [r4, #12]
 8003608:	f023 0324 	bic.w	r3, r3, #36	; 0x24
 800360c:	81a3      	strh	r3, [r4, #12]
 800360e:	2300      	movs	r3, #0
 8003610:	6063      	str	r3, [r4, #4]
 8003612:	6923      	ldr	r3, [r4, #16]
 8003614:	6023      	str	r3, [r4, #0]
 8003616:	89a3      	ldrh	r3, [r4, #12]
 8003618:	f043 0308 	orr.w	r3, r3, #8
 800361c:	81a3      	strh	r3, [r4, #12]
 800361e:	6923      	ldr	r3, [r4, #16]
 8003620:	b94b      	cbnz	r3, 8003636 <__swsetup_r+0x9a>
 8003622:	89a3      	ldrh	r3, [r4, #12]
 8003624:	f403 7320 	and.w	r3, r3, #640	; 0x280
 8003628:	f5b3 7f00 	cmp.w	r3, #512	; 0x200
 800362c:	d003      	beq.n	8003636 <__swsetup_r+0x9a>
 800362e:	4621      	mov	r1, r4
 8003630:	4630      	mov	r0, r6
 8003632:	f000 fa1f 	bl	8003a74 <__smakebuf_r>
 8003636:	89a0      	ldrh	r0, [r4, #12]
 8003638:	f9b4 200c 	ldrsh.w	r2, [r4, #12]
 800363c:	f010 0301 	ands.w	r3, r0, #1
 8003640:	d00a      	beq.n	8003658 <__swsetup_r+0xbc>
 8003642:	2300      	movs	r3, #0
 8003644:	60a3      	str	r3, [r4, #8]
 8003646:	6963      	ldr	r3, [r4, #20]
 8003648:	425b      	negs	r3, r3
 800364a:	61a3      	str	r3, [r4, #24]
 800364c:	6923      	ldr	r3, [r4, #16]
 800364e:	b943      	cbnz	r3, 8003662 <__swsetup_r+0xc6>
 8003650:	f010 0080 	ands.w	r0, r0, #128	; 0x80
 8003654:	d1ba      	bne.n	80035cc <__swsetup_r+0x30>
 8003656:	bd70      	pop	{r4, r5, r6, pc}
 8003658:	0781      	lsls	r1, r0, #30
 800365a:	bf58      	it	pl
 800365c:	6963      	ldrpl	r3, [r4, #20]
 800365e:	60a3      	str	r3, [r4, #8]
 8003660:	e7f4      	b.n	800364c <__swsetup_r+0xb0>
 8003662:	2000      	movs	r0, #0
 8003664:	e7f7      	b.n	8003656 <__swsetup_r+0xba>
 8003666:	bf00      	nop
 8003668:	2000000c 	.word	0x2000000c
 800366c:	08003f20 	.word	0x08003f20
 8003670:	08003f40 	.word	0x08003f40
 8003674:	08003f00 	.word	0x08003f00

08003678 <_close_r>:
 8003678:	b538      	push	{r3, r4, r5, lr}
 800367a:	2300      	movs	r3, #0
 800367c:	4d05      	ldr	r5, [pc, #20]	; (8003694 <_close_r+0x1c>)
 800367e:	4604      	mov	r4, r0
 8003680:	4608      	mov	r0, r1
 8003682:	602b      	str	r3, [r5, #0]
 8003684:	f7fd f92c 	bl	80008e0 <_close>
 8003688:	1c43      	adds	r3, r0, #1
 800368a:	d102      	bne.n	8003692 <_close_r+0x1a>
 800368c:	682b      	ldr	r3, [r5, #0]
 800368e:	b103      	cbz	r3, 8003692 <_close_r+0x1a>
 8003690:	6023      	str	r3, [r4, #0]
 8003692:	bd38      	pop	{r3, r4, r5, pc}
 8003694:	2000021c 	.word	0x2000021c

08003698 <__sflush_r>:
 8003698:	898a      	ldrh	r2, [r1, #12]
 800369a:	b5f8      	push	{r3, r4, r5, r6, r7, lr}
 800369c:	4605      	mov	r5, r0
 800369e:	0710      	lsls	r0, r2, #28
 80036a0:	460c      	mov	r4, r1
 80036a2:	d457      	bmi.n	8003754 <__sflush_r+0xbc>
 80036a4:	684b      	ldr	r3, [r1, #4]
 80036a6:	2b00      	cmp	r3, #0
 80036a8:	dc04      	bgt.n	80036b4 <__sflush_r+0x1c>
 80036aa:	6c0b      	ldr	r3, [r1, #64]	; 0x40
 80036ac:	2b00      	cmp	r3, #0
 80036ae:	dc01      	bgt.n	80036b4 <__sflush_r+0x1c>
 80036b0:	2000      	movs	r0, #0
 80036b2:	bdf8      	pop	{r3, r4, r5, r6, r7, pc}
 80036b4:	6ae6      	ldr	r6, [r4, #44]	; 0x2c
 80036b6:	2e00      	cmp	r6, #0
 80036b8:	d0fa      	beq.n	80036b0 <__sflush_r+0x18>
 80036ba:	2300      	movs	r3, #0
 80036bc:	f412 5280 	ands.w	r2, r2, #4096	; 0x1000
 80036c0:	682f      	ldr	r7, [r5, #0]
 80036c2:	602b      	str	r3, [r5, #0]
 80036c4:	d032      	beq.n	800372c <__sflush_r+0x94>
 80036c6:	6d60      	ldr	r0, [r4, #84]	; 0x54
 80036c8:	89a3      	ldrh	r3, [r4, #12]
 80036ca:	075a      	lsls	r2, r3, #29
 80036cc:	d505      	bpl.n	80036da <__sflush_r+0x42>
 80036ce:	6863      	ldr	r3, [r4, #4]
 80036d0:	1ac0      	subs	r0, r0, r3
 80036d2:	6b63      	ldr	r3, [r4, #52]	; 0x34
 80036d4:	b10b      	cbz	r3, 80036da <__sflush_r+0x42>
 80036d6:	6c23      	ldr	r3, [r4, #64]	; 0x40
 80036d8:	1ac0      	subs	r0, r0, r3
 80036da:	2300      	movs	r3, #0
 80036dc:	4602      	mov	r2, r0
 80036de:	6ae6      	ldr	r6, [r4, #44]	; 0x2c
 80036e0:	4628      	mov	r0, r5
 80036e2:	6a21      	ldr	r1, [r4, #32]
 80036e4:	47b0      	blx	r6
 80036e6:	1c43      	adds	r3, r0, #1
 80036e8:	89a3      	ldrh	r3, [r4, #12]
 80036ea:	d106      	bne.n	80036fa <__sflush_r+0x62>
 80036ec:	6829      	ldr	r1, [r5, #0]
 80036ee:	291d      	cmp	r1, #29
 80036f0:	d82c      	bhi.n	800374c <__sflush_r+0xb4>
 80036f2:	4a29      	ldr	r2, [pc, #164]	; (8003798 <__sflush_r+0x100>)
 80036f4:	40ca      	lsrs	r2, r1
 80036f6:	07d6      	lsls	r6, r2, #31
 80036f8:	d528      	bpl.n	800374c <__sflush_r+0xb4>
 80036fa:	2200      	movs	r2, #0
 80036fc:	6062      	str	r2, [r4, #4]
 80036fe:	6922      	ldr	r2, [r4, #16]
 8003700:	04d9      	lsls	r1, r3, #19
 8003702:	6022      	str	r2, [r4, #0]
 8003704:	d504      	bpl.n	8003710 <__sflush_r+0x78>
 8003706:	1c42      	adds	r2, r0, #1
 8003708:	d101      	bne.n	800370e <__sflush_r+0x76>
 800370a:	682b      	ldr	r3, [r5, #0]
 800370c:	b903      	cbnz	r3, 8003710 <__sflush_r+0x78>
 800370e:	6560      	str	r0, [r4, #84]	; 0x54
 8003710:	6b61      	ldr	r1, [r4, #52]	; 0x34
 8003712:	602f      	str	r7, [r5, #0]
 8003714:	2900      	cmp	r1, #0
 8003716:	d0cb      	beq.n	80036b0 <__sflush_r+0x18>
 8003718:	f104 0344 	add.w	r3, r4, #68	; 0x44
 800371c:	4299      	cmp	r1, r3
 800371e:	d002      	beq.n	8003726 <__sflush_r+0x8e>
 8003720:	4628      	mov	r0, r5
 8003722:	f000 f9ef 	bl	8003b04 <_free_r>
 8003726:	2000      	movs	r0, #0
 8003728:	6360      	str	r0, [r4, #52]	; 0x34
 800372a:	e7c2      	b.n	80036b2 <__sflush_r+0x1a>
 800372c:	6a21      	ldr	r1, [r4, #32]
 800372e:	2301      	movs	r3, #1
 8003730:	4628      	mov	r0, r5
 8003732:	47b0      	blx	r6
 8003734:	1c41      	adds	r1, r0, #1
 8003736:	d1c7      	bne.n	80036c8 <__sflush_r+0x30>
 8003738:	682b      	ldr	r3, [r5, #0]
 800373a:	2b00      	cmp	r3, #0
 800373c:	d0c4      	beq.n	80036c8 <__sflush_r+0x30>
 800373e:	2b1d      	cmp	r3, #29
 8003740:	d001      	beq.n	8003746 <__sflush_r+0xae>
 8003742:	2b16      	cmp	r3, #22
 8003744:	d101      	bne.n	800374a <__sflush_r+0xb2>
 8003746:	602f      	str	r7, [r5, #0]
 8003748:	e7b2      	b.n	80036b0 <__sflush_r+0x18>
 800374a:	89a3      	ldrh	r3, [r4, #12]
 800374c:	f043 0340 	orr.w	r3, r3, #64	; 0x40
 8003750:	81a3      	strh	r3, [r4, #12]
 8003752:	e7ae      	b.n	80036b2 <__sflush_r+0x1a>
 8003754:	690f      	ldr	r7, [r1, #16]
 8003756:	2f00      	cmp	r7, #0
 8003758:	d0aa      	beq.n	80036b0 <__sflush_r+0x18>
 800375a:	0793      	lsls	r3, r2, #30
 800375c:	bf18      	it	ne
 800375e:	2300      	movne	r3, #0
 8003760:	680e      	ldr	r6, [r1, #0]
 8003762:	bf08      	it	eq
 8003764:	694b      	ldreq	r3, [r1, #20]
 8003766:	1bf6      	subs	r6, r6, r7
 8003768:	600f      	str	r7, [r1, #0]
 800376a:	608b      	str	r3, [r1, #8]
 800376c:	2e00      	cmp	r6, #0
 800376e:	dd9f      	ble.n	80036b0 <__sflush_r+0x18>
 8003770:	4633      	mov	r3, r6
 8003772:	463a      	mov	r2, r7
 8003774:	4628      	mov	r0, r5
 8003776:	6a21      	ldr	r1, [r4, #32]
 8003778:	f8d4 c028 	ldr.w	ip, [r4, #40]	; 0x28
 800377c:	47e0      	blx	ip
 800377e:	2800      	cmp	r0, #0
 8003780:	dc06      	bgt.n	8003790 <__sflush_r+0xf8>
 8003782:	89a3      	ldrh	r3, [r4, #12]
 8003784:	f04f 30ff 	mov.w	r0, #4294967295
 8003788:	f043 0340 	orr.w	r3, r3, #64	; 0x40
 800378c:	81a3      	strh	r3, [r4, #12]
 800378e:	e790      	b.n	80036b2 <__sflush_r+0x1a>
 8003790:	4407      	add	r7, r0
 8003792:	1a36      	subs	r6, r6, r0
 8003794:	e7ea      	b.n	800376c <__sflush_r+0xd4>
 8003796:	bf00      	nop
 8003798:	20400001 	.word	0x20400001

0800379c <_fflush_r>:
 800379c:	b538      	push	{r3, r4, r5, lr}
 800379e:	690b      	ldr	r3, [r1, #16]
 80037a0:	4605      	mov	r5, r0
 80037a2:	460c      	mov	r4, r1
 80037a4:	b913      	cbnz	r3, 80037ac <_fflush_r+0x10>
 80037a6:	2500      	movs	r5, #0
 80037a8:	4628      	mov	r0, r5
 80037aa:	bd38      	pop	{r3, r4, r5, pc}
 80037ac:	b118      	cbz	r0, 80037b6 <_fflush_r+0x1a>
 80037ae:	6983      	ldr	r3, [r0, #24]
 80037b0:	b90b      	cbnz	r3, 80037b6 <_fflush_r+0x1a>
 80037b2:	f000 f887 	bl	80038c4 <__sinit>
 80037b6:	4b14      	ldr	r3, [pc, #80]	; (8003808 <_fflush_r+0x6c>)
 80037b8:	429c      	cmp	r4, r3
 80037ba:	d11b      	bne.n	80037f4 <_fflush_r+0x58>
 80037bc:	686c      	ldr	r4, [r5, #4]
 80037be:	f9b4 300c 	ldrsh.w	r3, [r4, #12]
 80037c2:	2b00      	cmp	r3, #0
 80037c4:	d0ef      	beq.n	80037a6 <_fflush_r+0xa>
 80037c6:	6e62      	ldr	r2, [r4, #100]	; 0x64
 80037c8:	07d0      	lsls	r0, r2, #31
 80037ca:	d404      	bmi.n	80037d6 <_fflush_r+0x3a>
 80037cc:	0599      	lsls	r1, r3, #22
 80037ce:	d402      	bmi.n	80037d6 <_fflush_r+0x3a>
 80037d0:	6da0      	ldr	r0, [r4, #88]	; 0x58
 80037d2:	f000 f915 	bl	8003a00 <__retarget_lock_acquire_recursive>
 80037d6:	4628      	mov	r0, r5
 80037d8:	4621      	mov	r1, r4
 80037da:	f7ff ff5d 	bl	8003698 <__sflush_r>
 80037de:	6e63      	ldr	r3, [r4, #100]	; 0x64
 80037e0:	4605      	mov	r5, r0
 80037e2:	07da      	lsls	r2, r3, #31
 80037e4:	d4e0      	bmi.n	80037a8 <_fflush_r+0xc>
 80037e6:	89a3      	ldrh	r3, [r4, #12]
 80037e8:	059b      	lsls	r3, r3, #22
 80037ea:	d4dd      	bmi.n	80037a8 <_fflush_r+0xc>
 80037ec:	6da0      	ldr	r0, [r4, #88]	; 0x58
 80037ee:	f000 f908 	bl	8003a02 <__retarget_lock_release_recursive>
 80037f2:	e7d9      	b.n	80037a8 <_fflush_r+0xc>
 80037f4:	4b05      	ldr	r3, [pc, #20]	; (800380c <_fflush_r+0x70>)
 80037f6:	429c      	cmp	r4, r3
 80037f8:	d101      	bne.n	80037fe <_fflush_r+0x62>
 80037fa:	68ac      	ldr	r4, [r5, #8]
 80037fc:	e7df      	b.n	80037be <_fflush_r+0x22>
 80037fe:	4b04      	ldr	r3, [pc, #16]	; (8003810 <_fflush_r+0x74>)
 8003800:	429c      	cmp	r4, r3
 8003802:	bf08      	it	eq
 8003804:	68ec      	ldreq	r4, [r5, #12]
 8003806:	e7da      	b.n	80037be <_fflush_r+0x22>
 8003808:	08003f20 	.word	0x08003f20
 800380c:	08003f40 	.word	0x08003f40
 8003810:	08003f00 	.word	0x08003f00

08003814 <std>:
 8003814:	2300      	movs	r3, #0
 8003816:	b510      	push	{r4, lr}
 8003818:	4604      	mov	r4, r0
 800381a:	e9c0 3300 	strd	r3, r3, [r0]
 800381e:	e9c0 3304 	strd	r3, r3, [r0, #16]
 8003822:	6083      	str	r3, [r0, #8]
 8003824:	8181      	strh	r1, [r0, #12]
 8003826:	6643      	str	r3, [r0, #100]	; 0x64
 8003828:	81c2      	strh	r2, [r0, #14]
 800382a:	6183      	str	r3, [r0, #24]
 800382c:	4619      	mov	r1, r3
 800382e:	2208      	movs	r2, #8
 8003830:	305c      	adds	r0, #92	; 0x5c
 8003832:	f7ff fcab 	bl	800318c <memset>
 8003836:	4b05      	ldr	r3, [pc, #20]	; (800384c <std+0x38>)
 8003838:	6224      	str	r4, [r4, #32]
 800383a:	6263      	str	r3, [r4, #36]	; 0x24
 800383c:	4b04      	ldr	r3, [pc, #16]	; (8003850 <std+0x3c>)
 800383e:	62a3      	str	r3, [r4, #40]	; 0x28
 8003840:	4b04      	ldr	r3, [pc, #16]	; (8003854 <std+0x40>)
 8003842:	62e3      	str	r3, [r4, #44]	; 0x2c
 8003844:	4b04      	ldr	r3, [pc, #16]	; (8003858 <std+0x44>)
 8003846:	6323      	str	r3, [r4, #48]	; 0x30
 8003848:	bd10      	pop	{r4, pc}
 800384a:	bf00      	nop
 800384c:	0800344d 	.word	0x0800344d
 8003850:	0800346f 	.word	0x0800346f
 8003854:	080034a7 	.word	0x080034a7
 8003858:	080034cb 	.word	0x080034cb

0800385c <_cleanup_r>:
 800385c:	4901      	ldr	r1, [pc, #4]	; (8003864 <_cleanup_r+0x8>)
 800385e:	f000 b8af 	b.w	80039c0 <_fwalk_reent>
 8003862:	bf00      	nop
 8003864:	0800379d 	.word	0x0800379d

08003868 <__sfmoreglue>:
 8003868:	2268      	movs	r2, #104	; 0x68
 800386a:	b570      	push	{r4, r5, r6, lr}
 800386c:	1e4d      	subs	r5, r1, #1
 800386e:	4355      	muls	r5, r2
 8003870:	460e      	mov	r6, r1
 8003872:	f105 0174 	add.w	r1, r5, #116	; 0x74
 8003876:	f000 f9ad 	bl	8003bd4 <_malloc_r>
 800387a:	4604      	mov	r4, r0
 800387c:	b140      	cbz	r0, 8003890 <__sfmoreglue+0x28>
 800387e:	2100      	movs	r1, #0
 8003880:	e9c0 1600 	strd	r1, r6, [r0]
 8003884:	300c      	adds	r0, #12
 8003886:	60a0      	str	r0, [r4, #8]
 8003888:	f105 0268 	add.w	r2, r5, #104	; 0x68
 800388c:	f7ff fc7e 	bl	800318c <memset>
 8003890:	4620      	mov	r0, r4
 8003892:	bd70      	pop	{r4, r5, r6, pc}

08003894 <__sfp_lock_acquire>:
 8003894:	4801      	ldr	r0, [pc, #4]	; (800389c <__sfp_lock_acquire+0x8>)
 8003896:	f000 b8b3 	b.w	8003a00 <__retarget_lock_acquire_recursive>
 800389a:	bf00      	nop
 800389c:	20000211 	.word	0x20000211

080038a0 <__sfp_lock_release>:
 80038a0:	4801      	ldr	r0, [pc, #4]	; (80038a8 <__sfp_lock_release+0x8>)
 80038a2:	f000 b8ae 	b.w	8003a02 <__retarget_lock_release_recursive>
 80038a6:	bf00      	nop
 80038a8:	20000211 	.word	0x20000211

080038ac <__sinit_lock_acquire>:
 80038ac:	4801      	ldr	r0, [pc, #4]	; (80038b4 <__sinit_lock_acquire+0x8>)
 80038ae:	f000 b8a7 	b.w	8003a00 <__retarget_lock_acquire_recursive>
 80038b2:	bf00      	nop
 80038b4:	20000212 	.word	0x20000212

080038b8 <__sinit_lock_release>:
 80038b8:	4801      	ldr	r0, [pc, #4]	; (80038c0 <__sinit_lock_release+0x8>)
 80038ba:	f000 b8a2 	b.w	8003a02 <__retarget_lock_release_recursive>
 80038be:	bf00      	nop
 80038c0:	20000212 	.word	0x20000212

080038c4 <__sinit>:
 80038c4:	b510      	push	{r4, lr}
 80038c6:	4604      	mov	r4, r0
 80038c8:	f7ff fff0 	bl	80038ac <__sinit_lock_acquire>
 80038cc:	69a3      	ldr	r3, [r4, #24]
 80038ce:	b11b      	cbz	r3, 80038d8 <__sinit+0x14>
 80038d0:	e8bd 4010 	ldmia.w	sp!, {r4, lr}
 80038d4:	f7ff bff0 	b.w	80038b8 <__sinit_lock_release>
 80038d8:	e9c4 3312 	strd	r3, r3, [r4, #72]	; 0x48
 80038dc:	6523      	str	r3, [r4, #80]	; 0x50
 80038de:	4b13      	ldr	r3, [pc, #76]	; (800392c <__sinit+0x68>)
 80038e0:	4a13      	ldr	r2, [pc, #76]	; (8003930 <__sinit+0x6c>)
 80038e2:	681b      	ldr	r3, [r3, #0]
 80038e4:	62a2      	str	r2, [r4, #40]	; 0x28
 80038e6:	42a3      	cmp	r3, r4
 80038e8:	bf08      	it	eq
 80038ea:	2301      	moveq	r3, #1
 80038ec:	4620      	mov	r0, r4
 80038ee:	bf08      	it	eq
 80038f0:	61a3      	streq	r3, [r4, #24]
 80038f2:	f000 f81f 	bl	8003934 <__sfp>
 80038f6:	6060      	str	r0, [r4, #4]
 80038f8:	4620      	mov	r0, r4
 80038fa:	f000 f81b 	bl	8003934 <__sfp>
 80038fe:	60a0      	str	r0, [r4, #8]
 8003900:	4620      	mov	r0, r4
 8003902:	f000 f817 	bl	8003934 <__sfp>
 8003906:	2200      	movs	r2, #0
 8003908:	2104      	movs	r1, #4
 800390a:	60e0      	str	r0, [r4, #12]
 800390c:	6860      	ldr	r0, [r4, #4]
 800390e:	f7ff ff81 	bl	8003814 <std>
 8003912:	2201      	movs	r2, #1
 8003914:	2109      	movs	r1, #9
 8003916:	68a0      	ldr	r0, [r4, #8]
 8003918:	f7ff ff7c 	bl	8003814 <std>
 800391c:	2202      	movs	r2, #2
 800391e:	2112      	movs	r1, #18
 8003920:	68e0      	ldr	r0, [r4, #12]
 8003922:	f7ff ff77 	bl	8003814 <std>
 8003926:	2301      	movs	r3, #1
 8003928:	61a3      	str	r3, [r4, #24]
 800392a:	e7d1      	b.n	80038d0 <__sinit+0xc>
 800392c:	08003efc 	.word	0x08003efc
 8003930:	0800385d 	.word	0x0800385d

08003934 <__sfp>:
 8003934:	b5f8      	push	{r3, r4, r5, r6, r7, lr}
 8003936:	4607      	mov	r7, r0
 8003938:	f7ff ffac 	bl	8003894 <__sfp_lock_acquire>
 800393c:	4b1e      	ldr	r3, [pc, #120]	; (80039b8 <__sfp+0x84>)
 800393e:	681e      	ldr	r6, [r3, #0]
 8003940:	69b3      	ldr	r3, [r6, #24]
 8003942:	b913      	cbnz	r3, 800394a <__sfp+0x16>
 8003944:	4630      	mov	r0, r6
 8003946:	f7ff ffbd 	bl	80038c4 <__sinit>
 800394a:	3648      	adds	r6, #72	; 0x48
 800394c:	e9d6 3401 	ldrd	r3, r4, [r6, #4]
 8003950:	3b01      	subs	r3, #1
 8003952:	d503      	bpl.n	800395c <__sfp+0x28>
 8003954:	6833      	ldr	r3, [r6, #0]
 8003956:	b30b      	cbz	r3, 800399c <__sfp+0x68>
 8003958:	6836      	ldr	r6, [r6, #0]
 800395a:	e7f7      	b.n	800394c <__sfp+0x18>
 800395c:	f9b4 500c 	ldrsh.w	r5, [r4, #12]
 8003960:	b9d5      	cbnz	r5, 8003998 <__sfp+0x64>
 8003962:	4b16      	ldr	r3, [pc, #88]	; (80039bc <__sfp+0x88>)
 8003964:	f104 0058 	add.w	r0, r4, #88	; 0x58
 8003968:	60e3      	str	r3, [r4, #12]
 800396a:	6665      	str	r5, [r4, #100]	; 0x64
 800396c:	f000 f847 	bl	80039fe <__retarget_lock_init_recursive>
 8003970:	f7ff ff96 	bl	80038a0 <__sfp_lock_release>
 8003974:	2208      	movs	r2, #8
 8003976:	4629      	mov	r1, r5
 8003978:	e9c4 5501 	strd	r5, r5, [r4, #4]
 800397c:	e9c4 5504 	strd	r5, r5, [r4, #16]
 8003980:	6025      	str	r5, [r4, #0]
 8003982:	61a5      	str	r5, [r4, #24]
 8003984:	f104 005c 	add.w	r0, r4, #92	; 0x5c
 8003988:	f7ff fc00 	bl	800318c <memset>
 800398c:	e9c4 550d 	strd	r5, r5, [r4, #52]	; 0x34
 8003990:	e9c4 5512 	strd	r5, r5, [r4, #72]	; 0x48
 8003994:	4620      	mov	r0, r4
 8003996:	bdf8      	pop	{r3, r4, r5, r6, r7, pc}
 8003998:	3468      	adds	r4, #104	; 0x68
 800399a:	e7d9      	b.n	8003950 <__sfp+0x1c>
 800399c:	2104      	movs	r1, #4
 800399e:	4638      	mov	r0, r7
 80039a0:	f7ff ff62 	bl	8003868 <__sfmoreglue>
 80039a4:	4604      	mov	r4, r0
 80039a6:	6030      	str	r0, [r6, #0]
 80039a8:	2800      	cmp	r0, #0
 80039aa:	d1d5      	bne.n	8003958 <__sfp+0x24>
 80039ac:	f7ff ff78 	bl	80038a0 <__sfp_lock_release>
 80039b0:	230c      	movs	r3, #12
 80039b2:	603b      	str	r3, [r7, #0]
 80039b4:	e7ee      	b.n	8003994 <__sfp+0x60>
 80039b6:	bf00      	nop
 80039b8:	08003efc 	.word	0x08003efc
 80039bc:	ffff0001 	.word	0xffff0001

080039c0 <_fwalk_reent>:
 80039c0:	e92d 43f8 	stmdb	sp!, {r3, r4, r5, r6, r7, r8, r9, lr}
 80039c4:	4606      	mov	r6, r0
 80039c6:	4688      	mov	r8, r1
 80039c8:	2700      	movs	r7, #0
 80039ca:	f100 0448 	add.w	r4, r0, #72	; 0x48
 80039ce:	e9d4 9501 	ldrd	r9, r5, [r4, #4]
 80039d2:	f1b9 0901 	subs.w	r9, r9, #1
 80039d6:	d505      	bpl.n	80039e4 <_fwalk_reent+0x24>
 80039d8:	6824      	ldr	r4, [r4, #0]
 80039da:	2c00      	cmp	r4, #0
 80039dc:	d1f7      	bne.n	80039ce <_fwalk_reent+0xe>
 80039de:	4638      	mov	r0, r7
 80039e0:	e8bd 83f8 	ldmia.w	sp!, {r3, r4, r5, r6, r7, r8, r9, pc}
 80039e4:	89ab      	ldrh	r3, [r5, #12]
 80039e6:	2b01      	cmp	r3, #1
 80039e8:	d907      	bls.n	80039fa <_fwalk_reent+0x3a>
 80039ea:	f9b5 300e 	ldrsh.w	r3, [r5, #14]
 80039ee:	3301      	adds	r3, #1
 80039f0:	d003      	beq.n	80039fa <_fwalk_reent+0x3a>
 80039f2:	4629      	mov	r1, r5
 80039f4:	4630      	mov	r0, r6
 80039f6:	47c0      	blx	r8
 80039f8:	4307      	orrs	r7, r0
 80039fa:	3568      	adds	r5, #104	; 0x68
 80039fc:	e7e9      	b.n	80039d2 <_fwalk_reent+0x12>

080039fe <__retarget_lock_init_recursive>:
 80039fe:	4770      	bx	lr

08003a00 <__retarget_lock_acquire_recursive>:
 8003a00:	4770      	bx	lr

08003a02 <__retarget_lock_release_recursive>:
 8003a02:	4770      	bx	lr

08003a04 <_lseek_r>:
 8003a04:	b538      	push	{r3, r4, r5, lr}
 8003a06:	4604      	mov	r4, r0
 8003a08:	4608      	mov	r0, r1
 8003a0a:	4611      	mov	r1, r2
 8003a0c:	2200      	movs	r2, #0
 8003a0e:	4d05      	ldr	r5, [pc, #20]	; (8003a24 <_lseek_r+0x20>)
 8003a10:	602a      	str	r2, [r5, #0]
 8003a12:	461a      	mov	r2, r3
 8003a14:	f7fc ff70 	bl	80008f8 <_lseek>
 8003a18:	1c43      	adds	r3, r0, #1
 8003a1a:	d102      	bne.n	8003a22 <_lseek_r+0x1e>
 8003a1c:	682b      	ldr	r3, [r5, #0]
 8003a1e:	b103      	cbz	r3, 8003a22 <_lseek_r+0x1e>
 8003a20:	6023      	str	r3, [r4, #0]
 8003a22:	bd38      	pop	{r3, r4, r5, pc}
 8003a24:	2000021c 	.word	0x2000021c

08003a28 <__swhatbuf_r>:
 8003a28:	b570      	push	{r4, r5, r6, lr}
 8003a2a:	460e      	mov	r6, r1
 8003a2c:	f9b1 100e 	ldrsh.w	r1, [r1, #14]
 8003a30:	4614      	mov	r4, r2
 8003a32:	2900      	cmp	r1, #0
 8003a34:	461d      	mov	r5, r3
 8003a36:	b096      	sub	sp, #88	; 0x58
 8003a38:	da08      	bge.n	8003a4c <__swhatbuf_r+0x24>
 8003a3a:	2200      	movs	r2, #0
 8003a3c:	f9b6 300c 	ldrsh.w	r3, [r6, #12]
 8003a40:	602a      	str	r2, [r5, #0]
 8003a42:	061a      	lsls	r2, r3, #24
 8003a44:	d410      	bmi.n	8003a68 <__swhatbuf_r+0x40>
 8003a46:	f44f 6380 	mov.w	r3, #1024	; 0x400
 8003a4a:	e00e      	b.n	8003a6a <__swhatbuf_r+0x42>
 8003a4c:	466a      	mov	r2, sp
 8003a4e:	f000 f99f 	bl	8003d90 <_fstat_r>
 8003a52:	2800      	cmp	r0, #0
 8003a54:	dbf1      	blt.n	8003a3a <__swhatbuf_r+0x12>
 8003a56:	9a01      	ldr	r2, [sp, #4]
 8003a58:	f402 4270 	and.w	r2, r2, #61440	; 0xf000
 8003a5c:	f5a2 5300 	sub.w	r3, r2, #8192	; 0x2000
 8003a60:	425a      	negs	r2, r3
 8003a62:	415a      	adcs	r2, r3
 8003a64:	602a      	str	r2, [r5, #0]
 8003a66:	e7ee      	b.n	8003a46 <__swhatbuf_r+0x1e>
 8003a68:	2340      	movs	r3, #64	; 0x40
 8003a6a:	2000      	movs	r0, #0
 8003a6c:	6023      	str	r3, [r4, #0]
 8003a6e:	b016      	add	sp, #88	; 0x58
 8003a70:	bd70      	pop	{r4, r5, r6, pc}
	...

08003a74 <__smakebuf_r>:
 8003a74:	898b      	ldrh	r3, [r1, #12]
 8003a76:	b573      	push	{r0, r1, r4, r5, r6, lr}
 8003a78:	079d      	lsls	r5, r3, #30
 8003a7a:	4606      	mov	r6, r0
 8003a7c:	460c      	mov	r4, r1
 8003a7e:	d507      	bpl.n	8003a90 <__smakebuf_r+0x1c>
 8003a80:	f104 0347 	add.w	r3, r4, #71	; 0x47
 8003a84:	6023      	str	r3, [r4, #0]
 8003a86:	6123      	str	r3, [r4, #16]
 8003a88:	2301      	movs	r3, #1
 8003a8a:	6163      	str	r3, [r4, #20]
 8003a8c:	b002      	add	sp, #8
 8003a8e:	bd70      	pop	{r4, r5, r6, pc}
 8003a90:	466a      	mov	r2, sp
 8003a92:	ab01      	add	r3, sp, #4
 8003a94:	f7ff ffc8 	bl	8003a28 <__swhatbuf_r>
 8003a98:	9900      	ldr	r1, [sp, #0]
 8003a9a:	4605      	mov	r5, r0
 8003a9c:	4630      	mov	r0, r6
 8003a9e:	f000 f899 	bl	8003bd4 <_malloc_r>
 8003aa2:	b948      	cbnz	r0, 8003ab8 <__smakebuf_r+0x44>
 8003aa4:	f9b4 300c 	ldrsh.w	r3, [r4, #12]
 8003aa8:	059a      	lsls	r2, r3, #22
 8003aaa:	d4ef      	bmi.n	8003a8c <__smakebuf_r+0x18>
 8003aac:	f023 0303 	bic.w	r3, r3, #3
 8003ab0:	f043 0302 	orr.w	r3, r3, #2
 8003ab4:	81a3      	strh	r3, [r4, #12]
 8003ab6:	e7e3      	b.n	8003a80 <__smakebuf_r+0xc>
 8003ab8:	4b0d      	ldr	r3, [pc, #52]	; (8003af0 <__smakebuf_r+0x7c>)
 8003aba:	62b3      	str	r3, [r6, #40]	; 0x28
 8003abc:	89a3      	ldrh	r3, [r4, #12]
 8003abe:	6020      	str	r0, [r4, #0]
 8003ac0:	f043 0380 	orr.w	r3, r3, #128	; 0x80
 8003ac4:	81a3      	strh	r3, [r4, #12]
 8003ac6:	9b00      	ldr	r3, [sp, #0]
 8003ac8:	6120      	str	r0, [r4, #16]
 8003aca:	6163      	str	r3, [r4, #20]
 8003acc:	9b01      	ldr	r3, [sp, #4]
 8003ace:	b15b      	cbz	r3, 8003ae8 <__smakebuf_r+0x74>
 8003ad0:	4630      	mov	r0, r6
 8003ad2:	f9b4 100e 	ldrsh.w	r1, [r4, #14]
 8003ad6:	f000 f96d 	bl	8003db4 <_isatty_r>
 8003ada:	b128      	cbz	r0, 8003ae8 <__smakebuf_r+0x74>
 8003adc:	89a3      	ldrh	r3, [r4, #12]
 8003ade:	f023 0303 	bic.w	r3, r3, #3
 8003ae2:	f043 0301 	orr.w	r3, r3, #1
 8003ae6:	81a3      	strh	r3, [r4, #12]
 8003ae8:	89a0      	ldrh	r0, [r4, #12]
 8003aea:	4305      	orrs	r5, r0
 8003aec:	81a5      	strh	r5, [r4, #12]
 8003aee:	e7cd      	b.n	8003a8c <__smakebuf_r+0x18>
 8003af0:	0800385d 	.word	0x0800385d

08003af4 <malloc>:
 8003af4:	4b02      	ldr	r3, [pc, #8]	; (8003b00 <malloc+0xc>)
 8003af6:	4601      	mov	r1, r0
 8003af8:	6818      	ldr	r0, [r3, #0]
 8003afa:	f000 b86b 	b.w	8003bd4 <_malloc_r>
 8003afe:	bf00      	nop
 8003b00:	2000000c 	.word	0x2000000c

08003b04 <_free_r>:
 8003b04:	b538      	push	{r3, r4, r5, lr}
 8003b06:	4605      	mov	r5, r0
 8003b08:	2900      	cmp	r1, #0
 8003b0a:	d040      	beq.n	8003b8e <_free_r+0x8a>
 8003b0c:	f851 3c04 	ldr.w	r3, [r1, #-4]
 8003b10:	1f0c      	subs	r4, r1, #4
 8003b12:	2b00      	cmp	r3, #0
 8003b14:	bfb8      	it	lt
 8003b16:	18e4      	addlt	r4, r4, r3
 8003b18:	f000 f95c 	bl	8003dd4 <__malloc_lock>
 8003b1c:	4a1c      	ldr	r2, [pc, #112]	; (8003b90 <_free_r+0x8c>)
 8003b1e:	6813      	ldr	r3, [r2, #0]
 8003b20:	b933      	cbnz	r3, 8003b30 <_free_r+0x2c>
 8003b22:	6063      	str	r3, [r4, #4]
 8003b24:	6014      	str	r4, [r2, #0]
 8003b26:	4628      	mov	r0, r5
 8003b28:	e8bd 4038 	ldmia.w	sp!, {r3, r4, r5, lr}
 8003b2c:	f000 b958 	b.w	8003de0 <__malloc_unlock>
 8003b30:	42a3      	cmp	r3, r4
 8003b32:	d908      	bls.n	8003b46 <_free_r+0x42>
 8003b34:	6820      	ldr	r0, [r4, #0]
 8003b36:	1821      	adds	r1, r4, r0
 8003b38:	428b      	cmp	r3, r1
 8003b3a:	bf01      	itttt	eq
 8003b3c:	6819      	ldreq	r1, [r3, #0]
 8003b3e:	685b      	ldreq	r3, [r3, #4]
 8003b40:	1809      	addeq	r1, r1, r0
 8003b42:	6021      	streq	r1, [r4, #0]
 8003b44:	e7ed      	b.n	8003b22 <_free_r+0x1e>
 8003b46:	461a      	mov	r2, r3
 8003b48:	685b      	ldr	r3, [r3, #4]
 8003b4a:	b10b      	cbz	r3, 8003b50 <_free_r+0x4c>
 8003b4c:	42a3      	cmp	r3, r4
 8003b4e:	d9fa      	bls.n	8003b46 <_free_r+0x42>
 8003b50:	6811      	ldr	r1, [r2, #0]
 8003b52:	1850      	adds	r0, r2, r1
 8003b54:	42a0      	cmp	r0, r4
 8003b56:	d10b      	bne.n	8003b70 <_free_r+0x6c>
 8003b58:	6820      	ldr	r0, [r4, #0]
 8003b5a:	4401      	add	r1, r0
 8003b5c:	1850      	adds	r0, r2, r1
 8003b5e:	4283      	cmp	r3, r0
 8003b60:	6011      	str	r1, [r2, #0]
 8003b62:	d1e0      	bne.n	8003b26 <_free_r+0x22>
 8003b64:	6818      	ldr	r0, [r3, #0]
 8003b66:	685b      	ldr	r3, [r3, #4]
 8003b68:	4401      	add	r1, r0
 8003b6a:	6011      	str	r1, [r2, #0]
 8003b6c:	6053      	str	r3, [r2, #4]
 8003b6e:	e7da      	b.n	8003b26 <_free_r+0x22>
 8003b70:	d902      	bls.n	8003b78 <_free_r+0x74>
 8003b72:	230c      	movs	r3, #12
 8003b74:	602b      	str	r3, [r5, #0]
 8003b76:	e7d6      	b.n	8003b26 <_free_r+0x22>
 8003b78:	6820      	ldr	r0, [r4, #0]
 8003b7a:	1821      	adds	r1, r4, r0
 8003b7c:	428b      	cmp	r3, r1
 8003b7e:	bf01      	itttt	eq
 8003b80:	6819      	ldreq	r1, [r3, #0]
 8003b82:	685b      	ldreq	r3, [r3, #4]
 8003b84:	1809      	addeq	r1, r1, r0
 8003b86:	6021      	streq	r1, [r4, #0]
 8003b88:	6063      	str	r3, [r4, #4]
 8003b8a:	6054      	str	r4, [r2, #4]
 8003b8c:	e7cb      	b.n	8003b26 <_free_r+0x22>
 8003b8e:	bd38      	pop	{r3, r4, r5, pc}
 8003b90:	20000214 	.word	0x20000214

08003b94 <sbrk_aligned>:
 8003b94:	b570      	push	{r4, r5, r6, lr}
 8003b96:	4e0e      	ldr	r6, [pc, #56]	; (8003bd0 <sbrk_aligned+0x3c>)
 8003b98:	460c      	mov	r4, r1
 8003b9a:	6831      	ldr	r1, [r6, #0]
 8003b9c:	4605      	mov	r5, r0
 8003b9e:	b911      	cbnz	r1, 8003ba6 <sbrk_aligned+0x12>
 8003ba0:	f000 f8e6 	bl	8003d70 <_sbrk_r>
 8003ba4:	6030      	str	r0, [r6, #0]
 8003ba6:	4621      	mov	r1, r4
 8003ba8:	4628      	mov	r0, r5
 8003baa:	f000 f8e1 	bl	8003d70 <_sbrk_r>
 8003bae:	1c43      	adds	r3, r0, #1
 8003bb0:	d00a      	beq.n	8003bc8 <sbrk_aligned+0x34>
 8003bb2:	1cc4      	adds	r4, r0, #3
 8003bb4:	f024 0403 	bic.w	r4, r4, #3
 8003bb8:	42a0      	cmp	r0, r4
 8003bba:	d007      	beq.n	8003bcc <sbrk_aligned+0x38>
 8003bbc:	1a21      	subs	r1, r4, r0
 8003bbe:	4628      	mov	r0, r5
 8003bc0:	f000 f8d6 	bl	8003d70 <_sbrk_r>
 8003bc4:	3001      	adds	r0, #1
 8003bc6:	d101      	bne.n	8003bcc <sbrk_aligned+0x38>
 8003bc8:	f04f 34ff 	mov.w	r4, #4294967295
 8003bcc:	4620      	mov	r0, r4
 8003bce:	bd70      	pop	{r4, r5, r6, pc}
 8003bd0:	20000218 	.word	0x20000218

08003bd4 <_malloc_r>:
 8003bd4:	e92d 41f0 	stmdb	sp!, {r4, r5, r6, r7, r8, lr}
 8003bd8:	1ccd      	adds	r5, r1, #3
 8003bda:	f025 0503 	bic.w	r5, r5, #3
 8003bde:	3508      	adds	r5, #8
 8003be0:	2d0c      	cmp	r5, #12
 8003be2:	bf38      	it	cc
 8003be4:	250c      	movcc	r5, #12
 8003be6:	2d00      	cmp	r5, #0
 8003be8:	4607      	mov	r7, r0
 8003bea:	db01      	blt.n	8003bf0 <_malloc_r+0x1c>
 8003bec:	42a9      	cmp	r1, r5
 8003bee:	d905      	bls.n	8003bfc <_malloc_r+0x28>
 8003bf0:	230c      	movs	r3, #12
 8003bf2:	2600      	movs	r6, #0
 8003bf4:	603b      	str	r3, [r7, #0]
 8003bf6:	4630      	mov	r0, r6
 8003bf8:	e8bd 81f0 	ldmia.w	sp!, {r4, r5, r6, r7, r8, pc}
 8003bfc:	4e2e      	ldr	r6, [pc, #184]	; (8003cb8 <_malloc_r+0xe4>)
 8003bfe:	f000 f8e9 	bl	8003dd4 <__malloc_lock>
 8003c02:	6833      	ldr	r3, [r6, #0]
 8003c04:	461c      	mov	r4, r3
 8003c06:	bb34      	cbnz	r4, 8003c56 <_malloc_r+0x82>
 8003c08:	4629      	mov	r1, r5
 8003c0a:	4638      	mov	r0, r7
 8003c0c:	f7ff ffc2 	bl	8003b94 <sbrk_aligned>
 8003c10:	1c43      	adds	r3, r0, #1
 8003c12:	4604      	mov	r4, r0
 8003c14:	d14d      	bne.n	8003cb2 <_malloc_r+0xde>
 8003c16:	6834      	ldr	r4, [r6, #0]
 8003c18:	4626      	mov	r6, r4
 8003c1a:	2e00      	cmp	r6, #0
 8003c1c:	d140      	bne.n	8003ca0 <_malloc_r+0xcc>
 8003c1e:	6823      	ldr	r3, [r4, #0]
 8003c20:	4631      	mov	r1, r6
 8003c22:	4638      	mov	r0, r7
 8003c24:	eb04 0803 	add.w	r8, r4, r3
 8003c28:	f000 f8a2 	bl	8003d70 <_sbrk_r>
 8003c2c:	4580      	cmp	r8, r0
 8003c2e:	d13a      	bne.n	8003ca6 <_malloc_r+0xd2>
 8003c30:	6821      	ldr	r1, [r4, #0]
 8003c32:	3503      	adds	r5, #3
 8003c34:	1a6d      	subs	r5, r5, r1
 8003c36:	f025 0503 	bic.w	r5, r5, #3
 8003c3a:	3508      	adds	r5, #8
 8003c3c:	2d0c      	cmp	r5, #12
 8003c3e:	bf38      	it	cc
 8003c40:	250c      	movcc	r5, #12
 8003c42:	4638      	mov	r0, r7
 8003c44:	4629      	mov	r1, r5
 8003c46:	f7ff ffa5 	bl	8003b94 <sbrk_aligned>
 8003c4a:	3001      	adds	r0, #1
 8003c4c:	d02b      	beq.n	8003ca6 <_malloc_r+0xd2>
 8003c4e:	6823      	ldr	r3, [r4, #0]
 8003c50:	442b      	add	r3, r5
 8003c52:	6023      	str	r3, [r4, #0]
 8003c54:	e00e      	b.n	8003c74 <_malloc_r+0xa0>
 8003c56:	6822      	ldr	r2, [r4, #0]
 8003c58:	1b52      	subs	r2, r2, r5
 8003c5a:	d41e      	bmi.n	8003c9a <_malloc_r+0xc6>
 8003c5c:	2a0b      	cmp	r2, #11
 8003c5e:	d916      	bls.n	8003c8e <_malloc_r+0xba>
 8003c60:	1961      	adds	r1, r4, r5
 8003c62:	42a3      	cmp	r3, r4
 8003c64:	6025      	str	r5, [r4, #0]
 8003c66:	bf18      	it	ne
 8003c68:	6059      	strne	r1, [r3, #4]
 8003c6a:	6863      	ldr	r3, [r4, #4]
 8003c6c:	bf08      	it	eq
 8003c6e:	6031      	streq	r1, [r6, #0]
 8003c70:	5162      	str	r2, [r4, r5]
 8003c72:	604b      	str	r3, [r1, #4]
 8003c74:	4638      	mov	r0, r7
 8003c76:	f104 060b 	add.w	r6, r4, #11
 8003c7a:	f000 f8b1 	bl	8003de0 <__malloc_unlock>
 8003c7e:	f026 0607 	bic.w	r6, r6, #7
 8003c82:	1d23      	adds	r3, r4, #4
 8003c84:	1af2      	subs	r2, r6, r3
 8003c86:	d0b6      	beq.n	8003bf6 <_malloc_r+0x22>
 8003c88:	1b9b      	subs	r3, r3, r6
 8003c8a:	50a3      	str	r3, [r4, r2]
 8003c8c:	e7b3      	b.n	8003bf6 <_malloc_r+0x22>
 8003c8e:	6862      	ldr	r2, [r4, #4]
 8003c90:	42a3      	cmp	r3, r4
 8003c92:	bf0c      	ite	eq
 8003c94:	6032      	streq	r2, [r6, #0]
 8003c96:	605a      	strne	r2, [r3, #4]
 8003c98:	e7ec      	b.n	8003c74 <_malloc_r+0xa0>
 8003c9a:	4623      	mov	r3, r4
 8003c9c:	6864      	ldr	r4, [r4, #4]
 8003c9e:	e7b2      	b.n	8003c06 <_malloc_r+0x32>
 8003ca0:	4634      	mov	r4, r6
 8003ca2:	6876      	ldr	r6, [r6, #4]
 8003ca4:	e7b9      	b.n	8003c1a <_malloc_r+0x46>
 8003ca6:	230c      	movs	r3, #12
 8003ca8:	4638      	mov	r0, r7
 8003caa:	603b      	str	r3, [r7, #0]
 8003cac:	f000 f898 	bl	8003de0 <__malloc_unlock>
 8003cb0:	e7a1      	b.n	8003bf6 <_malloc_r+0x22>
 8003cb2:	6025      	str	r5, [r4, #0]
 8003cb4:	e7de      	b.n	8003c74 <_malloc_r+0xa0>
 8003cb6:	bf00      	nop
 8003cb8:	20000214 	.word	0x20000214

08003cbc <_putc_r>:
 8003cbc:	b570      	push	{r4, r5, r6, lr}
 8003cbe:	460d      	mov	r5, r1
 8003cc0:	4614      	mov	r4, r2
 8003cc2:	4606      	mov	r6, r0
 8003cc4:	b118      	cbz	r0, 8003cce <_putc_r+0x12>
 8003cc6:	6983      	ldr	r3, [r0, #24]
 8003cc8:	b90b      	cbnz	r3, 8003cce <_putc_r+0x12>
 8003cca:	f7ff fdfb 	bl	80038c4 <__sinit>
 8003cce:	4b1c      	ldr	r3, [pc, #112]	; (8003d40 <_putc_r+0x84>)
 8003cd0:	429c      	cmp	r4, r3
 8003cd2:	d124      	bne.n	8003d1e <_putc_r+0x62>
 8003cd4:	6874      	ldr	r4, [r6, #4]
 8003cd6:	6e63      	ldr	r3, [r4, #100]	; 0x64
 8003cd8:	07d8      	lsls	r0, r3, #31
 8003cda:	d405      	bmi.n	8003ce8 <_putc_r+0x2c>
 8003cdc:	89a3      	ldrh	r3, [r4, #12]
 8003cde:	0599      	lsls	r1, r3, #22
 8003ce0:	d402      	bmi.n	8003ce8 <_putc_r+0x2c>
 8003ce2:	6da0      	ldr	r0, [r4, #88]	; 0x58
 8003ce4:	f7ff fe8c 	bl	8003a00 <__retarget_lock_acquire_recursive>
 8003ce8:	68a3      	ldr	r3, [r4, #8]
 8003cea:	3b01      	subs	r3, #1
 8003cec:	2b00      	cmp	r3, #0
 8003cee:	60a3      	str	r3, [r4, #8]
 8003cf0:	da05      	bge.n	8003cfe <_putc_r+0x42>
 8003cf2:	69a2      	ldr	r2, [r4, #24]
 8003cf4:	4293      	cmp	r3, r2
 8003cf6:	db1c      	blt.n	8003d32 <_putc_r+0x76>
 8003cf8:	b2eb      	uxtb	r3, r5
 8003cfa:	2b0a      	cmp	r3, #10
 8003cfc:	d019      	beq.n	8003d32 <_putc_r+0x76>
 8003cfe:	6823      	ldr	r3, [r4, #0]
 8003d00:	1c5a      	adds	r2, r3, #1
 8003d02:	6022      	str	r2, [r4, #0]
 8003d04:	701d      	strb	r5, [r3, #0]
 8003d06:	b2ed      	uxtb	r5, r5
 8003d08:	6e63      	ldr	r3, [r4, #100]	; 0x64
 8003d0a:	07da      	lsls	r2, r3, #31
 8003d0c:	d405      	bmi.n	8003d1a <_putc_r+0x5e>
 8003d0e:	89a3      	ldrh	r3, [r4, #12]
 8003d10:	059b      	lsls	r3, r3, #22
 8003d12:	d402      	bmi.n	8003d1a <_putc_r+0x5e>
 8003d14:	6da0      	ldr	r0, [r4, #88]	; 0x58
 8003d16:	f7ff fe74 	bl	8003a02 <__retarget_lock_release_recursive>
 8003d1a:	4628      	mov	r0, r5
 8003d1c:	bd70      	pop	{r4, r5, r6, pc}
 8003d1e:	4b09      	ldr	r3, [pc, #36]	; (8003d44 <_putc_r+0x88>)
 8003d20:	429c      	cmp	r4, r3
 8003d22:	d101      	bne.n	8003d28 <_putc_r+0x6c>
 8003d24:	68b4      	ldr	r4, [r6, #8]
 8003d26:	e7d6      	b.n	8003cd6 <_putc_r+0x1a>
 8003d28:	4b07      	ldr	r3, [pc, #28]	; (8003d48 <_putc_r+0x8c>)
 8003d2a:	429c      	cmp	r4, r3
 8003d2c:	bf08      	it	eq
 8003d2e:	68f4      	ldreq	r4, [r6, #12]
 8003d30:	e7d1      	b.n	8003cd6 <_putc_r+0x1a>
 8003d32:	4629      	mov	r1, r5
 8003d34:	4622      	mov	r2, r4
 8003d36:	4630      	mov	r0, r6
 8003d38:	f7ff fbcc 	bl	80034d4 <__swbuf_r>
 8003d3c:	4605      	mov	r5, r0
 8003d3e:	e7e3      	b.n	8003d08 <_putc_r+0x4c>
 8003d40:	08003f20 	.word	0x08003f20
 8003d44:	08003f40 	.word	0x08003f40
 8003d48:	08003f00 	.word	0x08003f00

08003d4c <_read_r>:
 8003d4c:	b538      	push	{r3, r4, r5, lr}
 8003d4e:	4604      	mov	r4, r0
 8003d50:	4608      	mov	r0, r1
 8003d52:	4611      	mov	r1, r2
 8003d54:	2200      	movs	r2, #0
 8003d56:	4d05      	ldr	r5, [pc, #20]	; (8003d6c <_read_r+0x20>)
 8003d58:	602a      	str	r2, [r5, #0]
 8003d5a:	461a      	mov	r2, r3
 8003d5c:	f7fc fda4 	bl	80008a8 <_read>
 8003d60:	1c43      	adds	r3, r0, #1
 8003d62:	d102      	bne.n	8003d6a <_read_r+0x1e>
 8003d64:	682b      	ldr	r3, [r5, #0]
 8003d66:	b103      	cbz	r3, 8003d6a <_read_r+0x1e>
 8003d68:	6023      	str	r3, [r4, #0]
 8003d6a:	bd38      	pop	{r3, r4, r5, pc}
 8003d6c:	2000021c 	.word	0x2000021c

08003d70 <_sbrk_r>:
 8003d70:	b538      	push	{r3, r4, r5, lr}
 8003d72:	2300      	movs	r3, #0
 8003d74:	4d05      	ldr	r5, [pc, #20]	; (8003d8c <_sbrk_r+0x1c>)
 8003d76:	4604      	mov	r4, r0
 8003d78:	4608      	mov	r0, r1
 8003d7a:	602b      	str	r3, [r5, #0]
 8003d7c:	f7fc fdbe 	bl	80008fc <_sbrk>
 8003d80:	1c43      	adds	r3, r0, #1
 8003d82:	d102      	bne.n	8003d8a <_sbrk_r+0x1a>
 8003d84:	682b      	ldr	r3, [r5, #0]
 8003d86:	b103      	cbz	r3, 8003d8a <_sbrk_r+0x1a>
 8003d88:	6023      	str	r3, [r4, #0]
 8003d8a:	bd38      	pop	{r3, r4, r5, pc}
 8003d8c:	2000021c 	.word	0x2000021c

08003d90 <_fstat_r>:
 8003d90:	b538      	push	{r3, r4, r5, lr}
 8003d92:	2300      	movs	r3, #0
 8003d94:	4d06      	ldr	r5, [pc, #24]	; (8003db0 <_fstat_r+0x20>)
 8003d96:	4604      	mov	r4, r0
 8003d98:	4608      	mov	r0, r1
 8003d9a:	4611      	mov	r1, r2
 8003d9c:	602b      	str	r3, [r5, #0]
 8003d9e:	f7fc fda3 	bl	80008e8 <_fstat>
 8003da2:	1c43      	adds	r3, r0, #1
 8003da4:	d102      	bne.n	8003dac <_fstat_r+0x1c>
 8003da6:	682b      	ldr	r3, [r5, #0]
 8003da8:	b103      	cbz	r3, 8003dac <_fstat_r+0x1c>
 8003daa:	6023      	str	r3, [r4, #0]
 8003dac:	bd38      	pop	{r3, r4, r5, pc}
 8003dae:	bf00      	nop
 8003db0:	2000021c 	.word	0x2000021c

08003db4 <_isatty_r>:
 8003db4:	b538      	push	{r3, r4, r5, lr}
 8003db6:	2300      	movs	r3, #0
 8003db8:	4d05      	ldr	r5, [pc, #20]	; (8003dd0 <_isatty_r+0x1c>)
 8003dba:	4604      	mov	r4, r0
 8003dbc:	4608      	mov	r0, r1
 8003dbe:	602b      	str	r3, [r5, #0]
 8003dc0:	f7fc fd98 	bl	80008f4 <_isatty>
 8003dc4:	1c43      	adds	r3, r0, #1
 8003dc6:	d102      	bne.n	8003dce <_isatty_r+0x1a>
 8003dc8:	682b      	ldr	r3, [r5, #0]
 8003dca:	b103      	cbz	r3, 8003dce <_isatty_r+0x1a>
 8003dcc:	6023      	str	r3, [r4, #0]
 8003dce:	bd38      	pop	{r3, r4, r5, pc}
 8003dd0:	2000021c 	.word	0x2000021c

08003dd4 <__malloc_lock>:
 8003dd4:	4801      	ldr	r0, [pc, #4]	; (8003ddc <__malloc_lock+0x8>)
 8003dd6:	f7ff be13 	b.w	8003a00 <__retarget_lock_acquire_recursive>
 8003dda:	bf00      	nop
 8003ddc:	20000210 	.word	0x20000210

08003de0 <__malloc_unlock>:
 8003de0:	4801      	ldr	r0, [pc, #4]	; (8003de8 <__malloc_unlock+0x8>)
 8003de2:	f7ff be0e 	b.w	8003a02 <__retarget_lock_release_recursive>
 8003de6:	bf00      	nop
 8003de8:	20000210 	.word	0x20000210

08003dec <_init>:
 8003dec:	b5f8      	push	{r3, r4, r5, r6, r7, lr}
 8003dee:	bf00      	nop
 8003df0:	bcf8      	pop	{r3, r4, r5, r6, r7}
 8003df2:	bc08      	pop	{r3}
 8003df4:	469e      	mov	lr, r3
 8003df6:	4770      	bx	lr

08003df8 <_fini>:
 8003df8:	b5f8      	push	{r3, r4, r5, r6, r7, lr}
 8003dfa:	bf00      	nop
 8003dfc:	bcf8      	pop	{r3, r4, r5, r6, r7}
 8003dfe:	bc08      	pop	{r3}
 8003e00:	469e      	mov	lr, r3
 8003e02:	4770      	bx	lr
